Certificate:
    Data:
        Version: 1 (0x0)
        Serial Number: 4096 (0x1000)
        Signature Algorithm: sha256WithRSAEncryption
        Issuer: CN = www.wolfssl.com, ST = Montana, C = US, emailAddress = info@wolfssl.com, OU = Engineering
        Validity
            Not Before: Jul 31 00:00:00 2018 GMT
            Not After : Aug 30 00:00:00 2018 GMT
        Subject: CN = www.wolfssl.com, ST = Montana, C = US, emailAddress = info@wolfssl.com, OU = Engineering
        Subject Public Key Info:
            Public Key Algorithm: rsaEncryption
                RSA Public-Key: (2048 bit)
                Modulus:
                    00:bf:0c:ca:2d:14:b2:1e:84:42:5b:cd:38:1f:4a:
                    f2:4d:75:10:f1:b6:35:9f:df:ca:7d:03:98:d3:ac:
                    de:03:66:ee:2a:f1:d8:b0:7d:6e:07:54:0b:10:98:
                    21:4d:80:cb:12:20:e7:cc:4f:de:45:7d:c9:72:77:
                    32:ea:ca:90:bb:69:52:10:03:2f:a8:f3:95:c5:f1:
                    8b:62:56:1b:ef:67:6f:a4:10:41:95:ad:0a:9b:e3:
                    a5:c0:b0:d2:70:76:50:30:5b:a8:e8:08:2c:7c:ed:
                    a7:a2:7a:8d:38:29:1c:ac:c7:ed:f2:7c:95:b0:95:
                    82:7d:49:5c:38:cd:77:25:ef:bd:80:75:53:94:3c:
                    3d:ca:63:5b:9f:15:b5:d3:1d:13:2f:19:d1:3c:db:
                    76:3a:cc:b8:7d:c9:e5:c2:d7:da:40:6f:d8:21:dc:
                    73:1b:42:2d:53:9c:fe:1a:fc:7d:ab:7a:36:3f:98:
                    de:84:7c:05:67:ce:6a:14:38:87:a9:f1:8c:b5:68:
                    cb:68:7f:71:20:2b:f5:a0:63:f5:56:2f:a3:26:d2:
                    b7:6f:b1:5a:17:d7:38:99:08:fe:93:58:6f:fe:c3:
                    13:49:08:16:0b:a7:4d:67:00:52:31:67:23:4e:98:
                    ed:51:45:1d:b9:04:d9:0b:ec:d8:28:b3:4b:bd:ed:
                    36:79
                Exponent: 65537 (0x10001)
    Signature Algorithm: sha256WithRSAEncryption
         ab:8a:ab:ae:77:a2:61:62:01:54:51:95:7c:d5:6c:76:cb:fe:
         ac:b8:cd:bc:ec:c4:75:71:16:62:59:67:02:ab:e2:fb:9c:74:
         46:be:d9:08:8c:30:d1:0d:5c:c8:48:ff:6d:77:29:6d:c1:4c:
         bc:90:44:e6:d9:aa:e8:c1:ae:b1:81:b2:58:50:b3:23:59:35:
         c0:c3:e1:34:98:ef:68:86:fb:e9:9a:a1:63:41:54:cb:ab:73:
         03:c3:1a:e9:5f:50:81:b8:a8:b8:05:14:7d:1e:fa:a2:2b:b8:
         68:eb:c8:b0:b6:50:df:2b:96:c7:26:b9:ca:c9:41:e1:83:c5:
         3e:06:11:56:a3:54:f5:e2:26:65:b9:7f:e4:5f:fb:49:ef:82:
         7d:15:24:72:02:5b:2b:d7:c9:d4:dc:26:08:78:f2:c3:73:c6:
         25:56:d1:30:99:39:09:43:5d:e6:e3:ca:f2:3f:68:13:13:d6:
         d2:df:5f:05:5b:09:48:27:87:5a:60:eb:c2:ff:93:7d:5c:e0:
         45:c4:85:21:d3:43:1d:c2:78:0d:e5:ff:2b:27:f0:e9:d4:a4:
         40:02:5f:27:19:94:4b:ea:64:cc:e2:d6:04:e5:70:7a:01:a5:
         6f:3f:3c:ce:3d:84:cf:fb:d9:80:c3:df:fb:44:2f:1e:2f:32:
         e9:56:6b:5b
-----BEGIN CERTIFICATE-----
MIIDVTCCAj0CAhAAMA0GCSqGSIb3DQEBCwUAMHAxGDAWBgNVBAMMD3d3dy53b2xm
c3NsLmNvbTEQMA4GA1UECAwHTW9udGFuYTELMAkGA1UEBhMCVVMxHzAdBgkqhkiG
9w0BCQEWEGluZm9Ad29sZnNzbC5jb20xFDASBgNVBAsMC0VuZ2luZWVyaW5nMB4X
DTE4MDczMTAwMDAwMFoXDTE4MDgzMDAwMDAwMFowcDEYMBYGA1UEAwwPd3d3Lndv
bGZzc2wuY29tMRAwDgYDVQQIDAdNb250YW5hMQswCQYDVQQGEwJVUzEfMB0GCSqG
SIb3DQEJARYQaW5mb0B3b2xmc3NsLmNvbTEUMBIGA1UECwwLRW5naW5lZXJpbmcw
ggEiMA0GCSqGSIb3DQEBAQUAA4IBDwAwggEKAoIBAQC/DMotFLIehEJbzTgfSvJN
dRDxtjWf38p9A5jTrN4DZu4q8diwfW4HVAsQmCFNgMsSIOfMT95FfclydzLqypC7
aVIQAy+o85XF8YtiVhvvZ2+kEEGVrQqb46XAsNJwdlAwW6joCCx87aeieo04KRys
x+3yfJWwlYJ9SVw4zXcl772AdVOUPD3KY1ufFbXTHRMvGdE823Y6zLh9yeXC19pA
b9gh3HMbQi1TnP4a/H2rejY/mN6EfAVnzmoUOIep8Yy1aMtof3EgK/WgY/VWL6Mm
0rdvsVoX1ziZCP6TWG/+wxNJCBYLp01nAFIxZyNOmO1RRR25BNkL7Ngos0u97TZ5
AgMBAAEwDQYJKoZIhvcNAQELBQADggEBAKuKq653omFiAVRRlXzVbHbL/qy4zbzs
xHVxFmJZZwKr4vucdEa+2QiMMNENXMhI/213KW3BTLyQRObZqujBrrGBslhQsyNZ
NcDD4TSY72iG++maoWNBVMurcwPDGulfUIG4qLgFFH0e+qIruGjryLC2UN8rlscm
ucrJQeGDxT4GEVajVPXiJmW5f+Rf+0nvgn0VJHICWyvXydTcJgh48sNzxiVW0TCZ
OQlDXebjyvI/aBMT1tLfXwVbCUgnh1pg68L/k31c4EXEhSHTQx3CeA3l/ysn8OnU
pEACXycZlEvqZMzi1gTlcHoBpW8/PM49hM/72YDD3/tELx4vMulWa1s=
-----END CERTIFICATE-----
