Certificate:
    Data:
        Version: 1 (0x0)
        Serial Number: 4096 (0x1000)
        Signature Algorithm: sha256WithRSAEncryption
        Issuer: CN = www.wolfssl.com, ST = Montana, C = US, emailAddress = info@wolfssl.com, OU = Engineering
        Validity
            Not Before: Jul 31 00:00:00 2018 GMT
            Not After : Aug 30 00:00:00 2018 GMT
        Subject: CN = www.wolfssl.com, ST = Montana, C = US, emailAddress = info@wolfssl.com, OU = Engineering
        Subject Public Key Info:
            Public Key Algorithm: rsaEncryption
                RSA Public-Key: (2048 bit)
                Modulus:
                    00:c0:95:08:e1:57:41:f2:71:6d:b7:d2:45:41:27:
                    01:65:c6:45:ae:f2:bc:24:30:b8:95:ce:2f:4e:d6:
                    f6:1c:88:bc:7c:9f:fb:a8:67:7f:fe:5c:9c:51:75:
                    f7:8a:ca:07:e7:35:2f:8f:e1:bd:7b:c0:2f:7c:ab:
                    64:a8:17:fc:ca:5d:7b:ba:e0:21:e5:72:2e:6f:2e:
                    86:d8:95:73:da:ac:1b:53:b9:5f:3f:d7:19:0d:25:
                    4f:e1:63:63:51:8b:0b:64:3f:ad:43:b8:a5:1c:5c:
                    34:b3:ae:00:a0:63:c5:f6:7f:0b:59:68:78:73:a6:
                    8c:18:a9:02:6d:af:c3:19:01:2e:b8:10:e3:c6:cc:
                    40:b4:69:a3:46:33:69:87:6e:c4:bb:17:a6:f3:e8:
                    dd:ad:73:bc:7b:2f:21:b5:fd:66:51:0c:bd:54:b3:
                    e1:6d:5f:1c:bc:23:73:d1:09:03:89:14:d2:10:b9:
                    64:c3:2a:d0:a1:96:4a:bc:e1:d4:1a:5b:c7:a0:c0:
                    c1:63:78:0f:44:37:30:32:96:80:32:23:95:a1:77:
                    ba:13:d2:97:73:e2:5d:25:c9:6a:0d:c3:39:60:a4:
                    b4:b0:69:42:42:09:e9:d8:08:bc:33:20:b3:58:22:
                    a7:aa:eb:c4:e1:e6:61:83:c5:d2:96:df:d9:d0:4f:
                    ad:d7
                Exponent: 65537 (0x10001)
    Signature Algorithm: sha256WithRSAEncryption
         71:a7:78:76:da:ba:98:0f:3d:21:cd:42:76:fe:b9:e3:b9:2e:
         49:a6:8c:31:de:6e:4b:b4:b4:e2:d8:a7:d3:ee:1c:fe:c9:92:
         e2:e1:e2:ef:b2:a7:7f:a8:ba:4b:e2:aa:16:e5:ab:5d:e6:28:
         35:cc:1b:8b:8d:b0:86:07:c8:21:8e:90:a6:86:2c:05:23:d9:
         a0:4b:bf:8a:81:f0:0f:33:73:af:40:e8:84:dc:bb:dd:af:e4:
         6e:c0:30:d1:60:5c:c2:1e:af:7d:82:16:b7:e5:ad:74:6c:9e:
         ff:71:23:2c:70:ac:51:5f:7d:dc:39:90:44:f2:69:b7:84:0b:
         65:4e:4f:0c:8a:ff:0a:6e:9c:56:cd:87:0b:5e:49:7b:eb:25:
         e1:e9:1c:ac:73:e4:bd:d0:6f:e0:d8:77:dd:54:df:a5:16:64:
         ab:82:0e:c7:ae:fd:1c:cb:22:f2:e3:f3:81:54:7a:26:0e:98:
         f4:dc:bb:9c:a1:b8:47:e9:fc:d4:6e:84:51:9d:0e:fa:b2:d5:
         9a:76:6f:f0:30:39:4e:39:cd:84:78:29:4f:d5:7b:eb:06:f2:
         37:ee:3c:c1:8b:3c:b5:21:12:e8:ed:67:a0:98:d6:13:3f:14:
         70:5e:09:67:de:d1:82:8b:88:50:57:d0:fb:fc:d7:64:14:99:
         12:71:61:2f
-----BEGIN CERTIFICATE-----
MIIDVTCCAj0CAhAAMA0GCSqGSIb3DQEBCwUAMHAxGDAWBgNVBAMMD3d3dy53b2xm
c3NsLmNvbTEQMA4GA1UECAwHTW9udGFuYTELMAkGA1UEBhMCVVMxHzAdBgkqhkiG
9w0BCQEWEGluZm9Ad29sZnNzbC5jb20xFDASBgNVBAsMC0VuZ2luZWVyaW5nMB4X
DTE4MDczMTAwMDAwMFoXDTE4MDgzMDAwMDAwMFowcDEYMBYGA1UEAwwPd3d3Lndv
bGZzc2wuY29tMRAwDgYDVQQIDAdNb250YW5hMQswCQYDVQQGEwJVUzEfMB0GCSqG
SIb3DQEJARYQaW5mb0B3b2xmc3NsLmNvbTEUMBIGA1UECwwLRW5naW5lZXJpbmcw
ggEiMA0GCSqGSIb3DQEBAQUAA4IBDwAwggEKAoIBAQDAlQjhV0HycW230kVBJwFl
xkWu8rwkMLiVzi9O1vYciLx8n/uoZ3/+XJxRdfeKygfnNS+P4b17wC98q2SoF/zK
XXu64CHlci5vLobYlXParBtTuV8/1xkNJU/hY2NRiwtkP61DuKUcXDSzrgCgY8X2
fwtZaHhzpowYqQJtr8MZAS64EOPGzEC0aaNGM2mHbsS7F6bz6N2tc7x7LyG1/WZR
DL1Us+FtXxy8I3PRCQOJFNIQuWTDKtChlkq84dQaW8egwMFjeA9ENzAyloAyI5Wh
d7oT0pdz4l0lyWoNwzlgpLSwaUJCCenYCLwzILNYIqeq68Th5mGDxdKW39nQT63X
AgMBAAEwDQYJKoZIhvcNAQELBQADggEBAHGneHbaupgPPSHNQnb+ueO5LkmmjDHe
bku0tOLYp9PuHP7JkuLh4u+yp3+oukviqhblq13mKDXMG4uNsIYHyCGOkKaGLAUj
2aBLv4qB8A8zc69A6ITcu92v5G7AMNFgXMIer32CFrflrXRsnv9xIyxwrFFffdw5
kETyabeEC2VOTwyK/wpunFbNhwteSXvrJeHpHKxz5L3Qb+DYd91U36UWZKuCDseu
/RzLIvLj84FUeiYOmPTcu5yhuEfp/NRuhFGdDvqy1Zp2b/AwOU45zYR4KU/Ve+sG
8jfuPMGLPLUhEujtZ6CY1hM/FHBeCWfe0YKLiFBX0Pv812QUmRJxYS8=
-----END CERTIFICATE-----
