Certificate:
    Data:
        Version: 3 (0x2)
        Serial Number:
            03:33:56:6e:5f:e0:69:69:99:6b:eb:d0:eb:47:cf:f2:05:3f:98:15
        Signature Algorithm: sha256WithRSAEncryption
        Issuer: C = US, ST = Montana, L = Bozeman, O = wolfSSL_3072, OU = Programming-3072, CN = www.wolfssl.com, emailAddress = info@wolfssl.com
        Validity
            Not Before: Dec 16 21:17:49 2022 GMT
            Not After : Sep 11 21:17:49 2025 GMT
        Subject: C = US, ST = Montana, L = Bozeman, O = wolfSSL_3072, OU = Programming-3072, CN = www.wolfssl.com, emailAddress = info@wolfssl.com
        Subject Public Key Info:
            Public Key Algorithm: rsaEncryption
                RSA Public-Key: (3072 bit)
                Modulus:
                    00:ac:39:50:68:8f:78:f8:10:9b:68:96:d3:e1:9c:
                    56:68:5a:41:62:e3:b3:41:b0:55:80:17:b0:88:16:
                    9b:e0:97:74:5f:42:79:73:42:df:93:f3:aa:9d:ee:
                    2d:6f:aa:bc:27:90:84:c0:5d:c7:ec:49:ea:5c:66:
                    1d:70:9c:53:5c:ba:a1:b3:58:c9:3e:8e:9b:72:3d:
                    6e:02:02:00:9c:65:56:82:a3:22:b4:08:5f:2a:ef:
                    df:9a:d0:e7:31:59:26:5b:0b:1c:63:61:ff:d5:69:
                    32:19:06:7e:0f:40:3c:7a:1e:c8:fc:58:6c:64:ae:
                    10:3d:a8:23:ff:8e:1a:ca:6a:82:e2:f9:01:64:2c:
                    97:a0:1a:89:a0:74:d3:b6:05:11:f2:62:06:48:2a:
                    f7:66:ce:c1:85:e1:d2:27:ea:ca:12:a5:91:97:3e:
                    fc:94:06:59:51:c0:e7:13:b6:87:7b:5f:d2:c0:56:
                    2f:5e:1d:02:c3:11:2c:df:f7:01:da:bd:85:54:35:
                    32:5f:c5:c8:f9:7a:9f:89:f7:03:0e:7e:79:5d:04:
                    82:35:10:fe:6d:9b:bf:b8:ee:e2:62:87:26:5e:2f:
                    50:2f:78:0c:e8:73:4f:88:6a:d6:26:a4:c9:fc:fa:
                    1e:8a:b0:f4:32:cf:57:cd:a1:58:8a:49:0f:bb:a9:
                    1d:86:ab:b9:8f:8d:57:19:b2:5a:7e:a4:ea:cc:b7:
                    96:7a:3b:38:cd:de:e0:61:fc:c9:06:8f:93:5a:ce:
                    ad:2a:e3:2d:3e:39:5d:41:83:01:1f:0f:e1:7f:76:
                    c7:28:da:56:ef:bf:dc:26:35:40:be:ad:c7:38:ad:
                    a4:06:ac:ca:e8:51:eb:c0:f8:68:02:2c:9b:a1:14:
                    bc:f8:61:86:d7:56:d7:73:f4:ab:bb:6a:21:d3:88:
                    22:b4:e7:6f:7f:91:e5:0e:c6:08:49:de:ea:13:58:
                    72:a0:aa:3a:f9:36:03:45:57:5e:87:d2:73:65:c4:
                    8c:a3:ee:c9:d6:73:7c:96:41:93
                Exponent: 65537 (0x10001)
        X509v3 extensions:
            X509v3 Subject Key Identifier: 
                3D:D1:84:C2:AF:B0:20:49:BC:74:87:41:38:AB:BA:D2:D4:0C:A3:A8
            X509v3 Authority Key Identifier: 
                keyid:3D:D1:84:C2:AF:B0:20:49:BC:74:87:41:38:AB:BA:D2:D4:0C:A3:A8
                DirName:/C=US/ST=Montana/L=Bozeman/O=wolfSSL_3072/OU=Programming-3072/CN=www.wolfssl.com/emailAddress=info@wolfssl.com
                serial:03:33:56:6E:5F:E0:69:69:99:6B:EB:D0:EB:47:CF:F2:05:3F:98:15

            X509v3 Basic Constraints: 
                CA:TRUE
            X509v3 Subject Alternative Name: 
                DNS:example.com, IP Address:127.0.0.1
            X509v3 Extended Key Usage: 
                TLS Web Server Authentication, TLS Web Client Authentication
    Signature Algorithm: sha256WithRSAEncryption
         90:e4:43:8e:be:9d:de:45:4e:df:df:8d:e7:7c:2d:1b:a9:1a:
         ef:90:15:fb:d3:a9:99:a8:5b:d7:f9:b8:95:19:fe:e0:00:09:
         c1:e3:e8:27:82:11:7c:39:23:92:38:45:86:6d:77:c2:83:8c:
         1a:0f:4b:c5:94:0d:e9:17:28:8c:cf:8f:6d:e9:43:82:0f:31:
         67:bb:d5:d7:3f:0b:ce:ce:22:f4:a8:5b:84:8d:fd:d2:cb:d6:
         dc:ee:31:f3:e7:26:b7:58:6a:c5:9e:ff:89:5f:f6:70:fb:6b:
         02:ba:79:6a:9a:12:1b:82:94:1b:02:22:30:7d:74:44:46:25:
         85:a1:a8:7d:a0:ab:c3:a7:9e:08:a3:d7:5c:42:a2:af:96:42:
         9c:76:9b:8d:ec:08:68:71:95:92:a5:b9:aa:12:f9:c5:62:ac:
         8e:4f:df:cc:b7:53:e3:c4:70:74:9b:38:d2:e9:da:3f:ef:c4:
         55:01:9a:b9:3e:c4:33:e7:33:db:0f:ba:55:84:0f:3c:4c:a5:
         85:ec:5a:f2:98:75:e0:eb:47:b8:4b:d3:85:63:dc:b0:29:85:
         51:62:bf:6a:61:9b:40:01:66:0d:72:42:bd:4f:e0:c6:31:a6:
         06:df:c1:e9:8a:a0:57:c7:4d:4f:e7:c0:45:7f:7f:a7:53:ca:
         90:1d:70:a8:46:95:99:ef:19:ee:e2:45:35:1a:dc:0d:cb:c3:
         b0:d5:88:8b:b9:9f:b5:ea:c1:fe:5e:7a:c1:83:c8:74:f5:1a:
         29:52:38:5d:14:ea:17:2d:39:f6:19:16:c4:91:b0:e7:18:36:
         56:a0:64:75:8d:66:57:48:1b:38:f2:a0:01:b1:44:32:34:a5:
         0e:bc:28:46:77:ed:65:c1:75:34:f8:06:12:45:1a:70:78:81:
         d1:55:27:cf:ad:b3:d4:5a:97:43:88:02:bb:93:ba:17:42:51:
         59:52:13:ec:fc:ef:6b:53:f7:f2:41:8a:42:06:56:e2:f4:97:
         d2:22:31:02:2a:47
-----BEGIN CERTIFICATE-----
MIIGHTCCBIWgAwIBAgIUAzNWbl/gaWmZa+vQ60fP8gU/mBUwDQYJKoZIhvcNAQEL
BQAwgZ4xCzAJBgNVBAYTAlVTMRAwDgYDVQQIDAdNb250YW5hMRAwDgYDVQQHDAdC
b3plbWFuMRUwEwYDVQQKDAx3b2xmU1NMXzMwNzIxGTAXBgNVBAsMEFByb2dyYW1t
aW5nLTMwNzIxGDAWBgNVBAMMD3d3dy53b2xmc3NsLmNvbTEfMB0GCSqGSIb3DQEJ
ARYQaW5mb0B3b2xmc3NsLmNvbTAeFw0yMjEyMTYyMTE3NDlaFw0yNTA5MTEyMTE3
NDlaMIGeMQswCQYDVQQGEwJVUzEQMA4GA1UECAwHTW9udGFuYTEQMA4GA1UEBwwH
Qm96ZW1hbjEVMBMGA1UECgwMd29sZlNTTF8zMDcyMRkwFwYDVQQLDBBQcm9ncmFt
bWluZy0zMDcyMRgwFgYDVQQDDA93d3cud29sZnNzbC5jb20xHzAdBgkqhkiG9w0B
CQEWEGluZm9Ad29sZnNzbC5jb20wggGiMA0GCSqGSIb3DQEBAQUAA4IBjwAwggGK
AoIBgQCsOVBoj3j4EJtoltPhnFZoWkFi47NBsFWAF7CIFpvgl3RfQnlzQt+T86qd
7i1vqrwnkITAXcfsSepcZh1wnFNcuqGzWMk+jptyPW4CAgCcZVaCoyK0CF8q79+a
0OcxWSZbCxxjYf/VaTIZBn4PQDx6Hsj8WGxkrhA9qCP/jhrKaoLi+QFkLJegGomg
dNO2BRHyYgZIKvdmzsGF4dIn6soSpZGXPvyUBllRwOcTtod7X9LAVi9eHQLDESzf
9wHavYVUNTJfxcj5ep+J9wMOfnldBII1EP5tm7+47uJihyZeL1AveAzoc0+IatYm
pMn8+h6KsPQyz1fNoViKSQ+7qR2Gq7mPjVcZslp+pOrMt5Z6OzjN3uBh/MkGj5Na
zq0q4y0+OV1BgwEfD+F/dsco2lbvv9wmNUC+rcc4raQGrMroUevA+GgCLJuhFLz4
YYbXVtdz9Ku7aiHTiCK0529/keUOxghJ3uoTWHKgqjr5NgNFV16H0nNlxIyj7snW
c3yWQZMCAwEAAaOCAU8wggFLMB0GA1UdDgQWBBQ90YTCr7AgSbx0h0E4q7rS1Ayj
qDCB3gYDVR0jBIHWMIHTgBQ90YTCr7AgSbx0h0E4q7rS1AyjqKGBpKSBoTCBnjEL
MAkGA1UEBhMCVVMxEDAOBgNVBAgMB01vbnRhbmExEDAOBgNVBAcMB0JvemVtYW4x
FTATBgNVBAoMDHdvbGZTU0xfMzA3MjEZMBcGA1UECwwQUHJvZ3JhbW1pbmctMzA3
MjEYMBYGA1UEAwwPd3d3LndvbGZzc2wuY29tMR8wHQYJKoZIhvcNAQkBFhBpbmZv
QHdvbGZzc2wuY29tghQDM1ZuX+BpaZlr69DrR8/yBT+YFTAMBgNVHRMEBTADAQH/
MBwGA1UdEQQVMBOCC2V4YW1wbGUuY29thwR/AAABMB0GA1UdJQQWMBQGCCsGAQUF
BwMBBggrBgEFBQcDAjANBgkqhkiG9w0BAQsFAAOCAYEAkORDjr6d3kVO39+N53wt
G6ka75AV+9Opmahb1/m4lRn+4AAJwePoJ4IRfDkjkjhFhm13woOMGg9LxZQN6Rco
jM+PbelDgg8xZ7vV1z8Lzs4i9KhbhI390svW3O4x8+cmt1hqxZ7/iV/2cPtrArp5
apoSG4KUGwIiMH10REYlhaGofaCrw6eeCKPXXEKir5ZCnHabjewIaHGVkqW5qhL5
xWKsjk/fzLdT48RwdJs40unaP+/EVQGauT7EM+cz2w+6VYQPPEylhexa8ph14OtH
uEvThWPcsCmFUWK/amGbQAFmDXJCvU/gxjGmBt/B6YqgV8dNT+fARX9/p1PKkB1w
qEaVme8Z7uJFNRrcDcvDsNWIi7mfterB/l56wYPIdPUaKVI4XRTqFy059hkWxJGw
5xg2VqBkdY1mV0gbOPKgAbFEMjSlDrwoRnftZcF1NPgGEkUacHiB0VUnz62z1FqX
Q4gCu5O6F0JRWVIT7Pzva1P38kGKQgZW4vSX0iIxAipH
-----END CERTIFICATE-----
