Certificate:
    Data:
        Version: 3 (0x2)
        Serial Number:
            02:9c:30:ec:ee:53:da:f2:24:a6:2c:bb:81:07:09:cb:30:e5:8e:94
        Signature Algorithm: ecdsa-with-SHA256
        Issuer: C = US, ST = Washington, L = Seattle, O = Eliptic, OU = ECC256K1-CLI, CN = www.wolfssl.com, emailAddress = info@wolfssl.com
        Validity
            Not Before: Dec 16 21:17:49 2022 GMT
            Not After : Dec 13 21:17:49 2032 GMT
        Subject: C = US, ST = Washington, L = Seattle, O = Eliptic, OU = ECC256K1-CLI, CN = www.wolfssl.com, emailAddress = info@wolfssl.com
        Subject Public Key Info:
            Public Key Algorithm: id-ecPublicKey
                Public-Key: (256 bit)
                pub:
                    04:b1:4d:01:8b:58:19:36:3b:ed:bb:89:5e:d1:86:
                    05:c6:6a:d4:88:44:fc:59:80:f6:16:32:9d:54:5d:
                    b8:af:c0:5c:24:0e:cc:ee:e8:65:45:44:7a:ee:43:
                    89:49:7c:eb:db:11:ac:23:ea:e5:17:6b:59:6d:78:
                    19:61:98:5f:47
                ASN1 OID: secp256k1
        X509v3 extensions:
            X509v3 Basic Constraints: 
                CA:FALSE
            Netscape Cert Type: 
                SSL Client, S/MIME
            X509v3 Subject Key Identifier: 
                55:43:F0:D0:D3:04:98:0C:EB:7C:EA:83:D3:BD:F4:81:46:31:D1:0F
            X509v3 Authority Key Identifier: 
                keyid:55:43:F0:D0:D3:04:98:0C:EB:7C:EA:83:D3:BD:F4:81:46:31:D1:0F

            X509v3 Key Usage: critical
                Digital Signature, Non Repudiation, Key Encipherment
            X509v3 Extended Key Usage: 
                TLS Web Client Authentication, E-mail Protection
    Signature Algorithm: ecdsa-with-SHA256
         30:45:02:20:23:dc:b7:ce:8d:09:31:e4:52:0e:89:fb:3e:59:
         92:8b:57:d7:7b:3f:6c:b8:61:fb:d7:eb:fc:87:cb:4f:b9:19:
         02:21:00:ec:67:9b:5f:41:e1:47:af:3d:ac:d0:a6:b1:d0:24:
         b0:a6:a0:b7:d6:2d:5b:a2:e3:c2:6e:c1:76:08:d3:69:87
-----BEGIN CERTIFICATE-----
MIICwjCCAmigAwIBAgIUApww7O5T2vIkpiy7gQcJyzDljpQwCgYIKoZIzj0EAwIw
gZgxCzAJBgNVBAYTAlVTMRMwEQYDVQQIDApXYXNoaW5ndG9uMRAwDgYDVQQHDAdT
ZWF0dGxlMRAwDgYDVQQKDAdFbGlwdGljMRUwEwYDVQQLDAxFQ0MyNTZLMS1DTEkx
GDAWBgNVBAMMD3d3dy53b2xmc3NsLmNvbTEfMB0GCSqGSIb3DQEJARYQaW5mb0B3
b2xmc3NsLmNvbTAeFw0yMjEyMTYyMTE3NDlaFw0zMjEyMTMyMTE3NDlaMIGYMQsw
CQYDVQQGEwJVUzETMBEGA1UECAwKV2FzaGluZ3RvbjEQMA4GA1UEBwwHU2VhdHRs
ZTEQMA4GA1UECgwHRWxpcHRpYzEVMBMGA1UECwwMRUNDMjU2SzEtQ0xJMRgwFgYD
VQQDDA93d3cud29sZnNzbC5jb20xHzAdBgkqhkiG9w0BCQEWEGluZm9Ad29sZnNz
bC5jb20wVjAQBgcqhkjOPQIBBgUrgQQACgNCAASxTQGLWBk2O+27iV7RhgXGatSI
RPxZgPYWMp1UXbivwFwkDszu6GVFRHruQ4lJfOvbEawj6uUXa1lteBlhmF9Ho4GQ
MIGNMAkGA1UdEwQCMAAwEQYJYIZIAYb4QgEBBAQDAgWgMB0GA1UdDgQWBBRVQ/DQ
0wSYDOt86oPTvfSBRjHRDzAfBgNVHSMEGDAWgBRVQ/DQ0wSYDOt86oPTvfSBRjHR
DzAOBgNVHQ8BAf8EBAMCBeAwHQYDVR0lBBYwFAYIKwYBBQUHAwIGCCsGAQUFBwME
MAoGCCqGSM49BAMCA0gAMEUCICPct86NCTHkUg6J+z5ZkotX13s/bLhh+9fr/IfL
T7kZAiEA7GebX0HhR689rNCmsdAksKagt9YtW6Ljwm7BdgjTaYc=
-----END CERTIFICATE-----
