Certificate:
    Data:
        Version: 3 (0x2)
        Serial Number:
            57:c6:cf:ae:b4:f6:93:af:70:b4:35:16:c8:9b:c9:d8:40:6a:04:a6
        Signature Algorithm: ecdsa-with-SHA256
        Issuer: C = US, ST = Washington, L = Seattle, O = Eliptic, OU = ECC256BPR1-CLI, CN = www.wolfssl.com, emailAddress = info@wolfssl.com
        Validity
            Not Before: Dec 16 21:17:49 2022 GMT
            Not After : Dec 13 21:17:49 2032 GMT
        Subject: C = US, ST = Washington, L = Seattle, O = Eliptic, OU = ECC256BPR1-CLI, CN = www.wolfssl.com, emailAddress = info@wolfssl.com
        Subject Public Key Info:
            Public Key Algorithm: id-ecPublicKey
                Public-Key: (256 bit)
                pub:
                    04:a7:73:e4:7d:1f:3b:9a:ec:98:0a:b0:34:88:e1:
                    70:c9:3c:fc:18:51:1a:6f:34:40:87:72:64:d8:13:
                    d3:ca:db:33:91:94:db:f3:4a:df:36:a6:96:dd:ed:
                    8d:94:39:71:d8:91:38:58:59:8d:c8:37:bd:aa:af:
                    05:af:2d:4d:c3
                ASN1 OID: brainpoolP256r1
        X509v3 extensions:
            X509v3 Basic Constraints: 
                CA:FALSE
            Netscape Cert Type: 
                SSL Client, S/MIME
            X509v3 Subject Key Identifier: 
                44:4D:6B:E2:24:7D:33:1A:B6:CE:AB:E6:60:C8:9F:96:E6:DA:1A:67
            X509v3 Authority Key Identifier: 
                keyid:44:4D:6B:E2:24:7D:33:1A:B6:CE:AB:E6:60:C8:9F:96:E6:DA:1A:67

            X509v3 Key Usage: critical
                Digital Signature, Non Repudiation, Key Encipherment
            X509v3 Extended Key Usage: 
                TLS Web Client Authentication, E-mail Protection
    Signature Algorithm: ecdsa-with-SHA256
         30:44:02:20:32:85:b0:73:61:43:4c:33:24:fe:08:c3:54:73:
         d9:37:33:ec:39:67:2c:ee:c7:c0:ea:99:63:45:a2:a7:65:e4:
         02:20:36:e3:0a:3b:74:ce:94:6b:8e:c0:02:a0:6e:da:27:fa:
         13:a0:bb:21:00:f1:4b:ce:3e:86:11:93:da:95:10:8c
-----BEGIN CERTIFICATE-----
MIICyTCCAnCgAwIBAgIUV8bPrrT2k69wtDUWyJvJ2EBqBKYwCgYIKoZIzj0EAwIw
gZoxCzAJBgNVBAYTAlVTMRMwEQYDVQQIDApXYXNoaW5ndG9uMRAwDgYDVQQHDAdT
ZWF0dGxlMRAwDgYDVQQKDAdFbGlwdGljMRcwFQYDVQQLDA5FQ0MyNTZCUFIxLUNM
STEYMBYGA1UEAwwPd3d3LndvbGZzc2wuY29tMR8wHQYJKoZIhvcNAQkBFhBpbmZv
QHdvbGZzc2wuY29tMB4XDTIyMTIxNjIxMTc0OVoXDTMyMTIxMzIxMTc0OVowgZox
CzAJBgNVBAYTAlVTMRMwEQYDVQQIDApXYXNoaW5ndG9uMRAwDgYDVQQHDAdTZWF0
dGxlMRAwDgYDVQQKDAdFbGlwdGljMRcwFQYDVQQLDA5FQ0MyNTZCUFIxLUNMSTEY
MBYGA1UEAwwPd3d3LndvbGZzc2wuY29tMR8wHQYJKoZIhvcNAQkBFhBpbmZvQHdv
bGZzc2wuY29tMFowFAYHKoZIzj0CAQYJKyQDAwIIAQEHA0IABKdz5H0fO5rsmAqw
NIjhcMk8/BhRGm80QIdyZNgT08rbM5GU2/NK3zamlt3tjZQ5cdiROFhZjcg3vaqv
Ba8tTcOjgZAwgY0wCQYDVR0TBAIwADARBglghkgBhvhCAQEEBAMCBaAwHQYDVR0O
BBYEFERNa+IkfTMats6r5mDIn5bm2hpnMB8GA1UdIwQYMBaAFERNa+IkfTMats6r
5mDIn5bm2hpnMA4GA1UdDwEB/wQEAwIF4DAdBgNVHSUEFjAUBggrBgEFBQcDAgYI
KwYBBQUHAwQwCgYIKoZIzj0EAwIDRwAwRAIgMoWwc2FDTDMk/gjDVHPZNzPsOWcs
7sfA6pljRaKnZeQCIDbjCjt0zpRrjsACoG7aJ/oToLshAPFLzj6GEZPalRCM
-----END CERTIFICATE-----
