Certificate:
    Data:
        Version: 3 (0x2)
        Serial Number:
            27:2c:3b:52:7f:63:95:4f:23:ff:51:44:ec:ae:27:ae:e5:e7:02:85
        Signature Algorithm: ecdsa-with-SHA256
        Issuer: C = US, ST = Washington, L = Seattle, O = Eliptic, OU = ECC256BPR1-SRV, CN = www.wolfssl.com, emailAddress = info@wolfssl.com
        Validity
            Not Before: Dec 16 21:17:49 2022 GMT
            Not After : Dec 13 21:17:49 2032 GMT
        Subject: C = US, ST = Washington, L = Seattle, O = Eliptic, OU = ECC256BPR1-SRV, CN = www.wolfssl.com, emailAddress = info@wolfssl.com
        Subject Public Key Info:
            Public Key Algorithm: id-ecPublicKey
                Public-Key: (256 bit)
                pub:
                    04:a7:73:e4:7d:1f:3b:9a:ec:98:0a:b0:34:88:e1:
                    70:c9:3c:fc:18:51:1a:6f:34:40:87:72:64:d8:13:
                    d3:ca:db:33:91:94:db:f3:4a:df:36:a6:96:dd:ed:
                    8d:94:39:71:d8:91:38:58:59:8d:c8:37:bd:aa:af:
                    05:af:2d:4d:c3
                ASN1 OID: brainpoolP256r1
        X509v3 extensions:
            X509v3 Basic Constraints: 
                CA:FALSE
            Netscape Cert Type: 
                SSL Server
            X509v3 Subject Key Identifier: 
                44:4D:6B:E2:24:7D:33:1A:B6:CE:AB:E6:60:C8:9F:96:E6:DA:1A:67
            X509v3 Authority Key Identifier: 
                keyid:44:4D:6B:E2:24:7D:33:1A:B6:CE:AB:E6:60:C8:9F:96:E6:DA:1A:67
                DirName:/C=US/ST=Washington/L=Seattle/O=Eliptic/OU=ECC256BPR1-SRV/CN=www.wolfssl.com/emailAddress=info@wolfssl.com
                serial:27:2C:3B:52:7F:63:95:4F:23:FF:51:44:EC:AE:27:AE:E5:E7:02:85

            X509v3 Key Usage: critical
                Digital Signature, Key Encipherment, Key Agreement
            X509v3 Extended Key Usage: 
                TLS Web Server Authentication
    Signature Algorithm: ecdsa-with-SHA256
         30:45:02:21:00:a1:4c:75:71:fd:dc:f1:ff:9d:45:32:50:c2:
         04:84:c5:a8:af:55:a0:4c:b8:54:31:04:fb:ce:e3:00:07:28:
         81:02:20:05:10:20:8e:17:94:78:05:f8:48:27:df:26:79:c2:
         6e:18:b0:60:74:39:5c:1d:da:11:0b:62:54:f6:bf:e6:fa
-----BEGIN CERTIFICATE-----
MIIDfjCCAySgAwIBAgIUJyw7Un9jlU8j/1FE7K4nruXnAoUwCgYIKoZIzj0EAwIw
gZoxCzAJBgNVBAYTAlVTMRMwEQYDVQQIDApXYXNoaW5ndG9uMRAwDgYDVQQHDAdT
ZWF0dGxlMRAwDgYDVQQKDAdFbGlwdGljMRcwFQYDVQQLDA5FQ0MyNTZCUFIxLVNS
VjEYMBYGA1UEAwwPd3d3LndvbGZzc2wuY29tMR8wHQYJKoZIhvcNAQkBFhBpbmZv
QHdvbGZzc2wuY29tMB4XDTIyMTIxNjIxMTc0OVoXDTMyMTIxMzIxMTc0OVowgZox
CzAJBgNVBAYTAlVTMRMwEQYDVQQIDApXYXNoaW5ndG9uMRAwDgYDVQQHDAdTZWF0
dGxlMRAwDgYDVQQKDAdFbGlwdGljMRcwFQYDVQQLDA5FQ0MyNTZCUFIxLVNSVjEY
MBYGA1UEAwwPd3d3LndvbGZzc2wuY29tMR8wHQYJKoZIhvcNAQkBFhBpbmZvQHdv
bGZzc2wuY29tMFowFAYHKoZIzj0CAQYJKyQDAwIIAQEHA0IABKdz5H0fO5rsmAqw
NIjhcMk8/BhRGm80QIdyZNgT08rbM5GU2/NK3zamlt3tjZQ5cdiROFhZjcg3vaqv
Ba8tTcOjggFDMIIBPzAJBgNVHRMEAjAAMBEGCWCGSAGG+EIBAQQEAwIGQDAdBgNV
HQ4EFgQURE1r4iR9Mxq2zqvmYMiflubaGmcwgdoGA1UdIwSB0jCBz4AURE1r4iR9
Mxq2zqvmYMiflubaGmehgaCkgZ0wgZoxCzAJBgNVBAYTAlVTMRMwEQYDVQQIDApX
YXNoaW5ndG9uMRAwDgYDVQQHDAdTZWF0dGxlMRAwDgYDVQQKDAdFbGlwdGljMRcw
FQYDVQQLDA5FQ0MyNTZCUFIxLVNSVjEYMBYGA1UEAwwPd3d3LndvbGZzc2wuY29t
MR8wHQYJKoZIhvcNAQkBFhBpbmZvQHdvbGZzc2wuY29tghQnLDtSf2OVTyP/UUTs
rieu5ecChTAOBgNVHQ8BAf8EBAMCA6gwEwYDVR0lBAwwCgYIKwYBBQUHAwEwCgYI
KoZIzj0EAwIDSAAwRQIhAKFMdXH93PH/nUUyUMIEhMWor1WgTLhUMQT7zuMAByiB
AiAFECCOF5R4BfhIJ98mecJuGLBgdDlcHdoRC2JU9r/m+g==
-----END CERTIFICATE-----
