Certificate:
    Data:
        Version: 3 (0x2)
        Serial Number:
            6f:5e:bd:82:85:40:71:f7:15:53:aa:04:43:b0:ae:7d:e7:5e:70:f3
        Signature Algorithm: ecdsa-with-SHA256
        Issuer: C = US, ST = Washington, L = Seattle, O = Eliptic, OU = ECC256K1-SRV, CN = www.wolfssl.com, emailAddress = info@wolfssl.com
        Validity
            Not Before: Dec 16 21:17:49 2022 GMT
            Not After : Dec 13 21:17:49 2032 GMT
        Subject: C = US, ST = Washington, L = Seattle, O = Eliptic, OU = ECC256K1-SRV, CN = www.wolfssl.com, emailAddress = info@wolfssl.com
        Subject Public Key Info:
            Public Key Algorithm: id-ecPublicKey
                Public-Key: (256 bit)
                pub:
                    04:b1:4d:01:8b:58:19:36:3b:ed:bb:89:5e:d1:86:
                    05:c6:6a:d4:88:44:fc:59:80:f6:16:32:9d:54:5d:
                    b8:af:c0:5c:24:0e:cc:ee:e8:65:45:44:7a:ee:43:
                    89:49:7c:eb:db:11:ac:23:ea:e5:17:6b:59:6d:78:
                    19:61:98:5f:47
                ASN1 OID: secp256k1
        X509v3 extensions:
            X509v3 Basic Constraints: 
                CA:FALSE
            Netscape Cert Type: 
                SSL Server
            X509v3 Subject Key Identifier: 
                55:43:F0:D0:D3:04:98:0C:EB:7C:EA:83:D3:BD:F4:81:46:31:D1:0F
            X509v3 Authority Key Identifier: 
                keyid:55:43:F0:D0:D3:04:98:0C:EB:7C:EA:83:D3:BD:F4:81:46:31:D1:0F
                DirName:/C=US/ST=Washington/L=Seattle/O=Eliptic/OU=ECC256K1-SRV/CN=www.wolfssl.com/emailAddress=info@wolfssl.com
                serial:6F:5E:BD:82:85:40:71:F7:15:53:AA:04:43:B0:AE:7D:E7:5E:70:F3

            X509v3 Key Usage: critical
                Digital Signature, Key Encipherment, Key Agreement
            X509v3 Extended Key Usage: 
                TLS Web Server Authentication
    Signature Algorithm: ecdsa-with-SHA256
         30:45:02:21:00:e2:fb:1e:0b:92:fd:b1:10:4e:bd:dc:2c:5c:
         d1:23:59:12:4c:b0:f3:5d:4a:fc:69:ad:b9:3b:c8:06:17:11:
         63:02:20:5c:63:ab:3a:67:dc:2b:08:ca:39:9f:88:43:e7:82:
         d0:9c:e7:05:4e:f2:b6:f2:ce:e0:8c:3d:b6:c6:8f:81:8a
-----BEGIN CERTIFICATE-----
MIIDdDCCAxqgAwIBAgIUb169goVAcfcVU6oEQ7CufedecPMwCgYIKoZIzj0EAwIw
gZgxCzAJBgNVBAYTAlVTMRMwEQYDVQQIDApXYXNoaW5ndG9uMRAwDgYDVQQHDAdT
ZWF0dGxlMRAwDgYDVQQKDAdFbGlwdGljMRUwEwYDVQQLDAxFQ0MyNTZLMS1TUlYx
GDAWBgNVBAMMD3d3dy53b2xmc3NsLmNvbTEfMB0GCSqGSIb3DQEJARYQaW5mb0B3
b2xmc3NsLmNvbTAeFw0yMjEyMTYyMTE3NDlaFw0zMjEyMTMyMTE3NDlaMIGYMQsw
CQYDVQQGEwJVUzETMBEGA1UECAwKV2FzaGluZ3RvbjEQMA4GA1UEBwwHU2VhdHRs
ZTEQMA4GA1UECgwHRWxpcHRpYzEVMBMGA1UECwwMRUNDMjU2SzEtU1JWMRgwFgYD
VQQDDA93d3cud29sZnNzbC5jb20xHzAdBgkqhkiG9w0BCQEWEGluZm9Ad29sZnNz
bC5jb20wVjAQBgcqhkjOPQIBBgUrgQQACgNCAASxTQGLWBk2O+27iV7RhgXGatSI
RPxZgPYWMp1UXbivwFwkDszu6GVFRHruQ4lJfOvbEawj6uUXa1lteBlhmF9Ho4IB
QTCCAT0wCQYDVR0TBAIwADARBglghkgBhvhCAQEEBAMCBkAwHQYDVR0OBBYEFFVD
8NDTBJgM63zqg9O99IFGMdEPMIHYBgNVHSMEgdAwgc2AFFVD8NDTBJgM63zqg9O9
9IFGMdEPoYGepIGbMIGYMQswCQYDVQQGEwJVUzETMBEGA1UECAwKV2FzaGluZ3Rv
bjEQMA4GA1UEBwwHU2VhdHRsZTEQMA4GA1UECgwHRWxpcHRpYzEVMBMGA1UECwwM
RUNDMjU2SzEtU1JWMRgwFgYDVQQDDA93d3cud29sZnNzbC5jb20xHzAdBgkqhkiG
9w0BCQEWEGluZm9Ad29sZnNzbC5jb22CFG9evYKFQHH3FVOqBEOwrn3nXnDzMA4G
A1UdDwEB/wQEAwIDqDATBgNVHSUEDDAKBggrBgEFBQcDATAKBggqhkjOPQQDAgNI
ADBFAiEA4vseC5L9sRBOvdwsXNEjWRJMsPNdSvxprbk7yAYXEWMCIFxjqzpn3CsI
yjmfiEPngtCc5wVO8rbyzuCMPbbGj4GK
-----END CERTIFICATE-----
