Certificate:
    Data:
        Version: 3 (0x2)
        Serial Number: 33554617 (0x20000b9)
        Signature Algorithm: sha1WithRSAEncryption
        Issuer: C = IE, O = Baltimore, OU = CyberTrust, CN = Baltimore CyberTrust Root
        Validity
            Not Before: May 12 18:46:00 2000 GMT
            Not After : May 12 23:59:00 2025 GMT
        Subject: C = IE, O = Baltimore, OU = CyberTrust, CN = Baltimore CyberTrust Root
        Subject Public Key Info:
            Public Key Algorithm: rsaEncryption
                RSA Public-Key: (2048 bit)
                Modulus:
                    00:a3:04:bb:22:ab:98:3d:57:e8:26:72:9a:b5:79:
                    d4:29:e2:e1:e8:95:80:b1:b0:e3:5b:8e:2b:29:9a:
                    64:df:a1:5d:ed:b0:09:05:6d:db:28:2e:ce:62:a2:
                    62:fe:b4:88:da:12:eb:38:eb:21:9d:c0:41:2b:01:
                    52:7b:88:77:d3:1c:8f:c7:ba:b9:88:b5:6a:09:e7:
                    73:e8:11:40:a7:d1:cc:ca:62:8d:2d:e5:8f:0b:a6:
                    50:d2:a8:50:c3:28:ea:f5:ab:25:87:8a:9a:96:1c:
                    a9:67:b8:3f:0c:d5:f7:f9:52:13:2f:c2:1b:d5:70:
                    70:f0:8f:c0:12:ca:06:cb:9a:e1:d9:ca:33:7a:77:
                    d6:f8:ec:b9:f1:68:44:42:48:13:d2:c0:c2:a4:ae:
                    5e:60:fe:b6:a6:05:fc:b4:dd:07:59:02:d4:59:18:
                    98:63:f5:a5:63:e0:90:0c:7d:5d:b2:06:7a:f3:85:
                    ea:eb:d4:03:ae:5e:84:3e:5f:ff:15:ed:69:bc:f9:
                    39:36:72:75:cf:77:52:4d:f3:c9:90:2c:b9:3d:e5:
                    c9:23:53:3f:1f:24:98:21:5c:07:99:29:bd:c6:3a:
                    ec:e7:6e:86:3a:6b:97:74:63:33:bd:68:18:31:f0:
                    78:8d:76:bf:fc:9e:8e:5d:2a:86:a7:4d:90:dc:27:
                    1a:39
                Exponent: 65537 (0x10001)
        X509v3 extensions:
            X509v3 Subject Key Identifier: 
                E5:9D:59:30:82:47:58:CC:AC:FA:08:54:36:86:7B:3A:B5:04:4D:F0
            X509v3 Basic Constraints: critical
                CA:TRUE, pathlen:3
            X509v3 Key Usage: critical
                Certificate Sign, CRL Sign
    Signature Algorithm: sha1WithRSAEncryption
         85:0c:5d:8e:e4:6f:51:68:42:05:a0:dd:bb:4f:27:25:84:03:
         bd:f7:64:fd:2d:d7:30:e3:a4:10:17:eb:da:29:29:b6:79:3f:
         76:f6:19:13:23:b8:10:0a:f9:58:a4:d4:61:70:bd:04:61:6a:
         12:8a:17:d5:0a:bd:c5:bc:30:7c:d6:e9:0c:25:8d:86:40:4f:
         ec:cc:a3:7e:38:c6:37:11:4f:ed:dd:68:31:8e:4c:d2:b3:01:
         74:ee:be:75:5e:07:48:1a:7f:70:ff:16:5c:84:c0:79:85:b8:
         05:fd:7f:be:65:11:a3:0f:c0:02:b4:f8:52:37:39:04:d5:a9:
         31:7a:18:bf:a0:2a:f4:12:99:f7:a3:45:82:e3:3c:5e:f5:9d:
         9e:b5:c8:9e:7c:2e:c8:a4:9e:4e:08:14:4b:6d:fd:70:6d:6b:
         1a:63:bd:64:e6:1f:b7:ce:f0:f2:9f:2e:bb:1b:b7:f2:50:88:
         73:92:c2:e2:e3:16:8d:9a:32:02:ab:8e:18:dd:e9:10:11:ee:
         7e:35:ab:90:af:3e:30:94:7a:d0:33:3d:a7:65:0f:f5:fc:8e:
         9e:62:cf:47:44:2c:01:5d:bb:1d:b5:32:d2:47:d2:38:2e:d0:
         fe:81:dc:32:6a:1e:b5:ee:3c:d5:fc:e7:81:1d:19:c3:24:42:
         ea:63:39:a9
-----BEGIN CERTIFICATE-----
MIIDdzCCAl+gAwIBAgIEAgAAuTANBgkqhkiG9w0BAQUFADBaMQswCQYDVQQGEwJJ
RTESMBAGA1UEChMJQmFsdGltb3JlMRMwEQYDVQQLEwpDeWJlclRydXN0MSIwIAYD
VQQDExlCYWx0aW1vcmUgQ3liZXJUcnVzdCBSb290MB4XDTAwMDUxMjE4NDYwMFoX
DTI1MDUxMjIzNTkwMFowWjELMAkGA1UEBhMCSUUxEjAQBgNVBAoTCUJhbHRpbW9y
ZTETMBEGA1UECxMKQ3liZXJUcnVzdDEiMCAGA1UEAxMZQmFsdGltb3JlIEN5YmVy
VHJ1c3QgUm9vdDCCASIwDQYJKoZIhvcNAQEBBQADggEPADCCAQoCggEBAKMEuyKr
mD1X6CZymrV51Cni4eiVgLGw41uOKymaZN+hXe2wCQVt2yguzmKiYv60iNoS6zjr
IZ3AQSsBUnuId9Mcj8e6uYi1agnnc+gRQKfRzMpijS3ljwumUNKoUMMo6vWrJYeK
mpYcqWe4PwzV9/lSEy/CG9VwcPCPwBLKBsua4dnKM3p31vjsufFoREJIE9LAwqSu
XmD+tqYF/LTdB1kC1FkYmGP1pWPgkAx9XbIGevOF6uvUA65ehD5f/xXtabz5OTZy
dc93Uk3zyZAsuT3lySNTPx8kmCFcB5kpvcY67Oduhjprl3RjM71oGDHweI12v/ye
jl0qhqdNkNwnGjkCAwEAAaNFMEMwHQYDVR0OBBYEFOWdWTCCR1jMrPoIVDaGezq1
BE3wMBIGA1UdEwEB/wQIMAYBAf8CAQMwDgYDVR0PAQH/BAQDAgEGMA0GCSqGSIb3
DQEBBQUAA4IBAQCFDF2O5G9RaEIFoN27TyclhAO992T9Ldcw46QQF+vaKSm2eT92
9hkTI7gQCvlYpNRhcL0EYWoSihfVCr3FvDB81ukMJY2GQE/szKN+OMY3EU/t3Wgx
jkzSswF07r51XgdIGn9w/xZchMB5hbgF/X++ZRGjD8ACtPhSNzkE1akxehi/oCr0
Epn3o0WC4zxe9Z2etciefC7IpJ5OCBRLbf1wbWsaY71k5h+3zvDyny67G7fyUIhz
ksLi4xaNmjICq44Y3ekQEe5+NauQrz4wlHrQMz2nZQ/1/I6eYs9HRCwBXbsdtTLS
R9I4LtD+gdwyah617jzV/OeBHRnDJELqYzmp
-----END CERTIFICATE-----
Certificate:
    Data:
        Version: 3 (0x2)
        Serial Number:
            08:3b:e0:56:90:42:46:b1:a1:75:6a:c9:59:91:c7:4a
        Signature Algorithm: sha1WithRSAEncryption
        Issuer: C = US, O = DigiCert Inc, OU = www.digicert.com, CN = DigiCert Global Root CA
        Validity
            Not Before: Nov 10 00:00:00 2006 GMT
            Not After : Nov 10 00:00:00 2031 GMT
        Subject: C = US, O = DigiCert Inc, OU = www.digicert.com, CN = DigiCert Global Root CA
        Subject Public Key Info:
            Public Key Algorithm: rsaEncryption
                RSA Public-Key: (2048 bit)
                Modulus:
                    00:e2:3b:e1:11:72:de:a8:a4:d3:a3:57:aa:50:a2:
                    8f:0b:77:90:c9:a2:a5:ee:12:ce:96:5b:01:09:20:
                    cc:01:93:a7:4e:30:b7:53:f7:43:c4:69:00:57:9d:
                    e2:8d:22:dd:87:06:40:00:81:09:ce:ce:1b:83:bf:
                    df:cd:3b:71:46:e2:d6:66:c7:05:b3:76:27:16:8f:
                    7b:9e:1e:95:7d:ee:b7:48:a3:08:da:d6:af:7a:0c:
                    39:06:65:7f:4a:5d:1f:bc:17:f8:ab:be:ee:28:d7:
                    74:7f:7a:78:99:59:85:68:6e:5c:23:32:4b:bf:4e:
                    c0:e8:5a:6d:e3:70:bf:77:10:bf:fc:01:f6:85:d9:
                    a8:44:10:58:32:a9:75:18:d5:d1:a2:be:47:e2:27:
                    6a:f4:9a:33:f8:49:08:60:8b:d4:5f:b4:3a:84:bf:
                    a1:aa:4a:4c:7d:3e:cf:4f:5f:6c:76:5e:a0:4b:37:
                    91:9e:dc:22:e6:6d:ce:14:1a:8e:6a:cb:fe:cd:b3:
                    14:64:17:c7:5b:29:9e:32:bf:f2:ee:fa:d3:0b:42:
                    d4:ab:b7:41:32:da:0c:d4:ef:f8:81:d5:bb:8d:58:
                    3f:b5:1b:e8:49:28:a2:70:da:31:04:dd:f7:b2:16:
                    f2:4c:0a:4e:07:a8:ed:4a:3d:5e:b5:7f:a3:90:c3:
                    af:27
                Exponent: 65537 (0x10001)
        X509v3 extensions:
            X509v3 Key Usage: critical
                Digital Signature, Certificate Sign, CRL Sign
            X509v3 Basic Constraints: critical
                CA:TRUE
            X509v3 Subject Key Identifier: 
                03:DE:50:35:56:D1:4C:BB:66:F0:A3:E2:1B:1B:C3:97:B2:3D:D1:55
            X509v3 Authority Key Identifier: 
                keyid:03:DE:50:35:56:D1:4C:BB:66:F0:A3:E2:1B:1B:C3:97:B2:3D:D1:55

    Signature Algorithm: sha1WithRSAEncryption
         cb:9c:37:aa:48:13:12:0a:fa:dd:44:9c:4f:52:b0:f4:df:ae:
         04:f5:79:79:08:a3:24:18:fc:4b:2b:84:c0:2d:b9:d5:c7:fe:
         f4:c1:1f:58:cb:b8:6d:9c:7a:74:e7:98:29:ab:11:b5:e3:70:
         a0:a1:cd:4c:88:99:93:8c:91:70:e2:ab:0f:1c:be:93:a9:ff:
         63:d5:e4:07:60:d3:a3:bf:9d:5b:09:f1:d5:8e:e3:53:f4:8e:
         63:fa:3f:a7:db:b4:66:df:62:66:d6:d1:6e:41:8d:f2:2d:b5:
         ea:77:4a:9f:9d:58:e2:2b:59:c0:40:23:ed:2d:28:82:45:3e:
         79:54:92:26:98:e0:80:48:a8:37:ef:f0:d6:79:60:16:de:ac:
         e8:0e:cd:6e:ac:44:17:38:2f:49:da:e1:45:3e:2a:b9:36:53:
         cf:3a:50:06:f7:2e:e8:c4:57:49:6c:61:21:18:d5:04:ad:78:
         3c:2c:3a:80:6b:a7:eb:af:15:14:e9:d8:89:c1:b9:38:6c:e2:
         91:6c:8a:ff:64:b9:77:25:57:30:c0:1b:24:a3:e1:dc:e9:df:
         47:7c:b5:b4:24:08:05:30:ec:2d:bd:0b:bf:45:bf:50:b9:a9:
         f3:eb:98:01:12:ad:c8:88:c6:98:34:5f:8d:0a:3c:c6:e9:d5:
         95:95:6d:de
-----BEGIN CERTIFICATE-----
MIIDrzCCApegAwIBAgIQCDvgVpBCRrGhdWrJWZHHSjANBgkqhkiG9w0BAQUFADBh
MQswCQYDVQQGEwJVUzEVMBMGA1UEChMMRGlnaUNlcnQgSW5jMRkwFwYDVQQLExB3
d3cuZGlnaWNlcnQuY29tMSAwHgYDVQQDExdEaWdpQ2VydCBHbG9iYWwgUm9vdCBD
QTAeFw0wNjExMTAwMDAwMDBaFw0zMTExMTAwMDAwMDBaMGExCzAJBgNVBAYTAlVT
MRUwEwYDVQQKEwxEaWdpQ2VydCBJbmMxGTAXBgNVBAsTEHd3dy5kaWdpY2VydC5j
b20xIDAeBgNVBAMTF0RpZ2lDZXJ0IEdsb2JhbCBSb290IENBMIIBIjANBgkqhkiG
9w0BAQEFAAOCAQ8AMIIBCgKCAQEA4jvhEXLeqKTTo1eqUKKPC3eQyaKl7hLOllsB
CSDMAZOnTjC3U/dDxGkAV53ijSLdhwZAAIEJzs4bg7/fzTtxRuLWZscFs3YnFo97
nh6Vfe63SKMI2tavegw5BmV/Sl0fvBf4q77uKNd0f3p4mVmFaG5cIzJLv07A6Fpt
43C/dxC//AH2hdmoRBBYMql1GNXRor5H4idq9Joz+EkIYIvUX7Q6hL+hqkpMfT7P
T19sdl6gSzeRntwi5m3OFBqOasv+zbMUZBfHWymeMr/y7vrTC0LUq7dBMtoM1O/4
gdW7jVg/tRvoSSiicNoxBN33shbyTApOB6jtSj1etX+jkMOvJwIDAQABo2MwYTAO
BgNVHQ8BAf8EBAMCAYYwDwYDVR0TAQH/BAUwAwEB/zAdBgNVHQ4EFgQUA95QNVbR
TLtm8KPiGxvDl7I90VUwHwYDVR0jBBgwFoAUA95QNVbRTLtm8KPiGxvDl7I90VUw
DQYJKoZIhvcNAQEFBQADggEBAMucN6pIExIK+t1EnE9SsPTfrgT1eXkIoyQY/Esr
hMAtudXH/vTBH1jLuG2cenTnmCmrEbXjcKChzUyImZOMkXDiqw8cvpOp/2PV5Adg
06O/nVsJ8dWO41P0jmP6P6fbtGbfYmbW0W5BjfIttep3Sp+dWOIrWcBAI+0tKIJF
PnlUkiaY4IBIqDfv8NZ5YBberOgOzW6sRBc4L0na4UU+Krk2U886UAb3LujEV0ls
YSEY1QSteDwsOoBrp+uvFRTp2InBuThs4pFsiv9kuXclVzDAGySj4dzp30d8tbQk
CAUw7C29C79Fv1C5qfPrmAESrciIxpg0X40KPMbp1ZWVbd4=
-----END CERTIFICATE-----
