Certificate:
    Data:
        Version: 3 (0x2)
        Serial Number:
            31:fe:22:af:75:2f:dc:63:bd:e4:94:f2:94:38:c3:0d:7d:9a:d1
        Signature Algorithm: sha256WithRSAEncryption
        Issuer: C = US, ST = Montana, L = Bozeman, O = wolfSSL_4096, OU = Programming-4096, CN = www.wolfssl.com, emailAddress = info@wolfssl.com
        Validity
            Not Before: Dec 16 21:17:49 2022 GMT
            Not After : Sep 11 21:17:49 2025 GMT
        Subject: C = US, ST = Montana, L = Bozeman, O = wolfSSL_4096, OU = Programming-4096, CN = www.wolfssl.com, emailAddress = info@wolfssl.com
        Subject Public Key Info:
            Public Key Algorithm: rsaEncryption
                RSA Public-Key: (4096 bit)
                Modulus:
                    00:f5:d0:31:e4:71:59:58:b3:07:50:dd:16:79:fc:
                    c6:95:50:fc:46:0e:57:12:86:71:8d:e3:9b:4a:33:
                    ea:4f:d9:17:13:6d:48:69:df:59:11:08:02:9d:af:
                    2b:c7:30:be:0c:dc:87:d4:5a:12:09:23:5d:e1:76:
                    5a:62:37:46:74:ef:03:05:bb:1e:6d:29:75:6c:2e:
                    9d:87:0d:8f:87:cb:14:95:9b:be:17:6b:51:d1:4c:
                    da:d7:91:66:c5:36:eb:e0:07:1a:76:4d:b0:fb:c1:
                    f5:5e:05:db:ba:cb:25:d9:99:13:1c:c0:35:dc:40:
                    e9:36:cd:c4:d5:7a:41:70:0f:36:eb:a5:4e:17:05:
                    d5:75:1b:64:62:7a:3f:0d:28:48:6a:e3:ac:9c:a8:
                    8f:e9:ed:f7:cd:24:a0:b1:a0:03:ac:e3:03:f5:3f:
                    d1:96:ff:2a:7e:08:b1:d3:e0:18:14:ec:65:37:50:
                    43:c2:6a:8c:f4:5b:fe:c4:cb:8d:3f:81:02:f7:c2:
                    dd:e4:c1:8e:80:0c:04:25:2d:80:5a:2e:0f:22:35:
                    4a:f4:85:ed:51:d8:ab:6d:8f:a2:3b:24:00:6e:81:
                    e2:1e:76:d6:ac:31:12:db:f3:8e:07:a1:de:89:4a:
                    39:60:77:c5:aa:f1:51:e6:06:f1:95:56:2a:e1:8e:
                    92:30:9f:fe:58:44:ac:46:f2:fd:9a:fc:a8:1d:a1:
                    d3:55:37:4a:8b:fc:9c:33:f8:a7:61:48:41:7c:9c:
                    77:3f:f5:80:23:7d:43:b4:d5:88:0a:c9:75:d7:44:
                    19:4d:77:6c:0b:0a:49:aa:1c:2f:d6:5a:44:a6:47:
                    4d:e5:36:96:40:99:2c:56:26:b1:f2:92:31:59:d7:
                    2c:d4:b4:21:d6:65:13:0b:3e:fb:ff:04:eb:b9:85:
                    b9:d8:d8:28:4f:5c:17:96:a3:51:be:fe:7d:0b:1b:
                    48:40:25:76:94:dc:41:fb:bf:73:76:da:eb:b3:62:
                    e7:c1:c8:54:6a:93:e1:8d:31:e8:3e:3e:df:bc:87:
                    02:30:22:57:c4:e0:18:7a:d3:ae:e4:02:9b:aa:bd:
                    4e:49:47:72:e9:8d:13:2d:54:9b:00:a7:91:61:71:
                    c9:cc:48:4f:ee:df:5e:1b:1a:df:67:d3:20:e6:44:
                    45:98:7e:e7:0e:63:16:83:c9:26:5d:90:c1:e5:2a:
                    5c:45:54:13:b2:81:18:06:20:2e:2e:66:5a:b5:7b:
                    6e:d6:0c:4e:89:01:56:70:bb:ae:de:e9:99:5e:d1:
                    b9:3a:b7:6c:17:b6:03:a9:08:dd:9c:f4:14:c9:c9:
                    59:39:72:d4:7e:02:37:31:cd:0e:a7:3d:f8:f2:cf:
                    6b:15:ab
                Exponent: 65537 (0x10001)
        X509v3 extensions:
            X509v3 Subject Key Identifier: 
                FA:54:89:67:E5:5F:B7:31:40:EA:FD:E7:F6:A3:C6:5A:56:16:A5:6E
            X509v3 Authority Key Identifier: 
                keyid:FA:54:89:67:E5:5F:B7:31:40:EA:FD:E7:F6:A3:C6:5A:56:16:A5:6E
                DirName:/C=US/ST=Montana/L=Bozeman/O=wolfSSL_4096/OU=Programming-4096/CN=www.wolfssl.com/emailAddress=info@wolfssl.com
                serial:31:FE:22:AF:75:2F:DC:63:BD:E4:94:F2:94:38:C3:0D:7D:9A:D1

            X509v3 Basic Constraints: 
                CA:TRUE
            X509v3 Subject Alternative Name: 
                DNS:example.com, IP Address:127.0.0.1
            X509v3 Extended Key Usage: 
                TLS Web Server Authentication, TLS Web Client Authentication
    Signature Algorithm: sha256WithRSAEncryption
         dd:6b:7f:ca:dc:80:e0:6d:e2:5f:6c:32:01:2f:8f:3a:e9:41:
         5f:35:c6:bb:a9:a5:84:57:ee:a4:21:4f:b3:b9:ae:24:dc:d1:
         80:30:7a:2a:7f:7e:fc:6c:be:50:d3:5a:51:2d:e6:fd:15:db:
         9d:ff:fa:ca:c0:cf:be:97:59:d0:83:20:ce:3a:d8:10:fe:41:
         d5:a9:6b:19:e2:9f:28:fe:c0:21:75:47:46:94:31:6a:c4:c4:
         52:3b:02:73:c4:47:2a:b5:ce:65:6d:58:c7:fa:3e:0a:6f:e1:
         a8:a1:3b:33:8a:6f:ca:4a:ef:52:88:09:ca:b2:f2:1d:3d:69:
         f5:5b:80:4f:29:66:b1:25:c7:eb:d1:bb:df:cf:91:c8:ce:58:
         3b:9d:10:5b:8e:55:93:5a:32:ed:0b:c7:7f:c8:f5:f2:7f:0a:
         ce:ad:bb:db:43:2a:92:f6:f2:a0:34:8e:7c:22:4a:5a:f9:84:
         b0:88:e3:a4:2a:bf:23:3a:ec:aa:32:77:c9:ab:bc:4b:bb:82:
         bc:c0:07:e6:fc:cf:33:72:8f:b2:4e:da:2b:7e:08:44:72:2b:
         a0:c7:3a:7e:6f:b4:31:b1:3a:34:c3:5c:be:9c:85:d8:82:99:
         35:92:b4:b4:31:24:31:df:fb:17:db:1d:3b:a7:d1:e2:a4:44:
         c7:3f:6b:17:1c:32:cc:f9:48:f0:c0:38:45:e8:f5:84:6c:59:
         29:5a:ec:38:43:10:97:67:76:b5:60:b7:8c:42:11:44:9a:62:
         87:db:02:aa:e7:1e:ec:9f:6b:7f:c5:fa:9e:03:80:73:74:20:
         e9:7a:e1:3f:49:41:bb:c4:9a:70:14:a1:13:2a:90:ef:06:cc:
         9d:ba:32:94:8c:a9:95:45:a4:89:04:d2:68:b9:13:fd:73:43:
         ea:c5:ee:7f:00:75:f0:ca:4d:91:d3:04:72:e6:af:c8:ad:43:
         11:70:36:45:aa:b5:46:a6:bf:ac:6c:20:86:3e:5e:66:a5:15:
         6a:a2:58:e6:6f:e8:ae:b4:1d:67:da:18:d6:ad:de:11:9c:f3:
         d1:a4:06:3f:d5:01:fd:3d:b8:fd:14:0f:1a:e8:7e:b4:a3:2b:
         8b:52:4c:71:72:5e:7c:9e:23:ff:50:83:7d:5b:ec:60:d5:ad:
         a5:44:0b:dd:66:cc:a5:f8:0c:65:db:b2:76:1e:1c:01:87:cb:
         1c:76:17:5d:12:cd:28:dc:20:e0:3a:c8:65:fe:dd:e3:bc:6a:
         8b:24:6b:86:a7:2d:bc:4f:26:3f:d7:3f:04:bf:a4:5d:06:52:
         b5:e4:fd:85:b0:2c:52:ac:99:49:ef:56:76:2a:7c:e3:d8:8e:
         e4:eb:b2:db:c1:54:20:64
-----BEGIN CERTIFICATE-----
MIIHGzCCBQOgAwIBAgITMf4ir3Uv3GO95JTylDjDDX2a0TANBgkqhkiG9w0BAQsF
ADCBnjELMAkGA1UEBhMCVVMxEDAOBgNVBAgMB01vbnRhbmExEDAOBgNVBAcMB0Jv
emVtYW4xFTATBgNVBAoMDHdvbGZTU0xfNDA5NjEZMBcGA1UECwwQUHJvZ3JhbW1p
bmctNDA5NjEYMBYGA1UEAwwPd3d3LndvbGZzc2wuY29tMR8wHQYJKoZIhvcNAQkB
FhBpbmZvQHdvbGZzc2wuY29tMB4XDTIyMTIxNjIxMTc0OVoXDTI1MDkxMTIxMTc0
OVowgZ4xCzAJBgNVBAYTAlVTMRAwDgYDVQQIDAdNb250YW5hMRAwDgYDVQQHDAdC
b3plbWFuMRUwEwYDVQQKDAx3b2xmU1NMXzQwOTYxGTAXBgNVBAsMEFByb2dyYW1t
aW5nLTQwOTYxGDAWBgNVBAMMD3d3dy53b2xmc3NsLmNvbTEfMB0GCSqGSIb3DQEJ
ARYQaW5mb0B3b2xmc3NsLmNvbTCCAiIwDQYJKoZIhvcNAQEBBQADggIPADCCAgoC
ggIBAPXQMeRxWVizB1DdFnn8xpVQ/EYOVxKGcY3jm0oz6k/ZFxNtSGnfWREIAp2v
K8cwvgzch9RaEgkjXeF2WmI3RnTvAwW7Hm0pdWwunYcNj4fLFJWbvhdrUdFM2teR
ZsU26+AHGnZNsPvB9V4F27rLJdmZExzANdxA6TbNxNV6QXAPNuulThcF1XUbZGJ6
Pw0oSGrjrJyoj+nt980koLGgA6zjA/U/0Zb/Kn4IsdPgGBTsZTdQQ8JqjPRb/sTL
jT+BAvfC3eTBjoAMBCUtgFouDyI1SvSF7VHYq22PojskAG6B4h521qwxEtvzjgeh
3olKOWB3xarxUeYG8ZVWKuGOkjCf/lhErEby/Zr8qB2h01U3Sov8nDP4p2FIQXyc
dz/1gCN9Q7TViArJdddEGU13bAsKSaocL9ZaRKZHTeU2lkCZLFYmsfKSMVnXLNS0
IdZlEws++/8E67mFudjYKE9cF5ajUb7+fQsbSEAldpTcQfu/c3ba67Ni58HIVGqT
4Y0x6D4+37yHAjAiV8TgGHrTruQCm6q9TklHcumNEy1UmwCnkWFxycxIT+7fXhsa
32fTIOZERZh+5w5jFoPJJl2QweUqXEVUE7KBGAYgLi5mWrV7btYMTokBVnC7rt7p
mV7RuTq3bBe2A6kI3Zz0FMnJWTly1H4CNzHNDqc9+PLPaxWrAgMBAAGjggFOMIIB
SjAdBgNVHQ4EFgQU+lSJZ+VftzFA6v3n9qPGWlYWpW4wgd0GA1UdIwSB1TCB0oAU
+lSJZ+VftzFA6v3n9qPGWlYWpW6hgaSkgaEwgZ4xCzAJBgNVBAYTAlVTMRAwDgYD
VQQIDAdNb250YW5hMRAwDgYDVQQHDAdCb3plbWFuMRUwEwYDVQQKDAx3b2xmU1NM
XzQwOTYxGTAXBgNVBAsMEFByb2dyYW1taW5nLTQwOTYxGDAWBgNVBAMMD3d3dy53
b2xmc3NsLmNvbTEfMB0GCSqGSIb3DQEJARYQaW5mb0B3b2xmc3NsLmNvbYITMf4i
r3Uv3GO95JTylDjDDX2a0TAMBgNVHRMEBTADAQH/MBwGA1UdEQQVMBOCC2V4YW1w
bGUuY29thwR/AAABMB0GA1UdJQQWMBQGCCsGAQUFBwMBBggrBgEFBQcDAjANBgkq
hkiG9w0BAQsFAAOCAgEA3Wt/ytyA4G3iX2wyAS+POulBXzXGu6mlhFfupCFPs7mu
JNzRgDB6Kn9+/Gy+UNNaUS3m/RXbnf/6ysDPvpdZ0IMgzjrYEP5B1alrGeKfKP7A
IXVHRpQxasTEUjsCc8RHKrXOZW1Yx/o+Cm/hqKE7M4pvykrvUogJyrLyHT1p9VuA
TylmsSXH69G738+RyM5YO50QW45Vk1oy7QvHf8j18n8Kzq2720MqkvbyoDSOfCJK
WvmEsIjjpCq/IzrsqjJ3yau8S7uCvMAH5vzPM3KPsk7aK34IRHIroMc6fm+0MbE6
NMNcvpyF2IKZNZK0tDEkMd/7F9sdO6fR4qRExz9rFxwyzPlI8MA4Rej1hGxZKVrs
OEMQl2d2tWC3jEIRRJpih9sCquce7J9rf8X6ngOAc3Qg6XrhP0lBu8SacBShEyqQ
7wbMnboylIyplUWkiQTSaLkT/XND6sXufwB18MpNkdMEcuavyK1DEXA2Raq1Rqa/
rGwghj5eZqUVaqJY5m/orrQdZ9oY1q3eEZzz0aQGP9UB/T24/RQPGuh+tKMri1JM
cXJefJ4j/1CDfVvsYNWtpUQL3WbMpfgMZduydh4cAYfLHHYXXRLNKNwg4DrIZf7d
47xqiyRrhqctvE8mP9c/BL+kXQZSteT9hbAsUqyZSe9Wdip849iO5Ouy28FUIGQ=
-----END CERTIFICATE-----
