Certificate:
    Data:
        Version: 3 (0x2)
        Serial Number: 1 (0x1)
        Signature Algorithm: ED448
        Issuer: C = US, ST = Montana, L = Bozeman, O = wolfSSL_Ed448, OU = Root-Ed448, CN = www.wolfssl.com, emailAddress = info@wolfssl.com
        Validity
            Not Before: Dec 16 21:17:50 2022 GMT
            Not After : Sep 11 21:17:50 2025 GMT
        Subject: C = US, ST = Montana, L = Bozeman, O = wolfSSL_ed448, OU = CA-ed448, CN = www.wolfssl.com, emailAddress = info@wolfssl.com, UID = wolfSSL
        Subject Public Key Info:
            Public Key Algorithm: ED448
                ED448 Public-Key:
                pub:
                    0e:e2:b4:76:e5:d2:cc:c2:4b:7b:b0:29:be:92:fb:
                    c3:af:69:a5:94:ba:70:24:e8:a3:ef:c8:63:9a:dd:
                    a6:af:58:43:38:04:24:f0:10:91:be:a7:01:91:54:
                    f3:cf:69:85:4c:b9:97:8c:a4:37:aa:00
        X509v3 extensions:
            X509v3 Subject Key Identifier: 
                38:59:45:E8:DD:44:2C:B5:7D:A5:25:D6:0B:CC:39:F0:72:C0:94:63
            X509v3 Authority Key Identifier: 
                keyid:DA:69:98:C9:26:4A:75:FB:59:5E:53:9A:63:4B:0C:B8:88:0B:0F:1E

            X509v3 Basic Constraints: critical
                CA:TRUE
            X509v3 Key Usage: critical
                Digital Signature, Certificate Sign, CRL Sign
    Signature Algorithm: ED448
         44:dc:1a:ae:76:a6:28:68:81:e9:27:c5:53:ea:96:92:04:0f:
         a0:a9:cc:97:7c:9f:05:62:d7:bb:a2:df:5e:3d:52:87:ab:15:
         35:cd:c5:e1:e7:c2:9a:c6:d8:20:46:6b:62:4b:0d:28:41:d2:
         5e:11:80:4f:41:c2:23:bd:2b:b0:e1:e0:66:58:c1:aa:24:f8:
         7b:98:99:79:31:2b:33:5e:95:3a:87:cc:cf:49:a5:87:3b:38:
         9e:c2:be:de:45:34:55:25:78:3c:19:03:f3:62:14:a7:2a:9a:
         2e:78:8b:6a:3a:00
-----BEGIN CERTIFICATE-----
MIICqDCCAiigAwIBAgIBATAFBgMrZXEwgZkxCzAJBgNVBAYTAlVTMRAwDgYDVQQI
DAdNb250YW5hMRAwDgYDVQQHDAdCb3plbWFuMRYwFAYDVQQKDA13b2xmU1NMX0Vk
NDQ4MRMwEQYDVQQLDApSb290LUVkNDQ4MRgwFgYDVQQDDA93d3cud29sZnNzbC5j
b20xHzAdBgkqhkiG9w0BCQEWEGluZm9Ad29sZnNzbC5jb20wHhcNMjIxMjE2MjEx
NzUwWhcNMjUwOTExMjExNzUwWjCBsDELMAkGA1UEBhMCVVMxEDAOBgNVBAgMB01v
bnRhbmExEDAOBgNVBAcMB0JvemVtYW4xFjAUBgNVBAoMDXdvbGZTU0xfZWQ0NDgx
ETAPBgNVBAsMCENBLWVkNDQ4MRgwFgYDVQQDDA93d3cud29sZnNzbC5jb20xHzAd
BgkqhkiG9w0BCQEWEGluZm9Ad29sZnNzbC5jb20xFzAVBgoJkiaJk/IsZAEBDAd3
b2xmU1NMMEMwBQYDK2VxAzoADuK0duXSzMJLe7ApvpL7w69ppZS6cCToo+/IY5rd
pq9YQzgEJPAQkb6nAZFU889phUy5l4ykN6oAo2MwYTAdBgNVHQ4EFgQUOFlF6N1E
LLV9pSXWC8w58HLAlGMwHwYDVR0jBBgwFoAU2mmYySZKdftZXlOaY0sMuIgLDx4w
DwYDVR0TAQH/BAUwAwEB/zAOBgNVHQ8BAf8EBAMCAYYwBQYDK2VxA3MARNwarnam
KGiB6SfFU+qWkgQPoKnMl3yfBWLXu6LfXj1Sh6sVNc3F4efCmsbYIEZrYksNKEHS
XhGAT0HCI70rsOHgZljBqiT4e5iZeTErM16VOofMz0mlhzs4nsK+3kU0VSV4PBkD
82IUpyqaLniLajoA
-----END CERTIFICATE-----
