Certificate:
    Data:
        Version: 3 (0x2)
        Serial Number:
            41:cb:cd:b4:41:06:a7:13:d4:27:66:bf:c9:a7:44:64:18:84:d5:eb
        Signature Algorithm: ED448
        Issuer: C = US, ST = Montana, L = Bozeman, O = wolfSSL_ed448, OU = Client-ed448, CN = www.wolfssl.com, emailAddress = info@wolfssl.com, UID = wolfSSL
        Validity
            Not Before: Dec 16 21:17:50 2022 GMT
            Not After : Sep 11 21:17:50 2025 GMT
        Subject: C = US, ST = Montana, L = Bozeman, O = wolfSSL_ed448, OU = Client-ed448, CN = www.wolfssl.com, emailAddress = info@wolfssl.com, UID = wolfSSL
        Subject Public Key Info:
            Public Key Algorithm: ED448
                ED448 Public-Key:
                pub:
                    10:c0:82:2f:8d:0a:ec:65:12:52:40:39:aa:7a:60:
                    68:8e:31:22:49:ad:9b:c1:fc:71:e5:3e:78:57:35:
                    c8:76:b3:b3:30:8f:87:78:e6:26:5a:27:d8:0c:38:
                    9e:7b:3c:13:2f:cc:a4:29:6c:80:ef:80
        X509v3 extensions:
            X509v3 Subject Key Identifier: 
                F3:C7:66:93:0D:CB:0E:1B:80:08:00:CF:E3:4E:11:4D:58:2B:4B:D4
            X509v3 Authority Key Identifier: 
                keyid:F3:C7:66:93:0D:CB:0E:1B:80:08:00:CF:E3:4E:11:4D:58:2B:4B:D4
                DirName:/C=US/ST=Montana/L=Bozeman/O=wolfSSL_ed448/OU=Client-ed448/CN=www.wolfssl.com/emailAddress=info@wolfssl.com/UID=wolfSSL
                serial:41:CB:CD:B4:41:06:A7:13:D4:27:66:BF:C9:A7:44:64:18:84:D5:EB

            X509v3 Basic Constraints: 
                CA:TRUE
            X509v3 Subject Alternative Name: 
                DNS:example.com, IP Address:127.0.0.1
            X509v3 Extended Key Usage: 
                TLS Web Server Authentication, TLS Web Client Authentication
    Signature Algorithm: ED448
         00:99:ac:61:ff:f7:f9:cd:d9:75:74:6f:16:8d:65:12:60:77:
         6d:1a:ee:42:bb:aa:31:cc:c9:57:c7:2e:78:a3:a5:48:73:ac:
         b2:d9:2b:ca:f5:35:14:a3:e9:64:40:de:b7:2a:24:d3:73:f9:
         17:fe:80:32:dd:7b:7f:39:29:87:a3:de:d3:48:27:84:b2:50:
         0b:c4:02:36:cd:10:62:88:61:a4:74:c9:b6:5d:c7:94:f0:83:
         28:36:73:5c:a0:66:62:06:63:c1:41:2d:c3:23:24:e6:4f:f9:
         19:85:2f:8d:30:00
-----BEGIN CERTIFICATE-----
MIID3jCCA16gAwIBAgIUQcvNtEEGpxPUJ2a/yadEZBiE1eswBQYDK2VxMIG0MQsw
CQYDVQQGEwJVUzEQMA4GA1UECAwHTW9udGFuYTEQMA4GA1UEBwwHQm96ZW1hbjEW
MBQGA1UECgwNd29sZlNTTF9lZDQ0ODEVMBMGA1UECwwMQ2xpZW50LWVkNDQ4MRgw
FgYDVQQDDA93d3cud29sZnNzbC5jb20xHzAdBgkqhkiG9w0BCQEWEGluZm9Ad29s
ZnNzbC5jb20xFzAVBgoJkiaJk/IsZAEBDAd3b2xmU1NMMB4XDTIyMTIxNjIxMTc1
MFoXDTI1MDkxMTIxMTc1MFowgbQxCzAJBgNVBAYTAlVTMRAwDgYDVQQIDAdNb250
YW5hMRAwDgYDVQQHDAdCb3plbWFuMRYwFAYDVQQKDA13b2xmU1NMX2VkNDQ4MRUw
EwYDVQQLDAxDbGllbnQtZWQ0NDgxGDAWBgNVBAMMD3d3dy53b2xmc3NsLmNvbTEf
MB0GCSqGSIb3DQEJARYQaW5mb0B3b2xmc3NsLmNvbTEXMBUGCgmSJomT8ixkAQEM
B3dvbGZTU0wwQzAFBgMrZXEDOgAQwIIvjQrsZRJSQDmqemBojjEiSa2bwfxx5T54
VzXIdrOzMI+HeOYmWifYDDieezwTL8ykKWyA74CjggFlMIIBYTAdBgNVHQ4EFgQU
88dmkw3LDhuACADP404RTVgrS9QwgfQGA1UdIwSB7DCB6YAU88dmkw3LDhuACADP
404RTVgrS9ShgbqkgbcwgbQxCzAJBgNVBAYTAlVTMRAwDgYDVQQIDAdNb250YW5h
MRAwDgYDVQQHDAdCb3plbWFuMRYwFAYDVQQKDA13b2xmU1NMX2VkNDQ4MRUwEwYD
VQQLDAxDbGllbnQtZWQ0NDgxGDAWBgNVBAMMD3d3dy53b2xmc3NsLmNvbTEfMB0G
CSqGSIb3DQEJARYQaW5mb0B3b2xmc3NsLmNvbTEXMBUGCgmSJomT8ixkAQEMB3dv
bGZTU0yCFEHLzbRBBqcT1Cdmv8mnRGQYhNXrMAwGA1UdEwQFMAMBAf8wHAYDVR0R
BBUwE4ILZXhhbXBsZS5jb22HBH8AAAEwHQYDVR0lBBYwFAYIKwYBBQUHAwEGCCsG
AQUFBwMCMAUGAytlcQNzAACZrGH/9/nN2XV0bxaNZRJgd20a7kK7qjHMyVfHLnij
pUhzrLLZK8r1NRSj6WRA3rcqJNNz+Rf+gDLde385KYej3tNIJ4SyUAvEAjbNEGKI
YaR0ybZdx5Twgyg2c1ygZmIGY8FBLcMjJOZP+RmFL40wAA==
-----END CERTIFICATE-----
