Certificate:
    Data:
        Version: 3 (0x2)
        Serial Number:
            15:10:83:9c:88:f8:38:05:d2:56:c9:ff:8d:c8:a7:bb:c3:ee:a1:d5
        Signature Algorithm: ED448
        Issuer: C = US, ST = Montana, L = Bozeman, O = wolfSSL_Ed448, OU = Root-Ed448, CN = www.wolfssl.com, emailAddress = info@wolfssl.com
        Validity
            Not Before: Dec 16 21:17:50 2022 GMT
            Not After : Sep 11 21:17:50 2025 GMT
        Subject: C = US, ST = Montana, L = Bozeman, O = wolfSSL_Ed448, OU = Root-Ed448, CN = www.wolfssl.com, emailAddress = info@wolfssl.com
        Subject Public Key Info:
            Public Key Algorithm: ED448
                ED448 Public-Key:
                pub:
                    0b:64:26:28:cf:b5:46:9b:ee:3f:ea:3b:f5:66:7a:
                    32:d4:fe:7d:f8:80:5f:58:57:6c:d7:79:ee:66:a2:
                    3d:54:8f:8d:08:af:cb:b8:43:94:50:5d:e5:53:62:
                    69:c8:75:82:a6:5e:44:ca:4b:5b:0b:00
        X509v3 extensions:
            X509v3 Subject Key Identifier: 
                DA:69:98:C9:26:4A:75:FB:59:5E:53:9A:63:4B:0C:B8:88:0B:0F:1E
            X509v3 Authority Key Identifier: 
                keyid:DA:69:98:C9:26:4A:75:FB:59:5E:53:9A:63:4B:0C:B8:88:0B:0F:1E

            X509v3 Basic Constraints: critical
                CA:TRUE
            X509v3 Key Usage: critical
                Digital Signature, Certificate Sign, CRL Sign
    Signature Algorithm: ED448
         e0:a1:1b:d8:b9:fe:48:22:0c:ec:a4:8d:7b:b1:dd:b7:a2:b7:
         8c:48:49:0d:d7:39:5f:13:97:16:0c:2a:d1:3d:c8:f6:fb:f6:
         81:55:f0:5f:ff:cb:94:eb:29:6a:9d:2d:16:4c:2b:bd:13:9f:
         22:87:80:42:17:c3:de:2b:fb:87:a1:1d:79:29:bf:59:12:c7:
         71:68:ca:78:33:ae:bf:1a:8d:8c:f1:68:e1:92:7e:6b:65:5a:
         49:ef:a6:47:4d:e6:70:93:61:58:fa:63:23:63:d4:09:c3:49:
         e5:b1:f9:27:1c:00
-----BEGIN CERTIFICATE-----
MIICpDCCAiSgAwIBAgIUFRCDnIj4OAXSVsn/jcinu8PuodUwBQYDK2VxMIGZMQsw
CQYDVQQGEwJVUzEQMA4GA1UECAwHTW9udGFuYTEQMA4GA1UEBwwHQm96ZW1hbjEW
MBQGA1UECgwNd29sZlNTTF9FZDQ0ODETMBEGA1UECwwKUm9vdC1FZDQ0ODEYMBYG
A1UEAwwPd3d3LndvbGZzc2wuY29tMR8wHQYJKoZIhvcNAQkBFhBpbmZvQHdvbGZz
c2wuY29tMB4XDTIyMTIxNjIxMTc1MFoXDTI1MDkxMTIxMTc1MFowgZkxCzAJBgNV
BAYTAlVTMRAwDgYDVQQIDAdNb250YW5hMRAwDgYDVQQHDAdCb3plbWFuMRYwFAYD
VQQKDA13b2xmU1NMX0VkNDQ4MRMwEQYDVQQLDApSb290LUVkNDQ4MRgwFgYDVQQD
DA93d3cud29sZnNzbC5jb20xHzAdBgkqhkiG9w0BCQEWEGluZm9Ad29sZnNzbC5j
b20wQzAFBgMrZXEDOgALZCYoz7VGm+4/6jv1Znoy1P59+IBfWFds13nuZqI9VI+N
CK/LuEOUUF3lU2JpyHWCpl5EyktbCwCjYzBhMB0GA1UdDgQWBBTaaZjJJkp1+1le
U5pjSwy4iAsPHjAfBgNVHSMEGDAWgBTaaZjJJkp1+1leU5pjSwy4iAsPHjAPBgNV
HRMBAf8EBTADAQH/MA4GA1UdDwEB/wQEAwIBhjAFBgMrZXEDcwDgoRvYuf5IIgzs
pI17sd23oreMSEkN1zlfE5cWDCrRPcj2+/aBVfBf/8uU6ylqnS0WTCu9E58ih4BC
F8PeK/uHoR15Kb9ZEsdxaMp4M66/Go2M8Wjhkn5rZVpJ76ZHTeZwk2FY+mMjY9QJ
w0nlsfknHAA=
-----END CERTIFICATE-----
