Certificate:
    Data:
        Version: 3 (0x2)
        Serial Number: 1 (0x1)
        Signature Algorithm: rsassaPss         
         Hash Algorithm: sha384
         Mask Algorithm: mgf1 with sha384
          Salt Length: 0x014E
         Trailer Field: 0xBC (default)
        Issuer: C = US, ST = Montana, L = Bozeman, O = wolfSSL_RSA-PSS, OU = Root-RSA-PSS, CN = www.wolfssl.com, emailAddress = info@wolfssl.com
        Validity
            Not Before: Dec 16 21:17:49 2022 GMT
            Not After : Sep 11 21:17:49 2025 GMT
        Subject: C = US, ST = Montana, L = Bozeman, O = wolfSSL_RSAPSS, OU = CA-RSAPSS, CN = www.wolfssl.com, emailAddress = info@wolfssl.com, UID = wolfSSL
        Subject Public Key Info:
            Public Key Algorithm: rsassaPss
                RSA-PSS Public-Key: (3072 bit)
                Modulus:
                    00:c8:2a:40:c8:eb:ae:7c:18:33:cb:38:51:e6:b7:
                    7b:11:4f:cd:ea:35:87:64:d9:b2:ca:cf:4b:21:c4:
                    86:2a:c7:a3:6f:15:3e:1e:c4:9b:03:81:4b:3a:5d:
                    53:62:11:e2:08:df:97:4d:37:3d:78:62:50:40:31:
                    2a:70:44:1a:6d:69:49:fc:77:b8:f2:42:09:86:9a:
                    5d:39:cd:84:7b:32:8a:3b:b0:4f:bf:3d:d4:05:7e:
                    c0:aa:28:a5:ce:b1:28:3a:59:d9:19:10:3a:d4:1f:
                    91:07:07:73:50:a4:2b:d8:18:1f:22:f8:f4:64:3f:
                    13:a0:d8:60:7e:53:4c:3b:97:70:bc:36:e5:be:31:
                    97:45:55:ed:a2:5b:87:b5:1b:8e:65:3d:b7:15:08:
                    d1:12:1a:aa:ec:4e:56:35:70:a7:3e:50:65:f7:3e:
                    30:9c:32:db:b2:24:7b:87:02:29:27:12:35:ad:8e:
                    c3:02:22:13:c2:6e:53:45:f0:16:21:81:e5:d5:b5:
                    91:60:8b:d7:5c:bb:c2:70:06:f6:50:41:45:36:7f:
                    41:44:89:b6:97:23:be:76:d7:7c:72:7f:ea:f4:19:
                    10:17:c3:df:8f:cd:97:20:04:cb:1d:03:6b:09:8f:
                    d7:7b:84:7d:22:c5:e2:10:cb:cc:11:aa:a1:f5:66:
                    85:0e:35:5a:8c:c3:89:61:29:d0:5c:53:2f:09:4b:
                    91:7e:ce:e0:12:d3:ce:eb:c9:50:3c:36:f0:a6:b4:
                    fb:b5:c2:de:61:a0:ac:6f:bc:7e:ef:53:08:9f:b1:
                    18:ad:5b:e3:01:23:de:11:a5:1f:7d:d5:b6:f4:72:
                    1d:53:75:66:8c:db:61:1e:e9:eb:3c:f3:49:69:82:
                    b6:20:6b:29:03:a1:be:55:e4:4c:f8:25:a7:a8:a3:
                    e3:3f:32:1f:ae:a7:2a:9b:6b:56:dd:c9:5a:b1:1a:
                    01:a0:13:d2:8e:9a:2c:db:7e:fd:5b:0e:2e:ef:92:
                    69:ce:f2:de:ef:d0:2f:09:0e:67
                Exponent: 65537 (0x10001)
                No PSS parameter restrictions
        X509v3 extensions:
            X509v3 Subject Key Identifier: 
                F8:42:CC:88:C9:C8:18:F9:D3:B0:24:65:06:4C:FF:55:AB:BF:0E:7F
            X509v3 Authority Key Identifier: 
                keyid:AA:71:D3:B1:8A:4B:BB:47:15:47:5F:9B:D0:2B:69:D1:6F:85:5E:F6

            X509v3 Basic Constraints: critical
                CA:TRUE
            X509v3 Key Usage: critical
                Digital Signature, Certificate Sign, CRL Sign
    Signature Algorithm: rsassaPss         
         Hash Algorithm: sha384
         Mask Algorithm: mgf1 with sha384
          Salt Length: 0x014E
         Trailer Field: 0xBC (default)

         39:46:e9:1d:16:25:a1:15:6d:65:88:54:ef:7e:33:b3:0e:44:
         f2:11:cd:23:ad:73:2f:80:3c:aa:10:bd:7e:3c:45:1b:c9:8c:
         d7:2c:71:99:87:b4:e3:81:57:a8:c2:86:6c:80:ec:7c:4a:fb:
         da:01:ed:e1:f6:b2:15:16:e1:3f:cd:de:85:d2:25:3b:11:31:
         f6:a1:54:52:57:25:6c:41:99:d3:dd:92:af:ca:ed:c6:28:d4:
         e5:6d:88:a5:c5:37:3f:6f:50:43:54:21:c9:cd:77:71:5c:81:
         6e:ec:96:b4:ea:04:41:d7:db:ec:43:d2:65:a3:2d:a8:33:1d:
         27:01:1e:28:16:2a:93:61:a6:af:8f:9d:31:e2:34:89:f8:9a:
         cf:a0:c9:12:95:1b:9f:93:e6:10:90:e0:bc:d9:a3:72:40:30:
         cb:c4:b4:ac:3f:17:42:3b:a1:ab:ff:3a:d4:c3:2b:22:56:fb:
         77:93:c9:32:7f:bd:18:ff:c0:60:bc:dd:ce:09:d1:e9:22:44:
         f2:9b:85:8b:20:fa:77:b0:95:aa:b5:9c:de:83:2b:58:7c:ec:
         fb:aa:9c:b9:57:5d:32:32:a3:81:66:a4:1f:0f:2b:08:1b:65:
         1c:d4:e1:4f:7f:d9:ee:39:a9:ae:99:6e:0a:3b:e4:ef:11:d6:
         c9:e9:6f:89:27:c4:25:28:be:5a:e5:17:87:e7:56:0a:f4:32:
         38:f2:86:84:d7:b6:66:47:f3:46:46:55:80:08:d6:8e:c0:08:
         a0:3f:04:62:77:1c:6e:dd:80:7e:57:82:0e:60:81:6e:59:ff:
         ad:39:6e:a0:fe:66:1a:1b:d1:4c:bf:14:c9:82:83:0a:95:57:
         53:3b:79:be:74:01:d7:a7:62:64:6f:5a:8a:a6:7d:ab:9f:90:
         fb:95:89:24:d3:55:02:ef:f1:5f:d4:de:46:0c:5b:9a:60:d6:
         6e:64:cb:11:ae:fa:7f:4f:54:44:c0:ff:af:32:45:92:32:6e:
         5b:cb:9d:2c:03:6e
-----BEGIN CERTIFICATE-----
MIIFjzCCA8agAwIBAgIBATA+BgkqhkiG9w0BAQowMaANMAsGCWCGSAFlAwQCAqEa
MBgGCSqGSIb3DQEBCDALBglghkgBZQMEAgKiBAICAU4wgZ0xCzAJBgNVBAYTAlVT
MRAwDgYDVQQIDAdNb250YW5hMRAwDgYDVQQHDAdCb3plbWFuMRgwFgYDVQQKDA93
b2xmU1NMX1JTQS1QU1MxFTATBgNVBAsMDFJvb3QtUlNBLVBTUzEYMBYGA1UEAwwP
d3d3LndvbGZzc2wuY29tMR8wHQYJKoZIhvcNAQkBFhBpbmZvQHdvbGZzc2wuY29t
MB4XDTIyMTIxNjIxMTc0OVoXDTI1MDkxMTIxMTc0OVowgbIxCzAJBgNVBAYTAlVT
MRAwDgYDVQQIDAdNb250YW5hMRAwDgYDVQQHDAdCb3plbWFuMRcwFQYDVQQKDA53
b2xmU1NMX1JTQVBTUzESMBAGA1UECwwJQ0EtUlNBUFNTMRgwFgYDVQQDDA93d3cu
d29sZnNzbC5jb20xHzAdBgkqhkiG9w0BCQEWEGluZm9Ad29sZnNzbC5jb20xFzAV
BgoJkiaJk/IsZAEBDAd3b2xmU1NMMIIBoDALBgkqhkiG9w0BAQoDggGPADCCAYoC
ggGBAMgqQMjrrnwYM8s4Uea3exFPzeo1h2TZssrPSyHEhirHo28VPh7EmwOBSzpd
U2IR4gjfl003PXhiUEAxKnBEGm1pSfx3uPJCCYaaXTnNhHsyijuwT7891AV+wKoo
pc6xKDpZ2RkQOtQfkQcHc1CkK9gYHyL49GQ/E6DYYH5TTDuXcLw25b4xl0VV7aJb
h7UbjmU9txUI0RIaquxOVjVwpz5QZfc+MJwy27Ike4cCKScSNa2OwwIiE8JuU0Xw
FiGB5dW1kWCL11y7wnAG9lBBRTZ/QUSJtpcjvnbXfHJ/6vQZEBfD34/NlyAEyx0D
awmP13uEfSLF4hDLzBGqofVmhQ41WozDiWEp0FxTLwlLkX7O4BLTzuvJUDw28Ka0
+7XC3mGgrG+8fu9TCJ+xGK1b4wEj3hGlH33VtvRyHVN1ZozbYR7p6zzzSWmCtiBr
KQOhvlXkTPglp6ij4z8yH66nKptrVt3JWrEaAaAT0o6aLNt+/VsOLu+Sac7y3u/Q
LwkOZwIDAQABo2MwYTAdBgNVHQ4EFgQU+ELMiMnIGPnTsCRlBkz/Vau/Dn8wHwYD
VR0jBBgwFoAUqnHTsYpLu0cVR1+b0Ctp0W+FXvYwDwYDVR0TAQH/BAUwAwEB/zAO
BgNVHQ8BAf8EBAMCAYYwPgYJKoZIhvcNAQEKMDGgDTALBglghkgBZQMEAgKhGjAY
BgkqhkiG9w0BAQgwCwYJYIZIAWUDBAICogQCAgFOA4IBgQA5RukdFiWhFW1liFTv
fjOzDkTyEc0jrXMvgDyqEL1+PEUbyYzXLHGZh7TjgVeowoZsgOx8SvvaAe3h9rIV
FuE/zd6F0iU7ETH2oVRSVyVsQZnT3ZKvyu3GKNTlbYilxTc/b1BDVCHJzXdxXIFu
7Ja06gRB19vsQ9Jloy2oMx0nAR4oFiqTYaavj50x4jSJ+JrPoMkSlRufk+YQkOC8
2aNyQDDLxLSsPxdCO6Gr/zrUwysiVvt3k8kyf70Y/8BgvN3OCdHpIkTym4WLIPp3
sJWqtZzegytYfOz7qpy5V10yMqOBZqQfDysIG2Uc1OFPf9nuOamumW4KO+TvEdbJ
6W+JJ8QlKL5a5ReH51YK9DI48oaE17ZmR/NGRlWACNaOwAigPwRidxxu3YB+V4IO
YIFuWf+tOW6g/mYaG9FMvxTJgoMKlVdTO3m+dAHXp2Jkb1qKpn2rn5D7lYkk01UC
7/Ff1N5GDFuaYNZuZMsRrvp/T1REwP+vMkWSMm5by50sA24=
-----END CERTIFICATE-----
