Certificate:
    Data:
        Version: 3 (0x2)
        Serial Number: 1 (0x1)
        Signature Algorithm: rsassaPss         
         Hash Algorithm: sha256
         Mask Algorithm: mgf1 with sha256
          Salt Length: 0x20
         Trailer Field: 0xBC (default)
        Issuer: C = US, ST = Montana, L = Bozeman, O = wolfSSL_RSA-PSS, OU = Root-RSA-PSS, CN = www.wolfssl.com, emailAddress = info@wolfssl.com
        Validity
            Not Before: Dec 16 21:17:49 2022 GMT
            Not After : Sep 11 21:17:49 2025 GMT
        Subject: C = US, ST = Montana, L = Bozeman, O = wolfSSL_RSAPSS, OU = CA-RSAPSS, CN = www.wolfssl.com, emailAddress = info@wolfssl.com, UID = wolfSSL
        Subject Public Key Info:
            Public Key Algorithm: rsassaPss
                RSA-PSS Public-Key: (2048 bit)
                Modulus:
                    00:d6:0e:c7:50:4d:29:f5:a8:a2:d4:29:5b:58:f2:
                    bc:2d:27:de:88:49:1a:84:19:2b:84:8d:94:d1:78:
                    12:d6:7b:14:d8:d2:82:24:95:ab:fe:4f:55:fb:e0:
                    55:fc:39:37:7b:41:80:b4:98:6f:7f:c5:b7:3e:37:
                    f8:5f:1d:2f:12:31:88:f9:8b:3b:00:85:e6:36:a5:
                    17:3f:9a:a4:be:48:ff:7a:36:22:2c:23:d4:9f:5b:
                    52:d1:17:d1:c1:f2:69:19:d8:32:c5:f7:79:ec:83:
                    19:87:e3:13:a0:43:5e:b1:e9:03:ed:b4:08:cd:7b:
                    14:68:0f:25:4f:90:f0:04:a7:bb:08:89:08:dc:76:
                    4e:70:49:04:41:4d:bf:b7:7f:77:79:6a:ef:68:4b:
                    62:97:8e:33:91:32:2a:e3:63:15:47:f6:61:a4:26:
                    db:02:04:b6:57:c0:a7:f0:aa:ec:20:72:91:c3:32:
                    ab:98:7f:84:c6:e8:5f:d6:e0:1a:d2:24:b1:c7:50:
                    bb:73:87:de:2a:c3:e2:c4:60:32:b8:e4:5a:5b:b5:
                    e4:29:8c:8b:28:6b:bb:1a:dc:3c:fe:b9:ef:9e:89:
                    28:60:ba:a4:40:66:d5:bb:e0:62:7f:a7:2b:e1:0f:
                    38:e6:33:ea:b2:10:0e:14:c8:3f:87:9f:ff:8b:28:
                    cc:1d
                Exponent: 65537 (0x10001)
                PSS parameter restrictions:
                  Hash Algorithm: sha256
                  Mask Algorithm: mgf1 with sha256
                  Minimum Salt Length: 0x20
                  Trailer Field: 0xBC (default)
        X509v3 extensions:
            X509v3 Subject Key Identifier: 
                9E:0C:E0:D3:DF:B6:4B:F3:19:63:5C:CA:6C:93:86:A2:14:53:91:31
            X509v3 Authority Key Identifier: 
                keyid:64:D5:EC:82:87:80:DE:5A:ED:49:98:D8:0C:54:7D:46:9E:A5:3C:D6

            X509v3 Basic Constraints: critical
                CA:TRUE
            X509v3 Key Usage: critical
                Digital Signature, Certificate Sign, CRL Sign
    Signature Algorithm: rsassaPss         
         Hash Algorithm: sha256
         Mask Algorithm: mgf1 with sha256
          Salt Length: 0x20
         Trailer Field: 0xBC (default)

         49:a5:ef:22:47:73:30:e6:41:67:79:c9:8c:ac:58:a2:d0:bf:
         ed:50:c9:e8:26:44:16:d0:64:c7:f9:f0:50:1f:8b:25:f7:ba:
         32:f0:1d:14:9f:d7:ad:2b:81:14:7d:60:ec:b3:f6:ad:0a:99:
         b6:1d:eb:f2:8e:d5:bf:1b:a9:1e:3e:8b:6c:c8:c0:ee:dd:1b:
         2e:34:dd:bd:cd:14:60:2e:14:60:b8:f1:f3:bc:af:87:5a:75:
         55:72:18:2d:a3:9d:01:73:aa:52:a6:44:4e:5c:a2:b5:57:8f:
         4b:36:5e:2a:f2:c1:e2:de:88:29:24:8d:62:81:d4:6d:42:e3:
         50:e3:a9:46:fe:78:be:95:83:bd:cc:2c:9a:ad:da:4f:c1:de:
         34:01:53:21:5b:c6:ec:6f:6b:2e:fd:d4:71:c7:15:4e:26:30:
         6a:de:c7:21:22:14:ae:80:c0:00:89:72:83:89:3c:30:15:3b:
         68:67:97:b0:93:7b:7a:95:54:1d:45:8e:ae:d2:97:0c:f9:32:
         3b:61:2d:9e:b2:b0:2e:4f:d5:cc:ab:05:5d:ce:14:8a:fe:7b:
         e4:59:33:fe:e0:42:d9:a6:99:f8:f2:7f:98:fa:09:dc:d5:ab:
         2b:7b:08:c2:24:4c:59:49:e0:9e:23:85:d8:32:c7:5b:d4:01:
         d2:20:c5:9c
-----BEGIN CERTIFICATE-----
MIIEvzCCA3egAwIBAgIBATA9BgkqhkiG9w0BAQowMKANMAsGCWCGSAFlAwQCAaEa
MBgGCSqGSIb3DQEBCDALBglghkgBZQMEAgGiAwIBIDCBnTELMAkGA1UEBhMCVVMx
EDAOBgNVBAgMB01vbnRhbmExEDAOBgNVBAcMB0JvemVtYW4xGDAWBgNVBAoMD3dv
bGZTU0xfUlNBLVBTUzEVMBMGA1UECwwMUm9vdC1SU0EtUFNTMRgwFgYDVQQDDA93
d3cud29sZnNzbC5jb20xHzAdBgkqhkiG9w0BCQEWEGluZm9Ad29sZnNzbC5jb20w
HhcNMjIxMjE2MjExNzQ5WhcNMjUwOTExMjExNzQ5WjCBsjELMAkGA1UEBhMCVVMx
EDAOBgNVBAgMB01vbnRhbmExEDAOBgNVBAcMB0JvemVtYW4xFzAVBgNVBAoMDndv
bGZTU0xfUlNBUFNTMRIwEAYDVQQLDAlDQS1SU0FQU1MxGDAWBgNVBAMMD3d3dy53
b2xmc3NsLmNvbTEfMB0GCSqGSIb3DQEJARYQaW5mb0B3b2xmc3NsLmNvbTEXMBUG
CgmSJomT8ixkAQEMB3dvbGZTU0wwggFSMD0GCSqGSIb3DQEBCjAwoA0wCwYJYIZI
AWUDBAIBoRowGAYJKoZIhvcNAQEIMAsGCWCGSAFlAwQCAaIDAgEgA4IBDwAwggEK
AoIBAQDWDsdQTSn1qKLUKVtY8rwtJ96ISRqEGSuEjZTReBLWexTY0oIklav+T1X7
4FX8OTd7QYC0mG9/xbc+N/hfHS8SMYj5izsAheY2pRc/mqS+SP96NiIsI9SfW1LR
F9HB8mkZ2DLF93nsgxmH4xOgQ16x6QPttAjNexRoDyVPkPAEp7sIiQjcdk5wSQRB
Tb+3f3d5au9oS2KXjjORMirjYxVH9mGkJtsCBLZXwKfwquwgcpHDMquYf4TG6F/W
4BrSJLHHULtzh94qw+LEYDK45FpbteQpjIsoa7sa3Dz+ue+eiShguqRAZtW74GJ/
pyvhDzjmM+qyEA4UyD+Hn/+LKMwdAgMBAAGjYzBhMB0GA1UdDgQWBBSeDODT37ZL
8xljXMpsk4aiFFORMTAfBgNVHSMEGDAWgBRk1eyCh4DeWu1JmNgMVH1GnqU81jAP
BgNVHRMBAf8EBTADAQH/MA4GA1UdDwEB/wQEAwIBhjA9BgkqhkiG9w0BAQowMKAN
MAsGCWCGSAFlAwQCAaEaMBgGCSqGSIb3DQEBCDALBglghkgBZQMEAgGiAwIBIAOC
AQEASaXvIkdzMOZBZ3nJjKxYotC/7VDJ6CZEFtBkx/nwUB+LJfe6MvAdFJ/XrSuB
FH1g7LP2rQqZth3r8o7VvxupHj6LbMjA7t0bLjTdvc0UYC4UYLjx87yvh1p1VXIY
LaOdAXOqUqZETlyitVePSzZeKvLB4t6IKSSNYoHUbULjUOOpRv54vpWDvcwsmq3a
T8HeNAFTIVvG7G9rLv3UcccVTiYwat7HISIUroDAAIlyg4k8MBU7aGeXsJN7epVU
HUWOrtKXDPkyO2EtnrKwLk/VzKsFXc4Uiv575Fkz/uBC2aaZ+PJ/mPoJ3NWrK3sI
wiRMWUngniOF2DLHW9QB0iDFnA==
-----END CERTIFICATE-----
