Certificate:
    Data:
        Version: 3 (0x2)
        Serial Number:
            08:97:d5:a9:82:55:09:02:75:62:2e:dc:dc:38:a5:be:b7:fc:34:4b
        Signature Algorithm: rsassaPss         
         Hash Algorithm: sha256
         Mask Algorithm: mgf1 with sha256
          Salt Length: 0x20
         Trailer Field: 0xBC (default)
        Issuer: C = US, ST = Montana, L = Bozeman, O = wolfSSL_RSAPSS, OU = Client-RSAPSS, CN = www.wolfssl.com, emailAddress = info@wolfssl.com, UID = wolfSSL
        Validity
            Not Before: Dec 16 21:17:49 2022 GMT
            Not After : Sep 11 21:17:49 2025 GMT
        Subject: C = US, ST = Montana, L = Bozeman, O = wolfSSL_RSAPSS, OU = Client-RSAPSS, CN = www.wolfssl.com, emailAddress = info@wolfssl.com, UID = wolfSSL
        Subject Public Key Info:
            Public Key Algorithm: rsassaPss
                RSA-PSS Public-Key: (2048 bit)
                Modulus:
                    00:c6:87:be:60:87:43:7d:c4:ac:e4:fa:3c:12:1d:
                    c7:cf:ea:5c:c4:93:72:e2:0d:37:47:33:3d:e0:a5:
                    ec:57:16:bd:80:2a:5a:f9:a1:b7:ee:6d:46:7c:3a:
                    4e:24:e3:17:62:5a:38:97:0b:03:13:a5:7a:5e:11:
                    a1:50:fb:1b:6d:16:13:56:bb:77:0a:7b:98:cc:85:
                    11:d2:93:31:ed:74:01:38:3d:37:01:36:d6:52:c0:
                    27:fb:53:fb:ae:fd:56:bc:02:80:91:81:cc:ed:51:
                    46:16:7b:1d:8e:f3:06:48:83:28:11:4b:b8:a7:7b:
                    e8:92:8e:93:f4:8d:1d:fa:cc:7c:28:51:3d:21:98:
                    90:3f:80:2a:b9:dc:22:87:f0:8d:b9:a7:bb:cc:a4:
                    dd:25:ad:65:88:28:f1:1c:4f:dc:04:f2:5a:0f:52:
                    b6:35:84:52:18:d7:bf:de:e3:dc:f6:f0:3c:c9:db:
                    cd:b1:48:11:4b:ae:7c:1e:59:ac:b5:8c:ee:2e:83:
                    0f:f5:29:34:39:74:cb:9a:fa:a6:d3:63:d5:69:7a:
                    dc:f2:0d:43:46:03:10:a7:b0:9c:cd:15:b3:36:5e:
                    43:5e:05:4c:03:62:99:29:d0:57:05:e7:54:df:b0:
                    e5:71:39:37:f1:13:66:70:12:f3:87:98:09:8f:1f:
                    e1:e7
                Exponent: 65537 (0x10001)
                PSS parameter restrictions:
                  Hash Algorithm: sha256
                  Mask Algorithm: mgf1 with sha256
                  Minimum Salt Length: 0x20
                  Trailer Field: 0xBC (default)
        X509v3 extensions:
            X509v3 Subject Key Identifier: 
                59:71:87:88:D0:3E:C7:EE:08:4D:80:F2:C9:FC:CF:3D:76:E6:A5:62
            X509v3 Authority Key Identifier: 
                keyid:59:71:87:88:D0:3E:C7:EE:08:4D:80:F2:C9:FC:CF:3D:76:E6:A5:62
                DirName:/C=US/ST=Montana/L=Bozeman/O=wolfSSL_RSAPSS/OU=Client-RSAPSS/CN=www.wolfssl.com/emailAddress=info@wolfssl.com/UID=wolfSSL
                serial:08:97:D5:A9:82:55:09:02:75:62:2E:DC:DC:38:A5:BE:B7:FC:34:4B

            X509v3 Basic Constraints: 
                CA:TRUE
            X509v3 Subject Alternative Name: 
                DNS:example.com, IP Address:127.0.0.1
            X509v3 Extended Key Usage: 
                TLS Web Server Authentication, TLS Web Client Authentication
    Signature Algorithm: rsassaPss         
         Hash Algorithm: sha256
         Mask Algorithm: mgf1 with sha256
          Salt Length: 0x20
         Trailer Field: 0xBC (default)

         53:ab:77:45:54:4f:cd:f0:28:9c:97:52:09:1c:77:4f:b5:9e:
         c6:97:e3:f1:fd:be:a3:8e:75:f4:d5:af:00:ae:5f:fe:5c:e6:
         01:ac:6f:d1:3c:d5:1b:85:23:cc:2e:25:41:05:2f:8e:e3:b8:
         a4:c2:28:66:7c:4f:e3:72:bc:4a:71:8d:05:73:a5:98:67:6d:
         ea:ae:ed:e5:97:63:46:57:83:24:15:1d:83:93:27:e6:cb:0f:
         ea:bf:d2:39:a1:8b:38:68:1a:95:5e:48:9d:ea:86:76:5a:8d:
         61:4f:55:fd:05:d6:05:4b:e7:de:d3:b0:35:d0:b0:ef:52:06:
         c3:53:c8:a9:d5:be:97:6b:12:eb:9d:01:5b:ac:7f:b6:00:d5:
         4f:c2:90:ce:4f:49:59:ea:76:68:b2:73:81:28:17:2c:44:99:
         f3:67:0e:3d:78:71:5d:52:96:9f:0c:8d:73:ef:8c:ea:9a:6e:
         5e:9c:09:fc:2f:15:75:fb:f9:0c:14:96:86:19:90:ba:ba:ed:
         9f:61:ff:4c:49:2e:3c:c6:f5:63:fe:b4:ce:1c:3d:27:37:31:
         ac:69:c3:96:e5:ca:db:05:99:f7:9c:32:8a:b0:2b:f0:3e:0a:
         6c:23:99:03:60:df:b9:34:b1:8f:85:fa:42:a2:d8:de:ff:d4:
         78:1e:ba:64
-----BEGIN CERTIFICATE-----
MIIF9TCCBK2gAwIBAgIUCJfVqYJVCQJ1Yi7c3Dilvrf8NEswPQYJKoZIhvcNAQEK
MDCgDTALBglghkgBZQMEAgGhGjAYBgkqhkiG9w0BAQgwCwYJYIZIAWUDBAIBogMC
ASAwgbYxCzAJBgNVBAYTAlVTMRAwDgYDVQQIDAdNb250YW5hMRAwDgYDVQQHDAdC
b3plbWFuMRcwFQYDVQQKDA53b2xmU1NMX1JTQVBTUzEWMBQGA1UECwwNQ2xpZW50
LVJTQVBTUzEYMBYGA1UEAwwPd3d3LndvbGZzc2wuY29tMR8wHQYJKoZIhvcNAQkB
FhBpbmZvQHdvbGZzc2wuY29tMRcwFQYKCZImiZPyLGQBAQwHd29sZlNTTDAeFw0y
MjEyMTYyMTE3NDlaFw0yNTA5MTEyMTE3NDlaMIG2MQswCQYDVQQGEwJVUzEQMA4G
A1UECAwHTW9udGFuYTEQMA4GA1UEBwwHQm96ZW1hbjEXMBUGA1UECgwOd29sZlNT
TF9SU0FQU1MxFjAUBgNVBAsMDUNsaWVudC1SU0FQU1MxGDAWBgNVBAMMD3d3dy53
b2xmc3NsLmNvbTEfMB0GCSqGSIb3DQEJARYQaW5mb0B3b2xmc3NsLmNvbTEXMBUG
CgmSJomT8ixkAQEMB3dvbGZTU0wwggFSMD0GCSqGSIb3DQEBCjAwoA0wCwYJYIZI
AWUDBAIBoRowGAYJKoZIhvcNAQEIMAsGCWCGSAFlAwQCAaIDAgEgA4IBDwAwggEK
AoIBAQDGh75gh0N9xKzk+jwSHcfP6lzEk3LiDTdHMz3gpexXFr2AKlr5obfubUZ8
Ok4k4xdiWjiXCwMTpXpeEaFQ+xttFhNWu3cKe5jMhRHSkzHtdAE4PTcBNtZSwCf7
U/uu/Va8AoCRgcztUUYWex2O8wZIgygRS7ine+iSjpP0jR36zHwoUT0hmJA/gCq5
3CKH8I25p7vMpN0lrWWIKPEcT9wE8loPUrY1hFIY17/e49z28DzJ282xSBFLrnwe
Way1jO4ugw/1KTQ5dMua+qbTY9VpetzyDUNGAxCnsJzNFbM2XkNeBUwDYpkp0FcF
51TfsOVxOTfxE2ZwEvOHmAmPH+HnAgMBAAGjggFnMIIBYzAdBgNVHQ4EFgQUWXGH
iNA+x+4ITYDyyfzPPXbmpWIwgfYGA1UdIwSB7jCB64AUWXGHiNA+x+4ITYDyyfzP
PXbmpWKhgbykgbkwgbYxCzAJBgNVBAYTAlVTMRAwDgYDVQQIDAdNb250YW5hMRAw
DgYDVQQHDAdCb3plbWFuMRcwFQYDVQQKDA53b2xmU1NMX1JTQVBTUzEWMBQGA1UE
CwwNQ2xpZW50LVJTQVBTUzEYMBYGA1UEAwwPd3d3LndvbGZzc2wuY29tMR8wHQYJ
KoZIhvcNAQkBFhBpbmZvQHdvbGZzc2wuY29tMRcwFQYKCZImiZPyLGQBAQwHd29s
ZlNTTIIUCJfVqYJVCQJ1Yi7c3Dilvrf8NEswDAYDVR0TBAUwAwEB/zAcBgNVHREE
FTATggtleGFtcGxlLmNvbYcEfwAAATAdBgNVHSUEFjAUBggrBgEFBQcDAQYIKwYB
BQUHAwIwPQYJKoZIhvcNAQEKMDCgDTALBglghkgBZQMEAgGhGjAYBgkqhkiG9w0B
AQgwCwYJYIZIAWUDBAIBogMCASADggEBAFOrd0VUT83wKJyXUgkcd0+1nsaX4/H9
vqOOdfTVrwCuX/5c5gGsb9E81RuFI8wuJUEFL47juKTCKGZ8T+NyvEpxjQVzpZhn
bequ7eWXY0ZXgyQVHYOTJ+bLD+q/0jmhizhoGpVeSJ3qhnZajWFPVf0F1gVL597T
sDXQsO9SBsNTyKnVvpdrEuudAVusf7YA1U/CkM5PSVnqdmiyc4EoFyxEmfNnDj14
cV1Slp8MjXPvjOqabl6cCfwvFXX7+QwUloYZkLq67Z9h/0xJLjzG9WP+tM4cPSc3
Maxpw5blytsFmfecMoqwK/A+CmwjmQNg37k0sY+F+kKi2N7/1HgeumQ=
-----END CERTIFICATE-----
