Certificate:
    Data:
        Version: 3 (0x2)
        Serial Number:
            04:fb:6a:d0:0a:86:db:19:b8:c7:f8:dc:8b:70:ed:b4:4e:e0:e2:02
        Signature Algorithm: rsassaPss         
         Hash Algorithm: sha384
         Mask Algorithm: mgf1 with sha384
          Salt Length: 0x014E
         Trailer Field: 0xBC (default)
        Issuer: C = US, ST = Montana, L = Bozeman, O = wolfSSL_RSAPSS, OU = Client-RSAPSS, CN = www.wolfssl.com, emailAddress = info@wolfssl.com, UID = wolfSSL
        Validity
            Not Before: Dec 16 21:17:49 2022 GMT
            Not After : Sep 11 21:17:49 2025 GMT
        Subject: C = US, ST = Montana, L = Bozeman, O = wolfSSL_RSAPSS, OU = Client-RSAPSS, CN = www.wolfssl.com, emailAddress = info@wolfssl.com, UID = wolfSSL
        Subject Public Key Info:
            Public Key Algorithm: rsassaPss
                RSA-PSS Public-Key: (3072 bit)
                Modulus:
                    00:bb:06:28:e4:7f:c9:41:76:be:26:c6:a9:ba:08:
                    e6:35:9c:33:a0:3c:5b:ab:95:23:d7:6b:61:d3:2e:
                    8b:8d:ed:1c:d9:57:ae:1a:69:e2:ce:65:88:2e:65:
                    0f:cb:f1:79:cb:2c:46:96:3e:3f:5b:59:e5:b7:b5:
                    b1:3c:7c:26:e4:56:21:51:5d:04:79:d9:7f:5c:71:
                    54:e9:1e:99:c1:f7:be:6c:0f:7b:ef:46:8d:40:0e:
                    a3:6b:ce:98:9b:6c:0d:6d:d3:24:9d:9e:e8:68:25:
                    9c:46:60:92:37:62:73:21:77:1a:bd:5c:f0:11:6d:
                    ee:b9:6f:b2:8e:36:54:3e:e1:72:6b:36:c9:88:48:
                    86:18:6c:f8:d7:b1:e0:e4:d7:0c:2a:15:cc:92:33:
                    84:bd:71:1a:07:70:aa:03:24:e1:ce:c2:28:b8:e3:
                    83:ff:ba:19:50:b7:ae:22:fd:fb:eb:70:70:b0:2d:
                    17:a0:3e:aa:85:50:43:62:24:5d:00:51:b8:11:fa:
                    d8:c6:06:40:07:bd:4a:b0:42:70:52:cf:17:95:b1:
                    53:fc:68:8d:13:be:a0:0e:c4:4b:cb:17:72:cd:cd:
                    0b:2e:ff:66:42:50:cc:76:7d:70:4e:7d:63:16:e5:
                    da:e1:fb:99:6c:1d:06:6c:ab:ee:d3:36:4e:c7:34:
                    5f:f7:d0:1e:50:fd:fe:41:39:29:5c:e1:c7:bf:c4:
                    50:36:75:8a:36:4d:09:6a:ca:2a:cc:1a:b7:0d:8b:
                    16:6d:48:07:39:61:f5:c8:07:5a:9c:bf:d2:a5:f1:
                    39:3b:7e:bf:62:31:93:ba:29:5a:c9:09:d7:00:30:
                    3e:d8:18:8c:9e:a7:28:75:49:aa:89:34:de:5a:14:
                    29:5d:fc:47:05:ab:6a:84:0f:57:2c:64:ab:3b:98:
                    b3:d6:48:ba:db:f1:03:d0:20:f7:9f:ef:7d:52:50:
                    28:e3:48:ed:29:3e:fe:ff:86:a3:64:3d:7f:29:a2:
                    a3:93:52:e5:6a:c3:a9:13:44:cf
                Exponent: 65537 (0x10001)
                No PSS parameter restrictions
        X509v3 extensions:
            X509v3 Subject Key Identifier: 
                8C:01:9F:4E:11:24:28:BF:3E:EA:82:EA:54:2A:C9:0F:F5:E4:C5:47
            X509v3 Authority Key Identifier: 
                keyid:8C:01:9F:4E:11:24:28:BF:3E:EA:82:EA:54:2A:C9:0F:F5:E4:C5:47
                DirName:/C=US/ST=Montana/L=Bozeman/O=wolfSSL_RSAPSS/OU=Client-RSAPSS/CN=www.wolfssl.com/emailAddress=info@wolfssl.com/UID=wolfSSL
                serial:04:FB:6A:D0:0A:86:DB:19:B8:C7:F8:DC:8B:70:ED:B4:4E:E0:E2:02

            X509v3 Basic Constraints: 
                CA:TRUE
            X509v3 Subject Alternative Name: 
                DNS:example.com, IP Address:127.0.0.1
            X509v3 Extended Key Usage: 
                TLS Web Server Authentication, TLS Web Client Authentication
    Signature Algorithm: rsassaPss         
         Hash Algorithm: sha384
         Mask Algorithm: mgf1 with sha384
          Salt Length: 0x014E
         Trailer Field: 0xBC (default)

         32:f2:6a:d2:c9:02:8e:eb:45:8f:13:02:4d:2c:0f:c1:3a:ea:
         be:e3:f9:92:a2:2d:1b:fb:e8:b9:2f:d2:d0:e0:16:cd:b7:67:
         e2:e3:61:a2:8d:c2:c9:64:f2:6a:8a:d2:62:9b:25:25:3d:72:
         b1:07:1f:2c:a3:03:64:32:d4:23:84:08:03:60:ed:90:98:7a:
         50:1b:19:b4:c1:a8:3b:d1:00:57:82:fc:e9:ef:15:c7:c1:ed:
         b5:af:6c:60:84:48:d3:d4:8b:09:3f:2e:cc:f7:dd:62:ff:ad:
         fe:8a:fe:7c:2a:12:fa:ca:24:6a:15:5b:56:46:06:6d:d4:08:
         17:d9:94:78:8a:88:b3:92:6b:39:9e:79:6d:fe:9e:c3:d4:cb:
         dd:be:06:b0:b8:5e:4e:dc:26:64:8d:25:ed:b7:1f:16:d1:64:
         71:bf:e2:ed:f3:a2:2b:38:fb:e7:75:c6:65:62:72:65:ce:1b:
         77:d7:9e:31:01:1b:07:fc:e7:8c:50:5a:9c:74:2b:a5:38:e1:
         b0:ca:dd:e1:2d:27:c0:91:f2:bc:33:a0:1a:d4:06:21:af:c2:
         cf:93:96:9d:aa:9b:49:f5:1e:9a:21:76:97:fe:63:4b:9f:ba:
         b1:e7:d4:04:d5:d5:65:28:6a:8b:6c:74:4b:55:52:0e:ef:ba:
         48:57:02:48:22:79:88:1c:cc:bb:22:4b:82:ac:5b:7d:d8:de:
         6d:0d:4d:37:f4:69:b3:97:28:0e:fd:5c:29:9f:26:a3:cc:59:
         91:97:36:54:2f:f9:4b:24:fc:a9:d8:bc:02:ae:21:5a:38:8b:
         a4:8c:f1:8c:31:ef:5d:60:1b:f2:47:39:ea:e7:1b:b1:38:48:
         dc:47:82:e1:b8:79:97:87:b6:ad:4b:d3:3b:24:c1:0f:19:4e:
         41:b0:bc:7e:d4:d0:d8:dc:95:75:8d:e6:b3:63:21:02:f9:16:
         f6:23:56:86:61:6c:17:74:8a:83:f5:b1:5f:6c:59:a0:03:1e:
         b5:69:44:26:ff:0d
-----BEGIN CERTIFICATE-----
MIIGxTCCBPygAwIBAgIUBPtq0AqG2xm4x/jci3DttE7g4gIwPgYJKoZIhvcNAQEK
MDGgDTALBglghkgBZQMEAgKhGjAYBgkqhkiG9w0BAQgwCwYJYIZIAWUDBAICogQC
AgFOMIG2MQswCQYDVQQGEwJVUzEQMA4GA1UECAwHTW9udGFuYTEQMA4GA1UEBwwH
Qm96ZW1hbjEXMBUGA1UECgwOd29sZlNTTF9SU0FQU1MxFjAUBgNVBAsMDUNsaWVu
dC1SU0FQU1MxGDAWBgNVBAMMD3d3dy53b2xmc3NsLmNvbTEfMB0GCSqGSIb3DQEJ
ARYQaW5mb0B3b2xmc3NsLmNvbTEXMBUGCgmSJomT8ixkAQEMB3dvbGZTU0wwHhcN
MjIxMjE2MjExNzQ5WhcNMjUwOTExMjExNzQ5WjCBtjELMAkGA1UEBhMCVVMxEDAO
BgNVBAgMB01vbnRhbmExEDAOBgNVBAcMB0JvemVtYW4xFzAVBgNVBAoMDndvbGZT
U0xfUlNBUFNTMRYwFAYDVQQLDA1DbGllbnQtUlNBUFNTMRgwFgYDVQQDDA93d3cu
d29sZnNzbC5jb20xHzAdBgkqhkiG9w0BCQEWEGluZm9Ad29sZnNzbC5jb20xFzAV
BgoJkiaJk/IsZAEBDAd3b2xmU1NMMIIBoDALBgkqhkiG9w0BAQoDggGPADCCAYoC
ggGBALsGKOR/yUF2vibGqboI5jWcM6A8W6uVI9drYdMui43tHNlXrhpp4s5liC5l
D8vxecssRpY+P1tZ5be1sTx8JuRWIVFdBHnZf1xxVOkemcH3vmwPe+9GjUAOo2vO
mJtsDW3TJJ2e6GglnEZgkjdicyF3Gr1c8BFt7rlvso42VD7hcms2yYhIhhhs+Nex
4OTXDCoVzJIzhL1xGgdwqgMk4c7CKLjjg/+6GVC3riL9++twcLAtF6A+qoVQQ2Ik
XQBRuBH62MYGQAe9SrBCcFLPF5WxU/xojRO+oA7ES8sXcs3NCy7/ZkJQzHZ9cE59
Yxbl2uH7mWwdBmyr7tM2Tsc0X/fQHlD9/kE5KVzhx7/EUDZ1ijZNCWrKKswatw2L
Fm1IBzlh9cgHWpy/0qXxOTt+v2Ixk7opWskJ1wAwPtgYjJ6nKHVJqok03loUKV38
RwWraoQPVyxkqzuYs9ZIutvxA9Ag95/vfVJQKONI7Sk+/v+Go2Q9fymio5NS5WrD
qRNEzwIDAQABo4IBZzCCAWMwHQYDVR0OBBYEFIwBn04RJCi/PuqC6lQqyQ/15MVH
MIH2BgNVHSMEge4wgeuAFIwBn04RJCi/PuqC6lQqyQ/15MVHoYG8pIG5MIG2MQsw
CQYDVQQGEwJVUzEQMA4GA1UECAwHTW9udGFuYTEQMA4GA1UEBwwHQm96ZW1hbjEX
MBUGA1UECgwOd29sZlNTTF9SU0FQU1MxFjAUBgNVBAsMDUNsaWVudC1SU0FQU1Mx
GDAWBgNVBAMMD3d3dy53b2xmc3NsLmNvbTEfMB0GCSqGSIb3DQEJARYQaW5mb0B3
b2xmc3NsLmNvbTEXMBUGCgmSJomT8ixkAQEMB3dvbGZTU0yCFAT7atAKhtsZuMf4
3Itw7bRO4OICMAwGA1UdEwQFMAMBAf8wHAYDVR0RBBUwE4ILZXhhbXBsZS5jb22H
BH8AAAEwHQYDVR0lBBYwFAYIKwYBBQUHAwEGCCsGAQUFBwMCMD4GCSqGSIb3DQEB
CjAxoA0wCwYJYIZIAWUDBAICoRowGAYJKoZIhvcNAQEIMAsGCWCGSAFlAwQCAqIE
AgIBTgOCAYEAMvJq0skCjutFjxMCTSwPwTrqvuP5kqItG/vouS/S0OAWzbdn4uNh
oo3CyWTyaorSYpslJT1ysQcfLKMDZDLUI4QIA2DtkJh6UBsZtMGoO9EAV4L86e8V
x8Htta9sYIRI09SLCT8uzPfdYv+t/or+fCoS+sokahVbVkYGbdQIF9mUeIqIs5Jr
OZ55bf6ew9TL3b4GsLheTtwmZI0l7bcfFtFkcb/i7fOiKzj753XGZWJyZc4bd9ee
MQEbB/znjFBanHQrpTjhsMrd4S0nwJHyvDOgGtQGIa/Cz5OWnaqbSfUemiF2l/5j
S5+6sefUBNXVZShqi2x0S1VSDu+6SFcCSCJ5iBzMuyJLgqxbfdjebQ1NN/Rps5co
Dv1cKZ8mo8xZkZc2VC/5SyT8qdi8Aq4hWjiLpIzxjDHvXWAb8kc56ucbsThI3EeC
4bh5l4e2rUvTOyTBDxlOQbC8ftTQ2NyVdY3ms2MhAvkW9iNWhmFsF3SKg/WxX2xZ
oAMetWlEJv8N
-----END CERTIFICATE-----
