Certificate:
    Data:
        Version: 3 (0x2)
        Serial Number:
            16:f5:d9:4e:98:03:1d:e8:9e:1a:04:6e:b9:8a:bf:14:4d:1f:79:b1
        Signature Algorithm: rsassaPss         
         Hash Algorithm: sha384
         Mask Algorithm: mgf1 with sha384
          Salt Length: 0x014E
         Trailer Field: 0xBC (default)
        Issuer: C = US, ST = Montana, L = Bozeman, O = wolfSSL_RSA-PSS, OU = Root-RSA-PSS, CN = www.wolfssl.com, emailAddress = info@wolfssl.com
        Validity
            Not Before: Dec 16 21:17:49 2022 GMT
            Not After : Sep 11 21:17:49 2025 GMT
        Subject: C = US, ST = Montana, L = Bozeman, O = wolfSSL_RSA-PSS, OU = Root-RSA-PSS, CN = www.wolfssl.com, emailAddress = info@wolfssl.com
        Subject Public Key Info:
            Public Key Algorithm: rsassaPss
                RSA-PSS Public-Key: (3072 bit)
                Modulus:
                    00:ad:cd:ed:4f:94:27:fa:57:28:90:bc:e5:35:b6:
                    96:36:18:25:45:e1:de:aa:87:98:88:61:2b:97:2a:
                    e4:4e:f6:06:36:1c:38:b5:5d:ae:99:59:99:70:01:
                    12:f9:02:49:7b:ae:c1:aa:78:41:26:9b:f6:31:09:
                    af:0a:6b:eb:f2:8c:39:2f:f9:fe:e0:38:a6:2f:00:
                    ee:40:6e:94:8c:be:3f:c1:3e:6b:3a:ae:91:e6:d6:
                    6c:34:1a:54:88:b6:38:b8:f8:c9:58:b4:8e:99:0c:
                    ab:37:6e:a1:50:25:f1:e4:e2:76:78:9c:95:12:7e:
                    35:7f:74:65:1d:79:b7:81:44:78:a3:53:f3:f4:1c:
                    17:80:15:b7:c1:f7:a1:b3:0b:69:5a:e7:12:6b:49:
                    1f:0a:84:88:70:19:73:16:be:1c:cd:b4:e0:e7:bf:
                    04:61:ba:da:44:eb:52:41:7a:46:b8:8e:02:83:c1:
                    75:05:60:d0:6c:0e:75:7d:52:9e:f9:38:17:de:a8:
                    cc:5c:dd:e6:02:8b:f5:30:43:1c:5a:98:8f:c3:c1:
                    d9:5f:e6:6f:6e:f1:74:d6:de:8b:5f:8b:ce:35:8a:
                    f4:58:8a:0e:6b:da:97:cd:8a:6a:b1:7f:83:4e:7c:
                    ae:b6:78:8e:51:e8:49:34:d1:68:e3:d0:bf:5b:b3:
                    17:5a:e0:d7:94:20:12:26:7b:9d:19:fa:1e:16:65:
                    65:e1:54:bb:f9:4f:9e:63:da:dc:10:dc:b0:9b:09:
                    24:d5:0b:97:83:eb:2c:b3:1e:15:50:38:93:06:5a:
                    8c:11:12:63:21:31:91:c3:7c:bf:54:ed:2c:2f:bc:
                    f7:63:a4:38:36:5c:f3:bb:71:3d:0d:15:f6:5a:bc:
                    4c:ee:78:50:31:61:40:bf:45:28:d2:b5:2f:c1:08:
                    af:be:d6:03:00:cf:19:69:e3:a0:b0:92:ec:26:42:
                    5e:02:a5:d1:2d:cf:b8:63:df:ce:b3:22:6c:1a:d3:
                    5d:89:15:9a:c4:77:98:cd:95:7f
                Exponent: 65537 (0x10001)
                No PSS parameter restrictions
        X509v3 extensions:
            X509v3 Subject Key Identifier: 
                AA:71:D3:B1:8A:4B:BB:47:15:47:5F:9B:D0:2B:69:D1:6F:85:5E:F6
            X509v3 Authority Key Identifier: 
                keyid:AA:71:D3:B1:8A:4B:BB:47:15:47:5F:9B:D0:2B:69:D1:6F:85:5E:F6

            X509v3 Basic Constraints: critical
                CA:TRUE
            X509v3 Key Usage: critical
                Digital Signature, Certificate Sign, CRL Sign
    Signature Algorithm: rsassaPss         
         Hash Algorithm: sha384
         Mask Algorithm: mgf1 with sha384
          Salt Length: 0x014E
         Trailer Field: 0xBC (default)

         14:4c:66:28:6a:b0:97:a1:1e:2b:45:bc:43:47:2b:42:f5:47:
         4b:07:02:51:d0:6d:8e:8e:01:72:2f:10:72:6c:ff:fb:59:46:
         a2:7d:ce:a1:11:fa:9e:54:40:54:77:d0:15:c9:ce:36:15:08:
         c6:24:d2:9c:45:ef:26:bf:f6:1e:ad:e3:de:cd:d5:87:bb:e7:
         6c:9b:61:24:5a:ec:5c:57:dc:b2:f1:74:3d:1d:b6:0f:97:b3:
         65:9b:c2:e0:b0:06:c7:00:11:c0:b8:e8:4b:c4:d4:ff:0c:54:
         bb:7b:72:f7:b6:52:2c:19:1e:de:21:92:57:f2:14:75:ba:e2:
         f9:4b:d7:db:be:cf:f6:9e:2d:65:77:f8:fc:5d:68:6e:1a:65:
         81:a1:e2:a2:3f:5e:a2:f6:c1:42:4b:2d:84:b3:c2:68:9d:ae:
         ef:48:f7:ce:f0:c0:18:6b:b9:27:ba:1f:a1:b5:a7:cb:f2:96:
         99:b8:07:3e:1a:0a:d5:dd:ee:95:4e:98:a0:3e:b8:33:88:b9:
         f8:1c:5b:9b:76:fa:2b:90:8e:a9:95:47:b1:cc:e2:67:5e:dd:
         9d:41:f9:50:43:f7:95:fb:8a:45:8a:cf:9b:63:ea:aa:ef:38:
         03:56:4d:b1:73:07:39:a8:01:a7:78:83:5a:43:09:08:7d:ac:
         7e:63:74:01:bb:16:4f:0d:32:6b:3f:b2:93:c8:21:d2:0b:45:
         0b:02:78:50:5f:f2:39:67:49:1a:ab:f8:e9:04:c0:8f:5f:21:
         92:08:b0:a8:5e:5d:26:70:43:92:21:3c:42:02:b6:80:a2:45:
         a5:6a:f0:fe:bb:76:60:7b:b2:0a:9b:25:a4:ed:fd:9e:15:79:
         e5:5a:b7:6e:11:09:d3:68:73:b1:ec:d6:30:87:66:3f:dd:0e:
         92:0b:01:05:1e:0e:b3:56:93:96:1f:4b:0a:2e:a9:5c:cd:54:
         5d:71:54:22:28:db:8b:28:b0:b8:a8:1e:f1:da:60:25:81:53:
         85:9f:d0:86:4e:3a
-----BEGIN CERTIFICATE-----
MIIFjTCCA8SgAwIBAgIUFvXZTpgDHeieGgRuuYq/FE0febEwPgYJKoZIhvcNAQEK
MDGgDTALBglghkgBZQMEAgKhGjAYBgkqhkiG9w0BAQgwCwYJYIZIAWUDBAICogQC
AgFOMIGdMQswCQYDVQQGEwJVUzEQMA4GA1UECAwHTW9udGFuYTEQMA4GA1UEBwwH
Qm96ZW1hbjEYMBYGA1UECgwPd29sZlNTTF9SU0EtUFNTMRUwEwYDVQQLDAxSb290
LVJTQS1QU1MxGDAWBgNVBAMMD3d3dy53b2xmc3NsLmNvbTEfMB0GCSqGSIb3DQEJ
ARYQaW5mb0B3b2xmc3NsLmNvbTAeFw0yMjEyMTYyMTE3NDlaFw0yNTA5MTEyMTE3
NDlaMIGdMQswCQYDVQQGEwJVUzEQMA4GA1UECAwHTW9udGFuYTEQMA4GA1UEBwwH
Qm96ZW1hbjEYMBYGA1UECgwPd29sZlNTTF9SU0EtUFNTMRUwEwYDVQQLDAxSb290
LVJTQS1QU1MxGDAWBgNVBAMMD3d3dy53b2xmc3NsLmNvbTEfMB0GCSqGSIb3DQEJ
ARYQaW5mb0B3b2xmc3NsLmNvbTCCAaAwCwYJKoZIhvcNAQEKA4IBjwAwggGKAoIB
gQCtze1PlCf6VyiQvOU1tpY2GCVF4d6qh5iIYSuXKuRO9gY2HDi1Xa6ZWZlwARL5
Akl7rsGqeEEmm/YxCa8Ka+vyjDkv+f7gOKYvAO5AbpSMvj/BPms6rpHm1mw0GlSI
tji4+MlYtI6ZDKs3bqFQJfHk4nZ4nJUSfjV/dGUdebeBRHijU/P0HBeAFbfB96Gz
C2la5xJrSR8KhIhwGXMWvhzNtODnvwRhutpE61JBeka4jgKDwXUFYNBsDnV9Up75
OBfeqMxc3eYCi/UwQxxamI/Dwdlf5m9u8XTW3otfi841ivRYig5r2pfNimqxf4NO
fK62eI5R6Ek00Wjj0L9bsxda4NeUIBIme50Z+h4WZWXhVLv5T55j2twQ3LCbCSTV
C5eD6yyzHhVQOJMGWowREmMhMZHDfL9U7SwvvPdjpDg2XPO7cT0NFfZavEzueFAx
YUC/RSjStS/BCK++1gMAzxlp46CwkuwmQl4CpdEtz7hj386zImwa012JFZrEd5jN
lX8CAwEAAaNjMGEwHQYDVR0OBBYEFKpx07GKS7tHFUdfm9AradFvhV72MB8GA1Ud
IwQYMBaAFKpx07GKS7tHFUdfm9AradFvhV72MA8GA1UdEwEB/wQFMAMBAf8wDgYD
VR0PAQH/BAQDAgGGMD4GCSqGSIb3DQEBCjAxoA0wCwYJYIZIAWUDBAICoRowGAYJ
KoZIhvcNAQEIMAsGCWCGSAFlAwQCAqIEAgIBTgOCAYEAFExmKGqwl6EeK0W8Q0cr
QvVHSwcCUdBtjo4Bci8Qcmz/+1lGon3OoRH6nlRAVHfQFcnONhUIxiTSnEXvJr/2
Hq3j3s3Vh7vnbJthJFrsXFfcsvF0PR22D5ezZZvC4LAGxwARwLjoS8TU/wxUu3ty
97ZSLBke3iGSV/IUdbri+UvX277P9p4tZXf4/F1obhplgaHioj9eovbBQksthLPC
aJ2u70j3zvDAGGu5J7ofobWny/KWmbgHPhoK1d3ulU6YoD64M4i5+Bxbm3b6K5CO
qZVHscziZ17dnUH5UEP3lfuKRYrPm2Pqqu84A1ZNsXMHOagBp3iDWkMJCH2sfmN0
AbsWTw0yaz+yk8gh0gtFCwJ4UF/yOWdJGqv46QTAj18hkgiwqF5dJnBDkiE8QgK2
gKJFpWrw/rt2YHuyCpslpO39nhV55Vq3bhEJ02hzsezWMIdmP90OkgsBBR4Os1aT
lh9LCi6pXM1UXXFUIijbiyiwuKge8dpgJYFThZ/Qhk46
-----END CERTIFICATE-----
