Certificate:
    Data:
        Version: 3 (0x2)
        Serial Number:
            59:97:7c:29:94:e1:4d:a1:1e:91:68:90:e6:67:3e:26:13:f9:6c:ac
        Signature Algorithm: rsassaPss         
         Hash Algorithm: sha256
         Mask Algorithm: mgf1 with sha256
          Salt Length: 0x20
         Trailer Field: 0xBC (default)
        Issuer: C = US, ST = Montana, L = Bozeman, O = wolfSSL_RSA-PSS, OU = Root-RSA-PSS, CN = www.wolfssl.com, emailAddress = info@wolfssl.com
        Validity
            Not Before: Dec 16 21:17:49 2022 GMT
            Not After : Sep 11 21:17:49 2025 GMT
        Subject: C = US, ST = Montana, L = Bozeman, O = wolfSSL_RSA-PSS, OU = Root-RSA-PSS, CN = www.wolfssl.com, emailAddress = info@wolfssl.com
        Subject Public Key Info:
            Public Key Algorithm: rsassaPss
                RSA-PSS Public-Key: (2048 bit)
                Modulus:
                    00:99:0a:01:b6:d1:40:7b:0c:ae:17:7e:e1:5c:8d:
                    fb:6b:cc:8f:06:51:75:e6:f0:97:ce:2f:76:fa:31:
                    bd:ef:79:b2:2e:e4:b5:11:1f:cb:29:ad:17:ee:32:
                    29:04:9a:9a:15:43:4c:e7:67:b8:0e:78:cf:eb:de:
                    38:6b:42:39:65:90:19:e0:5b:94:8e:e8:e2:18:4b:
                    c5:d2:6e:d6:78:f0:89:c3:d9:b0:dc:16:7e:68:72:
                    b5:0a:1b:ce:b2:24:8c:a0:c7:fc:c6:d8:72:ac:b7:
                    78:c3:05:7a:d7:78:aa:7c:ab:ac:8c:af:0a:d7:eb:
                    4b:b5:2c:40:dd:be:5a:4a:4d:6d:93:02:69:e2:08:
                    e5:97:a9:40:6e:18:38:6d:ef:8e:27:e3:58:fb:f3:
                    9b:f1:19:f9:90:9a:46:8e:27:96:68:ff:76:c3:36:
                    e3:73:e2:eb:cd:00:97:35:e9:64:cd:3b:0d:e3:f2:
                    02:fb:80:aa:dd:55:e1:2d:10:3f:08:62:be:ab:dc:
                    48:0c:85:b5:5e:fb:12:c9:9e:c0:bb:f1:0a:18:6c:
                    15:f9:e7:44:4a:15:09:73:49:d8:0c:96:f7:dc:d0:
                    02:62:ca:91:81:f4:b2:3c:ba:25:a9:98:84:d0:75:
                    2a:b1:7f:8f:9d:f8:ca:96:e0:82:94:e3:8a:b3:f6:
                    ef:f5
                Exponent: 65537 (0x10001)
                PSS parameter restrictions:
                  Hash Algorithm: sha256
                  Mask Algorithm: mgf1 with sha256
                  Minimum Salt Length: 0x20
                  Trailer Field: 0xBC (default)
        X509v3 extensions:
            X509v3 Subject Key Identifier: 
                64:D5:EC:82:87:80:DE:5A:ED:49:98:D8:0C:54:7D:46:9E:A5:3C:D6
            X509v3 Authority Key Identifier: 
                keyid:64:D5:EC:82:87:80:DE:5A:ED:49:98:D8:0C:54:7D:46:9E:A5:3C:D6

            X509v3 Basic Constraints: critical
                CA:TRUE
            X509v3 Key Usage: critical
                Digital Signature, Certificate Sign, CRL Sign
    Signature Algorithm: rsassaPss         
         Hash Algorithm: sha256
         Mask Algorithm: mgf1 with sha256
          Salt Length: 0x20
         Trailer Field: 0xBC (default)

         08:08:92:4e:3c:fb:9e:5d:3e:b3:5d:31:d0:4d:00:7d:1c:dd:
         28:e1:dd:e9:2c:24:35:43:8b:e4:8d:48:fd:63:9f:ef:a7:c7:
         a7:df:ea:2b:e2:17:7a:b8:2f:79:e3:15:00:68:63:d7:64:82:
         00:67:e1:d6:4b:d7:b3:e6:f7:dd:48:3e:64:9e:74:51:0f:d0:
         83:df:91:5c:6e:99:e8:4c:d1:61:0e:83:84:01:78:85:45:b3:
         d3:f2:b9:d5:39:02:38:ed:ac:1a:fa:b1:60:08:a5:9b:ea:c9:
         39:f7:fa:23:3c:34:4b:36:e1:99:cf:1b:ce:36:ea:30:9b:df:
         b4:9a:8e:65:d2:62:ba:28:e0:24:db:28:2c:d5:76:28:e0:3f:
         eb:e3:0c:32:c3:75:e0:4c:30:83:9b:49:b5:0a:c3:68:8f:5e:
         ea:1e:14:a9:92:5b:e9:24:7b:da:47:94:b2:a1:98:6d:b0:e3:
         35:fb:ae:c3:d8:24:b4:24:6b:64:8d:38:7b:0b:0e:aa:59:ee:
         68:05:4b:af:33:45:6d:7e:c3:27:8b:99:8e:56:ed:35:d2:a7:
         6a:67:db:c0:f7:03:00:a4:5c:ca:5f:ea:fb:20:15:01:43:9f:
         5d:4e:7e:30:08:37:fd:6e:12:7e:d6:37:2e:58:2f:9c:3e:c3:
         bd:e8:bb:e1
-----BEGIN CERTIFICATE-----
MIIEvTCCA3WgAwIBAgIUWZd8KZThTaEekWiQ5mc+JhP5bKwwPQYJKoZIhvcNAQEK
MDCgDTALBglghkgBZQMEAgGhGjAYBgkqhkiG9w0BAQgwCwYJYIZIAWUDBAIBogMC
ASAwgZ0xCzAJBgNVBAYTAlVTMRAwDgYDVQQIDAdNb250YW5hMRAwDgYDVQQHDAdC
b3plbWFuMRgwFgYDVQQKDA93b2xmU1NMX1JTQS1QU1MxFTATBgNVBAsMDFJvb3Qt
UlNBLVBTUzEYMBYGA1UEAwwPd3d3LndvbGZzc2wuY29tMR8wHQYJKoZIhvcNAQkB
FhBpbmZvQHdvbGZzc2wuY29tMB4XDTIyMTIxNjIxMTc0OVoXDTI1MDkxMTIxMTc0
OVowgZ0xCzAJBgNVBAYTAlVTMRAwDgYDVQQIDAdNb250YW5hMRAwDgYDVQQHDAdC
b3plbWFuMRgwFgYDVQQKDA93b2xmU1NMX1JTQS1QU1MxFTATBgNVBAsMDFJvb3Qt
UlNBLVBTUzEYMBYGA1UEAwwPd3d3LndvbGZzc2wuY29tMR8wHQYJKoZIhvcNAQkB
FhBpbmZvQHdvbGZzc2wuY29tMIIBUjA9BgkqhkiG9w0BAQowMKANMAsGCWCGSAFl
AwQCAaEaMBgGCSqGSIb3DQEBCDALBglghkgBZQMEAgGiAwIBIAOCAQ8AMIIBCgKC
AQEAmQoBttFAewyuF37hXI37a8yPBlF15vCXzi92+jG973myLuS1ER/LKa0X7jIp
BJqaFUNM52e4DnjP6944a0I5ZZAZ4FuUjujiGEvF0m7WePCJw9mw3BZ+aHK1ChvO
siSMoMf8xthyrLd4wwV613iqfKusjK8K1+tLtSxA3b5aSk1tkwJp4gjll6lAbhg4
be+OJ+NY+/Ob8Rn5kJpGjieWaP92wzbjc+LrzQCXNelkzTsN4/IC+4Cq3VXhLRA/
CGK+q9xIDIW1XvsSyZ7Au/EKGGwV+edEShUJc0nYDJb33NACYsqRgfSyPLolqZiE
0HUqsX+PnfjKluCClOOKs/bv9QIDAQABo2MwYTAdBgNVHQ4EFgQUZNXsgoeA3lrt
SZjYDFR9Rp6lPNYwHwYDVR0jBBgwFoAUZNXsgoeA3lrtSZjYDFR9Rp6lPNYwDwYD
VR0TAQH/BAUwAwEB/zAOBgNVHQ8BAf8EBAMCAYYwPQYJKoZIhvcNAQEKMDCgDTAL
BglghkgBZQMEAgGhGjAYBgkqhkiG9w0BAQgwCwYJYIZIAWUDBAIBogMCASADggEB
AAgIkk48+55dPrNdMdBNAH0c3Sjh3eksJDVDi+SNSP1jn++nx6ff6iviF3q4L3nj
FQBoY9dkggBn4dZL17Pm991IPmSedFEP0IPfkVxumehM0WEOg4QBeIVFs9PyudU5
AjjtrBr6sWAIpZvqyTn3+iM8NEs24ZnPG8426jCb37SajmXSYroo4CTbKCzVdijg
P+vjDDLDdeBMMIObSbUKw2iPXuoeFKmSW+kke9pHlLKhmG2w4zX7rsPYJLQka2SN
OHsLDqpZ7mgFS68zRW1+wyeLmY5W7TXSp2pn28D3AwCkXMpf6vsgFQFDn11OfjAI
N/1uEn7WNy5YL5w+w73ou+E=
-----END CERTIFICATE-----
