Certificate:
    Data:
        Version: 3 (0x2)
        Serial Number: 1 (0x1)
        Signature Algorithm: rsassaPss         
         Hash Algorithm: sha256
         Mask Algorithm: mgf1 with sha256
          Salt Length: 0x20
         Trailer Field: 0xBC (default)
        Issuer: C = US, ST = Montana, L = Bozeman, O = wolfSSL_RSAPSS, OU = CA-RSAPSS, CN = www.wolfssl.com, emailAddress = info@wolfssl.com, UID = wolfSSL
        Validity
            Not Before: Dec 16 21:17:49 2022 GMT
            Not After : Sep 11 21:17:49 2025 GMT
        Subject: C = US, ST = Montana, L = Bozeman, O = wolfSSL_RSAPSS, OU = Server-RSAPSS, CN = www.wolfssl.com, emailAddress = info@wolfssl.com, UID = wolfSSL
        Subject Public Key Info:
            Public Key Algorithm: rsassaPss
                RSA-PSS Public-Key: (2048 bit)
                Modulus:
                    00:d7:f7:6c:e1:02:89:cc:9b:74:10:f3:ec:01:cb:
                    89:ce:ef:f6:29:62:fc:75:3f:6a:99:ba:d6:88:ec:
                    ae:b3:20:33:44:d2:06:d7:99:21:bb:f3:40:ce:30:
                    b0:e1:90:4c:5b:58:75:54:1d:a2:dd:bc:63:01:48:
                    43:3b:22:7a:78:2a:65:5b:d8:11:5f:9b:7b:db:21:
                    1c:bc:f4:a5:ad:3e:d6:07:41:da:04:1f:ea:78:ec:
                    57:f3:53:fd:49:2b:5e:0e:34:02:3b:5e:3e:5f:dc:
                    63:da:d4:68:26:1a:61:c9:25:d7:53:16:e7:fb:c0:
                    a5:2d:59:36:7b:e9:c7:42:cb:9b:15:81:fd:d4:0f:
                    c5:b7:c6:49:c0:45:77:ea:5b:ac:ca:1e:a5:9c:c1:
                    86:1b:f2:9e:ed:66:a0:d1:3b:b6:6f:02:54:69:30:
                    0d:ba:55:01:18:c0:5f:7d:b2:ee:a6:bd:89:84:fc:
                    e8:36:e4:bb:d3:b4:9e:dd:b3:a6:80:32:12:37:30:
                    8e:0a:89:54:c5:eb:4b:1c:85:02:2b:f8:26:63:c4:
                    23:f8:59:35:18:0e:28:cf:5d:07:49:d8:cc:60:4d:
                    3b:fb:27:24:f0:d6:46:0f:c5:5b:16:a5:94:8a:69:
                    1a:34:62:cd:e0:32:32:55:b9:16:65:50:11:8b:5e:
                    36:83
                Exponent: 65537 (0x10001)
                PSS parameter restrictions:
                  Hash Algorithm: sha256
                  Mask Algorithm: mgf1 with sha256
                  Minimum Salt Length: 0x20
                  Trailer Field: 0xBC (default)
        X509v3 extensions:
            X509v3 Subject Key Identifier: 
                2D:07:69:B0:A1:6F:9F:0C:FA:25:05:B2:CA:97:08:44:DF:0E:97:A8
            X509v3 Authority Key Identifier: 
                keyid:9E:0C:E0:D3:DF:B6:4B:F3:19:63:5C:CA:6C:93:86:A2:14:53:91:31

            X509v3 Basic Constraints: critical
                CA:FALSE
            X509v3 Key Usage: critical
                Digital Signature, Key Encipherment, Key Agreement
            X509v3 Extended Key Usage: 
                TLS Web Server Authentication
            Netscape Cert Type: 
                SSL Server
    Signature Algorithm: rsassaPss         
         Hash Algorithm: sha256
         Mask Algorithm: mgf1 with sha256
          Salt Length: 0x20
         Trailer Field: 0xBC (default)

         a3:9a:85:01:f5:22:c0:a3:8e:80:da:04:5e:a3:51:71:97:ba:
         77:9f:96:19:33:6d:52:9e:ff:ce:05:a3:a6:87:05:d4:24:13:
         91:1e:75:0b:af:d7:6c:0c:75:d9:63:27:a1:9b:1b:fd:f9:16:
         70:fc:a1:f7:03:ad:e4:5f:f0:52:66:f8:b2:b6:4e:39:85:c6:
         d3:8f:90:7f:de:21:a2:ef:9b:64:a2:77:a7:f2:82:02:4e:da:
         93:4d:53:de:0c:26:fb:b9:87:05:8c:32:d2:96:b3:ab:58:ef:
         ba:7c:f8:f6:0d:a5:82:ca:18:4e:21:77:ec:bc:9a:e6:68:e9:
         bc:7d:65:27:ad:cd:4b:e1:09:8c:aa:10:76:d1:98:31:89:67:
         8f:c9:ed:78:cd:a5:33:0a:8a:b4:86:48:fe:e9:47:7a:59:fa:
         91:56:5f:9c:72:35:a8:3a:63:7b:3f:7b:9b:a0:1b:e1:c5:69:
         b3:0d:90:8b:4d:eb:3f:26:63:4c:bd:10:0d:c4:63:4c:45:4e:
         f7:80:f8:e7:8a:24:4b:ee:7c:88:1b:b9:6c:33:57:de:14:7a:
         48:ee:85:58:5a:94:6e:64:68:3c:b8:9f:76:da:15:0e:96:41:
         0b:e7:54:04:f6:49:ed:94:8d:fc:0d:08:e2:28:5d:e2:1a:13:
         3d:73:f6:eb
-----BEGIN CERTIFICATE-----
MIIE/zCCA7egAwIBAgIBATA9BgkqhkiG9w0BAQowMKANMAsGCWCGSAFlAwQCAaEa
MBgGCSqGSIb3DQEBCDALBglghkgBZQMEAgGiAwIBIDCBsjELMAkGA1UEBhMCVVMx
EDAOBgNVBAgMB01vbnRhbmExEDAOBgNVBAcMB0JvemVtYW4xFzAVBgNVBAoMDndv
bGZTU0xfUlNBUFNTMRIwEAYDVQQLDAlDQS1SU0FQU1MxGDAWBgNVBAMMD3d3dy53
b2xmc3NsLmNvbTEfMB0GCSqGSIb3DQEJARYQaW5mb0B3b2xmc3NsLmNvbTEXMBUG
CgmSJomT8ixkAQEMB3dvbGZTU0wwHhcNMjIxMjE2MjExNzQ5WhcNMjUwOTExMjEx
NzQ5WjCBtjELMAkGA1UEBhMCVVMxEDAOBgNVBAgMB01vbnRhbmExEDAOBgNVBAcM
B0JvemVtYW4xFzAVBgNVBAoMDndvbGZTU0xfUlNBUFNTMRYwFAYDVQQLDA1TZXJ2
ZXItUlNBUFNTMRgwFgYDVQQDDA93d3cud29sZnNzbC5jb20xHzAdBgkqhkiG9w0B
CQEWEGluZm9Ad29sZnNzbC5jb20xFzAVBgoJkiaJk/IsZAEBDAd3b2xmU1NMMIIB
UjA9BgkqhkiG9w0BAQowMKANMAsGCWCGSAFlAwQCAaEaMBgGCSqGSIb3DQEBCDAL
BglghkgBZQMEAgGiAwIBIAOCAQ8AMIIBCgKCAQEA1/ds4QKJzJt0EPPsAcuJzu/2
KWL8dT9qmbrWiOyusyAzRNIG15khu/NAzjCw4ZBMW1h1VB2i3bxjAUhDOyJ6eCpl
W9gRX5t72yEcvPSlrT7WB0HaBB/qeOxX81P9SSteDjQCO14+X9xj2tRoJhphySXX
Uxbn+8ClLVk2e+nHQsubFYH91A/Ft8ZJwEV36lusyh6lnMGGG/Ke7Wag0Tu2bwJU
aTANulUBGMBffbLupr2JhPzoNuS707Se3bOmgDISNzCOColUxetLHIUCK/gmY8Qj
+Fk1GA4oz10HSdjMYE07+yck8NZGD8VbFqWUimkaNGLN4DIyVbkWZVARi142gwID
AQABo4GJMIGGMB0GA1UdDgQWBBQtB2mwoW+fDPolBbLKlwhE3w6XqDAfBgNVHSME
GDAWgBSeDODT37ZL8xljXMpsk4aiFFORMTAMBgNVHRMBAf8EAjAAMA4GA1UdDwEB
/wQEAwIDqDATBgNVHSUEDDAKBggrBgEFBQcDATARBglghkgBhvhCAQEEBAMCBkAw
PQYJKoZIhvcNAQEKMDCgDTALBglghkgBZQMEAgGhGjAYBgkqhkiG9w0BAQgwCwYJ
YIZIAWUDBAIBogMCASADggEBAKOahQH1IsCjjoDaBF6jUXGXuneflhkzbVKe/84F
o6aHBdQkE5EedQuv12wMddljJ6GbG/35FnD8ofcDreRf8FJm+LK2TjmFxtOPkH/e
IaLvm2Sid6fyggJO2pNNU94MJvu5hwWMMtKWs6tY77p8+PYNpYLKGE4hd+y8muZo
6bx9ZSetzUvhCYyqEHbRmDGJZ4/J7XjNpTMKirSGSP7pR3pZ+pFWX5xyNag6Y3s/
e5ugG+HFabMNkItN6z8mY0y9EA3EY0xFTveA+OeKJEvufIgbuWwzV94UekjuhVha
lG5kaDy4n3baFQ6WQQvnVAT2Se2UjfwNCOIoXeIaEz1z9us=
-----END CERTIFICATE-----
