Certificate:
    Data:
        Version: 3 (0x2)
        Serial Number: 1 (0x1)
        Signature Algorithm: rsassaPss         
         Hash Algorithm: sha256
         Mask Algorithm: mgf1 with sha256
          Salt Length: 0xDE
         Trailer Field: 0xBC (default)
        Issuer: C = US, ST = Montana, L = Bozeman, O = Sawtooth, OU = Consulting, CN = www.wolfssl.com, emailAddress = info@wolfssl.com
        Validity
            Not Before: Dec 16 21:17:49 2022 GMT
            Not After : Sep 11 21:17:49 2025 GMT
        Subject: C = US, ST = Montana, L = Bozeman, O = wolfSSL_RSAPSS, OU = Server-MIX-RSAPSS, CN = www.wolfssl.com, emailAddress = info@wolfssl.com, UID = wolfSSL
        Subject Public Key Info:
            Public Key Algorithm: rsaEncryption
                RSA Public-Key: (2048 bit)
                Modulus:
                    00:c0:95:08:e1:57:41:f2:71:6d:b7:d2:45:41:27:
                    01:65:c6:45:ae:f2:bc:24:30:b8:95:ce:2f:4e:d6:
                    f6:1c:88:bc:7c:9f:fb:a8:67:7f:fe:5c:9c:51:75:
                    f7:8a:ca:07:e7:35:2f:8f:e1:bd:7b:c0:2f:7c:ab:
                    64:a8:17:fc:ca:5d:7b:ba:e0:21:e5:72:2e:6f:2e:
                    86:d8:95:73:da:ac:1b:53:b9:5f:3f:d7:19:0d:25:
                    4f:e1:63:63:51:8b:0b:64:3f:ad:43:b8:a5:1c:5c:
                    34:b3:ae:00:a0:63:c5:f6:7f:0b:59:68:78:73:a6:
                    8c:18:a9:02:6d:af:c3:19:01:2e:b8:10:e3:c6:cc:
                    40:b4:69:a3:46:33:69:87:6e:c4:bb:17:a6:f3:e8:
                    dd:ad:73:bc:7b:2f:21:b5:fd:66:51:0c:bd:54:b3:
                    e1:6d:5f:1c:bc:23:73:d1:09:03:89:14:d2:10:b9:
                    64:c3:2a:d0:a1:96:4a:bc:e1:d4:1a:5b:c7:a0:c0:
                    c1:63:78:0f:44:37:30:32:96:80:32:23:95:a1:77:
                    ba:13:d2:97:73:e2:5d:25:c9:6a:0d:c3:39:60:a4:
                    b4:b0:69:42:42:09:e9:d8:08:bc:33:20:b3:58:22:
                    a7:aa:eb:c4:e1:e6:61:83:c5:d2:96:df:d9:d0:4f:
                    ad:d7
                Exponent: 65537 (0x10001)
        X509v3 extensions:
            X509v3 Subject Key Identifier: 
                B3:11:32:C9:92:98:84:E2:C9:F8:D0:3B:6E:03:42:CA:1F:0E:8E:3C
            X509v3 Authority Key Identifier: 
                keyid:27:8E:67:11:74:C3:26:1D:3F:ED:33:63:B3:A4:D8:1D:30:E5:E8:D5

            X509v3 Basic Constraints: critical
                CA:FALSE
            X509v3 Key Usage: critical
                Digital Signature, Key Encipherment, Key Agreement
            X509v3 Extended Key Usage: 
                TLS Web Server Authentication
            Netscape Cert Type: 
                SSL Server
    Signature Algorithm: rsassaPss         
         Hash Algorithm: sha256
         Mask Algorithm: mgf1 with sha256
          Salt Length: 0xDE
         Trailer Field: 0xBC (default)

         3c:41:e4:e3:a2:f2:8d:f7:ba:f3:c3:51:c6:b2:71:2d:d4:4d:
         c3:10:b1:0c:1b:c2:e5:cd:48:13:a9:2f:cc:13:f3:db:25:85:
         c3:83:0a:77:00:ff:16:58:c0:2a:12:20:11:5a:86:87:db:1e:
         47:ac:9d:c5:7c:87:c3:13:79:c8:ea:35:33:a0:a3:bf:d5:64:
         09:5b:60:45:e9:b1:a4:3c:9a:31:14:fb:76:ae:ef:3c:56:cc:
         9b:3d:de:74:16:ac:5f:9b:f2:1b:28:8f:fe:d6:0a:4f:bc:72:
         c2:23:c6:c5:da:c2:aa:80:ac:90:c4:31:93:99:f5:c7:c1:cc:
         ec:09:45:02:90:4e:b3:47:59:f6:80:6c:c0:bb:66:f7:fb:e1:
         16:56:7b:6e:ef:e6:b6:93:e5:95:d4:e3:76:c0:de:64:6b:1c:
         72:0d:0d:7b:85:2f:b4:e2:9e:01:44:6f:85:53:30:78:bf:c3:
         4e:33:21:0b:f9:a6:66:85:a0:ef:60:8d:07:7d:ac:fb:3c:11:
         aa:f9:7f:5b:f9:0e:af:27:d4:a9:fb:b2:b3:fe:8d:4c:d0:9f:
         83:9a:79:32:7f:b2:11:af:b5:35:a3:62:4a:4a:03:c8:cd:f0:
         f7:5e:98:9d:5e:d0:7f:e9:cf:8a:1f:bd:28:c7:25:8e:7b:63:
         30:83:6c:00
-----BEGIN CERTIFICATE-----
MIIEtzCCA26gAwIBAgIBATA+BgkqhkiG9w0BAQowMaANMAsGCWCGSAFlAwQCAaEa
MBgGCSqGSIb3DQEBCDALBglghkgBZQMEAgGiBAICAN4wgZQxCzAJBgNVBAYTAlVT
MRAwDgYDVQQIDAdNb250YW5hMRAwDgYDVQQHDAdCb3plbWFuMREwDwYDVQQKDAhT
YXd0b290aDETMBEGA1UECwwKQ29uc3VsdGluZzEYMBYGA1UEAwwPd3d3LndvbGZz
c2wuY29tMR8wHQYJKoZIhvcNAQkBFhBpbmZvQHdvbGZzc2wuY29tMB4XDTIyMTIx
NjIxMTc0OVoXDTI1MDkxMTIxMTc0OVowgboxCzAJBgNVBAYTAlVTMRAwDgYDVQQI
DAdNb250YW5hMRAwDgYDVQQHDAdCb3plbWFuMRcwFQYDVQQKDA53b2xmU1NMX1JT
QVBTUzEaMBgGA1UECwwRU2VydmVyLU1JWC1SU0FQU1MxGDAWBgNVBAMMD3d3dy53
b2xmc3NsLmNvbTEfMB0GCSqGSIb3DQEJARYQaW5mb0B3b2xmc3NsLmNvbTEXMBUG
CgmSJomT8ixkAQEMB3dvbGZTU0wwggEiMA0GCSqGSIb3DQEBAQUAA4IBDwAwggEK
AoIBAQDAlQjhV0HycW230kVBJwFlxkWu8rwkMLiVzi9O1vYciLx8n/uoZ3/+XJxR
dfeKygfnNS+P4b17wC98q2SoF/zKXXu64CHlci5vLobYlXParBtTuV8/1xkNJU/h
Y2NRiwtkP61DuKUcXDSzrgCgY8X2fwtZaHhzpowYqQJtr8MZAS64EOPGzEC0aaNG
M2mHbsS7F6bz6N2tc7x7LyG1/WZRDL1Us+FtXxy8I3PRCQOJFNIQuWTDKtChlkq8
4dQaW8egwMFjeA9ENzAyloAyI5Whd7oT0pdz4l0lyWoNwzlgpLSwaUJCCenYCLwz
ILNYIqeq68Th5mGDxdKW39nQT63XAgMBAAGjgYkwgYYwHQYDVR0OBBYEFLMRMsmS
mITiyfjQO24DQsofDo48MB8GA1UdIwQYMBaAFCeOZxF0wyYdP+0zY7Ok2B0w5ejV
MAwGA1UdEwEB/wQCMAAwDgYDVR0PAQH/BAQDAgOoMBMGA1UdJQQMMAoGCCsGAQUF
BwMBMBEGCWCGSAGG+EIBAQQEAwIGQDA+BgkqhkiG9w0BAQowMaANMAsGCWCGSAFl
AwQCAaEaMBgGCSqGSIb3DQEBCDALBglghkgBZQMEAgGiBAICAN4DggEBADxB5OOi
8o33uvPDUcaycS3UTcMQsQwbwuXNSBOpL8wT89slhcODCncA/xZYwCoSIBFahofb
HkesncV8h8MTecjqNTOgo7/VZAlbYEXpsaQ8mjEU+3au7zxWzJs93nQWrF+b8hso
j/7WCk+8csIjxsXawqqArJDEMZOZ9cfBzOwJRQKQTrNHWfaAbMC7Zvf74RZWe27v
5raT5ZXU43bA3mRrHHINDXuFL7TingFEb4VTMHi/w04zIQv5pmaFoO9gjQd9rPs8
Ear5f1v5Dq8n1Kn7srP+jUzQn4OaeTJ/shGvtTWjYkpKA8jN8PdemJ1e0H/pz4of
vSjHJY57YzCDbAA=
-----END CERTIFICATE-----
