Certificate:
    Data:
        Version: 3 (0x2)
        Serial Number: 1 (0x1)
        Signature Algorithm: rsassaPss         
         Hash Algorithm: sha384
         Mask Algorithm: mgf1 with sha384
          Salt Length: 0x014E
         Trailer Field: 0xBC (default)
        Issuer: C = US, ST = Montana, L = Bozeman, O = wolfSSL_RSAPSS, OU = CA-RSAPSS, CN = www.wolfssl.com, emailAddress = info@wolfssl.com, UID = wolfSSL
        Validity
            Not Before: Dec 16 21:17:49 2022 GMT
            Not After : Sep 11 21:17:49 2025 GMT
        Subject: C = US, ST = Montana, L = Bozeman, O = wolfSSL_RSAPSS, OU = Server-RSAPSS, CN = www.wolfssl.com, emailAddress = info@wolfssl.com, UID = wolfSSL
        Subject Public Key Info:
            Public Key Algorithm: rsassaPss
                RSA-PSS Public-Key: (3072 bit)
                Modulus:
                    00:be:84:78:d3:6b:7d:b2:ae:51:88:68:6a:33:f1:
                    f9:c5:1a:6f:97:71:94:22:f4:c2:f0:49:88:2b:a4:
                    4d:15:6f:db:cc:d4:c6:6f:75:a6:e2:22:06:af:91:
                    26:4e:a0:2d:97:17:95:0b:40:1a:75:23:9b:b1:e0:
                    d7:5d:cc:0d:5f:09:9e:c9:b7:3d:f8:e5:62:bb:34:
                    75:99:0c:e6:da:7d:95:40:ee:5f:27:76:f9:ca:d6:
                    0d:1e:a7:06:9f:c5:75:57:96:44:b9:73:f4:de:aa:
                    a9:af:be:4b:98:f3:6c:c8:da:d9:a2:26:35:21:40:
                    e7:67:4b:e2:d9:c4:4f:b8:96:54:17:59:d8:ca:af:
                    b1:56:47:be:15:5b:05:d3:29:cc:ec:2b:99:fa:13:
                    1a:2a:d0:61:d1:41:c2:27:5d:d9:a7:f2:29:28:eb:
                    fb:e5:89:c5:01:83:88:1d:dc:70:1a:8f:2f:3b:e5:
                    34:e8:5b:ef:ed:76:5f:8a:51:ea:2d:92:c2:e6:86:
                    6d:6a:92:93:c3:6d:04:c5:95:68:07:fe:9a:32:d9:
                    38:c8:06:eb:33:92:b9:0b:ce:2e:c3:6b:6a:a2:41:
                    6a:ce:09:e7:4a:90:a8:2f:59:0e:76:dc:4f:b8:86:
                    d0:4b:95:e6:1b:e4:c6:59:26:ef:1c:00:4e:ce:fb:
                    cf:63:05:7e:a6:d4:09:39:fe:d3:79:49:f2:6a:6a:
                    1a:17:cb:13:a5:3d:d9:fa:b0:a4:5f:18:e8:e5:5c:
                    4b:38:d5:d8:b8:76:35:a0:0b:e1:98:b9:58:c3:88:
                    e5:f8:4a:e6:d0:84:a3:5e:4d:85:c9:d6:7f:9d:9f:
                    35:28:66:56:04:25:cc:1b:4c:f7:e3:cb:39:be:e0:
                    5f:a8:93:bd:a1:0b:cd:63:e0:16:07:af:40:0b:cb:
                    6e:3f:81:0c:cd:80:bf:13:f1:92:57:a1:48:17:d2:
                    29:b0:5a:a2:d5:42:84:c8:6c:09:31:c6:05:92:dd:
                    a3:f7:56:ed:e7:5f:29:88:eb:4b
                Exponent: 65537 (0x10001)
                No PSS parameter restrictions
        X509v3 extensions:
            X509v3 Subject Key Identifier: 
                C8:F1:E9:1E:60:01:C8:23:CC:D7:98:B3:BB:65:7A:32:C4:4B:93:39
            X509v3 Authority Key Identifier: 
                keyid:F8:42:CC:88:C9:C8:18:F9:D3:B0:24:65:06:4C:FF:55:AB:BF:0E:7F

            X509v3 Basic Constraints: critical
                CA:FALSE
            X509v3 Key Usage: critical
                Digital Signature, Key Encipherment, Key Agreement
            X509v3 Extended Key Usage: 
                TLS Web Server Authentication
            Netscape Cert Type: 
                SSL Server
    Signature Algorithm: rsassaPss         
         Hash Algorithm: sha384
         Mask Algorithm: mgf1 with sha384
          Salt Length: 0x014E
         Trailer Field: 0xBC (default)

         a3:6f:52:58:b0:d4:8f:e5:95:ec:7d:25:a7:67:a2:a1:2a:5f:
         11:aa:8c:cb:62:fc:75:e2:78:7d:ee:3b:ec:ac:30:80:3b:c5:
         b7:7b:ce:6e:e3:91:ea:54:d4:cd:e5:07:55:f2:10:e8:e8:86:
         68:e8:01:c0:53:ca:b3:7f:7b:79:e6:31:82:aa:e9:02:c5:ca:
         e4:f2:df:a6:5a:99:f1:bc:59:3d:4c:b2:bc:92:e6:15:4a:49:
         0b:b6:10:ca:12:48:03:d9:b7:87:d0:f8:ba:c9:c3:c2:fc:29:
         8a:a7:c1:4c:26:42:9f:1a:ce:f3:31:a2:4a:f7:25:8c:ed:40:
         71:77:7b:06:cc:4c:6f:bb:4e:34:c4:b5:e2:24:06:56:f3:ef:
         9b:05:78:5a:e3:f3:c2:42:f4:eb:3e:28:f6:88:29:68:65:61:
         60:d2:61:ac:a1:4e:ec:6a:c1:15:87:1a:8c:06:2d:34:e7:66:
         bf:4f:5d:4d:23:46:33:67:2b:1d:97:f2:9a:e6:2e:90:1b:87:
         93:03:2d:51:d8:7d:3d:0e:59:8a:30:34:8b:b2:09:92:99:03:
         b7:ad:a4:c5:ad:6d:bb:e6:5e:c2:e4:86:d2:63:3b:c8:8e:0a:
         a3:39:bd:9c:e9:a5:cf:65:65:85:8e:08:8e:d9:85:36:3e:1d:
         c6:66:3a:6d:a6:9d:be:e0:d8:e9:dd:17:1c:df:75:04:3e:24:
         a9:c0:19:17:a1:ef:6e:db:a6:bd:fc:1d:99:8d:11:0c:3c:5b:
         44:b0:da:f4:0a:e2:c6:39:13:5f:f1:6a:20:ae:07:07:41:95:
         d4:10:92:b4:32:01:27:74:ef:aa:97:0e:9f:73:67:29:5c:40:
         d2:5b:31:bb:c5:70:c0:c3:b6:7b:39:c4:76:b8:ec:67:c9:0a:
         bd:d3:dc:c8:4f:41:62:5e:46:3a:d4:e6:65:12:4d:c0:7e:68:
         6c:9d:6a:ec:4f:da:e3:b3:94:58:be:ad:b6:85:01:e3:94:a4:
         4b:7d:28:00:0e:f3
-----BEGIN CERTIFICATE-----
MIIFzzCCBAagAwIBAgIBATA+BgkqhkiG9w0BAQowMaANMAsGCWCGSAFlAwQCAqEa
MBgGCSqGSIb3DQEBCDALBglghkgBZQMEAgKiBAICAU4wgbIxCzAJBgNVBAYTAlVT
MRAwDgYDVQQIDAdNb250YW5hMRAwDgYDVQQHDAdCb3plbWFuMRcwFQYDVQQKDA53
b2xmU1NMX1JTQVBTUzESMBAGA1UECwwJQ0EtUlNBUFNTMRgwFgYDVQQDDA93d3cu
d29sZnNzbC5jb20xHzAdBgkqhkiG9w0BCQEWEGluZm9Ad29sZnNzbC5jb20xFzAV
BgoJkiaJk/IsZAEBDAd3b2xmU1NMMB4XDTIyMTIxNjIxMTc0OVoXDTI1MDkxMTIx
MTc0OVowgbYxCzAJBgNVBAYTAlVTMRAwDgYDVQQIDAdNb250YW5hMRAwDgYDVQQH
DAdCb3plbWFuMRcwFQYDVQQKDA53b2xmU1NMX1JTQVBTUzEWMBQGA1UECwwNU2Vy
dmVyLVJTQVBTUzEYMBYGA1UEAwwPd3d3LndvbGZzc2wuY29tMR8wHQYJKoZIhvcN
AQkBFhBpbmZvQHdvbGZzc2wuY29tMRcwFQYKCZImiZPyLGQBAQwHd29sZlNTTDCC
AaAwCwYJKoZIhvcNAQEKA4IBjwAwggGKAoIBgQC+hHjTa32yrlGIaGoz8fnFGm+X
cZQi9MLwSYgrpE0Vb9vM1MZvdabiIgavkSZOoC2XF5ULQBp1I5ux4NddzA1fCZ7J
tz345WK7NHWZDObafZVA7l8ndvnK1g0epwafxXVXlkS5c/TeqqmvvkuY82zI2tmi
JjUhQOdnS+LZxE+4llQXWdjKr7FWR74VWwXTKczsK5n6Exoq0GHRQcInXdmn8iko
6/vlicUBg4gd3HAajy875TToW+/tdl+KUeotksLmhm1qkpPDbQTFlWgH/poy2TjI
BuszkrkLzi7Da2qiQWrOCedKkKgvWQ523E+4htBLleYb5MZZJu8cAE7O+89jBX6m
1Ak5/tN5SfJqahoXyxOlPdn6sKRfGOjlXEs41di4djWgC+GYuVjDiOX4SubQhKNe
TYXJ1n+dnzUoZlYEJcwbTPfjyzm+4F+ok72hC81j4BYHr0ALy24/gQzNgL8T8ZJX
oUgX0imwWqLVQoTIbAkxxgWS3aP3Vu3nXymI60sCAwEAAaOBiTCBhjAdBgNVHQ4E
FgQUyPHpHmAByCPM15izu2V6MsRLkzkwHwYDVR0jBBgwFoAU+ELMiMnIGPnTsCRl
Bkz/Vau/Dn8wDAYDVR0TAQH/BAIwADAOBgNVHQ8BAf8EBAMCA6gwEwYDVR0lBAww
CgYIKwYBBQUHAwEwEQYJYIZIAYb4QgEBBAQDAgZAMD4GCSqGSIb3DQEBCjAxoA0w
CwYJYIZIAWUDBAICoRowGAYJKoZIhvcNAQEIMAsGCWCGSAFlAwQCAqIEAgIBTgOC
AYEAo29SWLDUj+WV7H0lp2eioSpfEaqMy2L8deJ4fe477KwwgDvFt3vObuOR6lTU
zeUHVfIQ6OiGaOgBwFPKs397eeYxgqrpAsXK5PLfplqZ8bxZPUyyvJLmFUpJC7YQ
yhJIA9m3h9D4usnDwvwpiqfBTCZCnxrO8zGiSvcljO1AcXd7BsxMb7tONMS14iQG
VvPvmwV4WuPzwkL06z4o9ogpaGVhYNJhrKFO7GrBFYcajAYtNOdmv09dTSNGM2cr
HZfymuYukBuHkwMtUdh9PQ5ZijA0i7IJkpkDt62kxa1tu+ZewuSG0mM7yI4Kozm9
nOmlz2VlhY4IjtmFNj4dxmY6baadvuDY6d0XHN91BD4kqcAZF6HvbtumvfwdmY0R
DDxbRLDa9ArixjkTX/FqIK4HB0GV1BCStDIBJ3TvqpcOn3NnKVxA0lsxu8VwwMO2
eznEdrjsZ8kKvdPcyE9BYl5GOtTmZRJNwH5obJ1q7E/a47OUWL6ttoUB45SkS30o
AA7z
-----END CERTIFICATE-----
