Certificate:
    Data:
        Version: 3 (0x2)
        Serial Number: 1 (0x1)
        Signature Algorithm: rsassaPss         
         Hash Algorithm: sha384
         Mask Algorithm: mgf1 with sha384
          Salt Length: 0x014E
         Trailer Field: 0xBC (default)
        Issuer: C = US, ST = Montana, L = Bozeman, O = wolfSSL_RSAPSS, OU = CA-RSAPSS, CN = www.wolfssl.com, emailAddress = info@wolfssl.com, UID = wolfSSL
        Validity
            Not Before: Dec 16 21:17:49 2022 GMT
            Not After : Sep 11 21:17:49 2025 GMT
        Subject: C = US, ST = Montana, L = Bozeman, O = wolfSSL_RSAPSS, OU = Server-RSAPSS, CN = www.wolfssl.com, emailAddress = info@wolfssl.com, UID = wolfSSL
        Subject Public Key Info:
            Public Key Algorithm: rsassaPss
                RSA-PSS Public-Key: (3072 bit)
                Modulus:
                    00:be:84:78:d3:6b:7d:b2:ae:51:88:68:6a:33:f1:
                    f9:c5:1a:6f:97:71:94:22:f4:c2:f0:49:88:2b:a4:
                    4d:15:6f:db:cc:d4:c6:6f:75:a6:e2:22:06:af:91:
                    26:4e:a0:2d:97:17:95:0b:40:1a:75:23:9b:b1:e0:
                    d7:5d:cc:0d:5f:09:9e:c9:b7:3d:f8:e5:62:bb:34:
                    75:99:0c:e6:da:7d:95:40:ee:5f:27:76:f9:ca:d6:
                    0d:1e:a7:06:9f:c5:75:57:96:44:b9:73:f4:de:aa:
                    a9:af:be:4b:98:f3:6c:c8:da:d9:a2:26:35:21:40:
                    e7:67:4b:e2:d9:c4:4f:b8:96:54:17:59:d8:ca:af:
                    b1:56:47:be:15:5b:05:d3:29:cc:ec:2b:99:fa:13:
                    1a:2a:d0:61:d1:41:c2:27:5d:d9:a7:f2:29:28:eb:
                    fb:e5:89:c5:01:83:88:1d:dc:70:1a:8f:2f:3b:e5:
                    34:e8:5b:ef:ed:76:5f:8a:51:ea:2d:92:c2:e6:86:
                    6d:6a:92:93:c3:6d:04:c5:95:68:07:fe:9a:32:d9:
                    38:c8:06:eb:33:92:b9:0b:ce:2e:c3:6b:6a:a2:41:
                    6a:ce:09:e7:4a:90:a8:2f:59:0e:76:dc:4f:b8:86:
                    d0:4b:95:e6:1b:e4:c6:59:26:ef:1c:00:4e:ce:fb:
                    cf:63:05:7e:a6:d4:09:39:fe:d3:79:49:f2:6a:6a:
                    1a:17:cb:13:a5:3d:d9:fa:b0:a4:5f:18:e8:e5:5c:
                    4b:38:d5:d8:b8:76:35:a0:0b:e1:98:b9:58:c3:88:
                    e5:f8:4a:e6:d0:84:a3:5e:4d:85:c9:d6:7f:9d:9f:
                    35:28:66:56:04:25:cc:1b:4c:f7:e3:cb:39:be:e0:
                    5f:a8:93:bd:a1:0b:cd:63:e0:16:07:af:40:0b:cb:
                    6e:3f:81:0c:cd:80:bf:13:f1:92:57:a1:48:17:d2:
                    29:b0:5a:a2:d5:42:84:c8:6c:09:31:c6:05:92:dd:
                    a3:f7:56:ed:e7:5f:29:88:eb:4b
                Exponent: 65537 (0x10001)
                No PSS parameter restrictions
        X509v3 extensions:
            X509v3 Subject Key Identifier: 
                C8:F1:E9:1E:60:01:C8:23:CC:D7:98:B3:BB:65:7A:32:C4:4B:93:39
            X509v3 Authority Key Identifier: 
                keyid:F8:42:CC:88:C9:C8:18:F9:D3:B0:24:65:06:4C:FF:55:AB:BF:0E:7F

            X509v3 Basic Constraints: critical
                CA:FALSE
            X509v3 Key Usage: critical
                Digital Signature, Key Encipherment, Key Agreement
            X509v3 Extended Key Usage: 
                TLS Web Server Authentication
            Netscape Cert Type: 
                SSL Server
    Signature Algorithm: rsassaPss         
         Hash Algorithm: sha384
         Mask Algorithm: mgf1 with sha384
          Salt Length: 0x014E
         Trailer Field: 0xBC (default)

         a3:6f:52:58:b0:d4:8f:e5:95:ec:7d:25:a7:67:a2:a1:2a:5f:
         11:aa:8c:cb:62:fc:75:e2:78:7d:ee:3b:ec:ac:30:80:3b:c5:
         b7:7b:ce:6e:e3:91:ea:54:d4:cd:e5:07:55:f2:10:e8:e8:86:
         68:e8:01:c0:53:ca:b3:7f:7b:79:e6:31:82:aa:e9:02:c5:ca:
         e4:f2:df:a6:5a:99:f1:bc:59:3d:4c:b2:bc:92:e6:15:4a:49:
         0b:b6:10:ca:12:48:03:d9:b7:87:d0:f8:ba:c9:c3:c2:fc:29:
         8a:a7:c1:4c:26:42:9f:1a:ce:f3:31:a2:4a:f7:25:8c:ed:40:
         71:77:7b:06:cc:4c:6f:bb:4e:34:c4:b5:e2:24:06:56:f3:ef:
         9b:05:78:5a:e3:f3:c2:42:f4:eb:3e:28:f6:88:29:68:65:61:
         60:d2:61:ac:a1:4e:ec:6a:c1:15:87:1a:8c:06:2d:34:e7:66:
         bf:4f:5d:4d:23:46:33:67:2b:1d:97:f2:9a:e6:2e:90:1b:87:
         93:03:2d:51:d8:7d:3d:0e:59:8a:30:34:8b:b2:09:92:99:03:
         b7:ad:a4:c5:ad:6d:bb:e6:5e:c2:e4:86:d2:63:3b:c8:8e:0a:
         a3:39:bd:9c:e9:a5:cf:65:65:85:8e:08:8e:d9:85:36:3e:1d:
         c6:66:3a:6d:a6:9d:be:e0:d8:e9:dd:17:1c:df:75:04:3e:24:
         a9:c0:19:17:a1:ef:6e:db:a6:bd:fc:1d:99:8d:11:0c:3c:5b:
         44:b0:da:f4:0a:e2:c6:39:13:5f:f1:6a:20:ae:07:07:41:95:
         d4:10:92:b4:32:01:27:74:ef:aa:97:0e:9f:73:67:29:5c:40:
         d2:5b:31:bb:c5:70:c0:c3:b6:7b:39:c4:76:b8:ec:67:c9:0a:
         bd:d3:dc:c8:4f:41:62:5e:46:3a:d4:e6:65:12:4d:c0:7e:68:
         6c:9d:6a:ec:4f:da:e3:b3:94:58:be:ad:b6:85:01:e3:94:a4:
         4b:7d:28:00:0e:f3
-----BEGIN CERTIFICATE-----
MIIFzzCCBAagAwIBAgIBATA+BgkqhkiG9w0BAQowMaANMAsGCWCGSAFlAwQCAqEa
MBgGCSqGSIb3DQEBCDALBglghkgBZQMEAgKiBAICAU4wgbIxCzAJBgNVBAYTAlVT
MRAwDgYDVQQIDAdNb250YW5hMRAwDgYDVQQHDAdCb3plbWFuMRcwFQYDVQQKDA53
b2xmU1NMX1JTQVBTUzESMBAGA1UECwwJQ0EtUlNBUFNTMRgwFgYDVQQDDA93d3cu
d29sZnNzbC5jb20xHzAdBgkqhkiG9w0BCQEWEGluZm9Ad29sZnNzbC5jb20xFzAV
BgoJkiaJk/IsZAEBDAd3b2xmU1NMMB4XDTIyMTIxNjIxMTc0OVoXDTI1MDkxMTIx
MTc0OVowgbYxCzAJBgNVBAYTAlVTMRAwDgYDVQQIDAdNb250YW5hMRAwDgYDVQQH
DAdCb3plbWFuMRcwFQYDVQQKDA53b2xmU1NMX1JTQVBTUzEWMBQGA1UECwwNU2Vy
dmVyLVJTQVBTUzEYMBYGA1UEAwwPd3d3LndvbGZzc2wuY29tMR8wHQYJKoZIhvcN
AQkBFhBpbmZvQHdvbGZzc2wuY29tMRcwFQYKCZImiZPyLGQBAQwHd29sZlNTTDCC
AaAwCwYJKoZIhvcNAQEKA4IBjwAwggGKAoIBgQC+hHjTa32yrlGIaGoz8fnFGm+X
cZQi9MLwSYgrpE0Vb9vM1MZvdabiIgavkSZOoC2XF5ULQBp1I5ux4NddzA1fCZ7J
tz345WK7NHWZDObafZVA7l8ndvnK1g0epwafxXVXlkS5c/TeqqmvvkuY82zI2tmi
JjUhQOdnS+LZxE+4llQXWdjKr7FWR74VWwXTKczsK5n6Exoq0GHRQcInXdmn8iko
6/vlicUBg4gd3HAajy875TToW+/tdl+KUeotksLmhm1qkpPDbQTFlWgH/poy2TjI
BuszkrkLzi7Da2qiQWrOCedKkKgvWQ523E+4htBLleYb5MZZJu8cAE7O+89jBX6m
1Ak5/tN5SfJqahoXyxOlPdn6sKRfGOjlXEs41di4djWgC+GYuVjDiOX4SubQhKNe
TYXJ1n+dnzUoZlYEJcwbTPfjyzm+4F+ok72hC81j4BYHr0ALy24/gQzNgL8T8ZJX
oUgX0imwWqLVQoTIbAkxxgWS3aP3Vu3nXymI60sCAwEAAaOBiTCBhjAdBgNVHQ4E
FgQUyPHpHmAByCPM15izu2V6MsRLkzkwHwYDVR0jBBgwFoAU+ELMiMnIGPnTsCRl
Bkz/Vau/Dn8wDAYDVR0TAQH/BAIwADAOBgNVHQ8BAf8EBAMCA6gwEwYDVR0lBAww
CgYIKwYBBQUHAwEwEQYJYIZIAYb4QgEBBAQDAgZAMD4GCSqGSIb3DQEBCjAxoA0w
CwYJYIZIAWUDBAICoRowGAYJKoZIhvcNAQEIMAsGCWCGSAFlAwQCAqIEAgIBTgOC
AYEAo29SWLDUj+WV7H0lp2eioSpfEaqMy2L8deJ4fe477KwwgDvFt3vObuOR6lTU
zeUHVfIQ6OiGaOgBwFPKs397eeYxgqrpAsXK5PLfplqZ8bxZPUyyvJLmFUpJC7YQ
yhJIA9m3h9D4usnDwvwpiqfBTCZCnxrO8zGiSvcljO1AcXd7BsxMb7tONMS14iQG
VvPvmwV4WuPzwkL06z4o9ogpaGVhYNJhrKFO7GrBFYcajAYtNOdmv09dTSNGM2cr
HZfymuYukBuHkwMtUdh9PQ5ZijA0i7IJkpkDt62kxa1tu+ZewuSG0mM7yI4Kozm9
nOmlz2VlhY4IjtmFNj4dxmY6baadvuDY6d0XHN91BD4kqcAZF6HvbtumvfwdmY0R
DDxbRLDa9ArixjkTX/FqIK4HB0GV1BCStDIBJ3TvqpcOn3NnKVxA0lsxu8VwwMO2
eznEdrjsZ8kKvdPcyE9BYl5GOtTmZRJNwH5obJ1q7E/a47OUWL6ttoUB45SkS30o
AA7z
-----END CERTIFICATE-----
Certificate:
    Data:
        Version: 3 (0x2)
        Serial Number: 1 (0x1)
        Signature Algorithm: rsassaPss         
         Hash Algorithm: sha384
         Mask Algorithm: mgf1 with sha384
          Salt Length: 0x014E
         Trailer Field: 0xBC (default)
        Issuer: C = US, ST = Montana, L = Bozeman, O = wolfSSL_RSA-PSS, OU = Root-RSA-PSS, CN = www.wolfssl.com, emailAddress = info@wolfssl.com
        Validity
            Not Before: Dec 16 21:17:49 2022 GMT
            Not After : Sep 11 21:17:49 2025 GMT
        Subject: C = US, ST = Montana, L = Bozeman, O = wolfSSL_RSAPSS, OU = CA-RSAPSS, CN = www.wolfssl.com, emailAddress = info@wolfssl.com, UID = wolfSSL
        Subject Public Key Info:
            Public Key Algorithm: rsassaPss
                RSA-PSS Public-Key: (3072 bit)
                Modulus:
                    00:c8:2a:40:c8:eb:ae:7c:18:33:cb:38:51:e6:b7:
                    7b:11:4f:cd:ea:35:87:64:d9:b2:ca:cf:4b:21:c4:
                    86:2a:c7:a3:6f:15:3e:1e:c4:9b:03:81:4b:3a:5d:
                    53:62:11:e2:08:df:97:4d:37:3d:78:62:50:40:31:
                    2a:70:44:1a:6d:69:49:fc:77:b8:f2:42:09:86:9a:
                    5d:39:cd:84:7b:32:8a:3b:b0:4f:bf:3d:d4:05:7e:
                    c0:aa:28:a5:ce:b1:28:3a:59:d9:19:10:3a:d4:1f:
                    91:07:07:73:50:a4:2b:d8:18:1f:22:f8:f4:64:3f:
                    13:a0:d8:60:7e:53:4c:3b:97:70:bc:36:e5:be:31:
                    97:45:55:ed:a2:5b:87:b5:1b:8e:65:3d:b7:15:08:
                    d1:12:1a:aa:ec:4e:56:35:70:a7:3e:50:65:f7:3e:
                    30:9c:32:db:b2:24:7b:87:02:29:27:12:35:ad:8e:
                    c3:02:22:13:c2:6e:53:45:f0:16:21:81:e5:d5:b5:
                    91:60:8b:d7:5c:bb:c2:70:06:f6:50:41:45:36:7f:
                    41:44:89:b6:97:23:be:76:d7:7c:72:7f:ea:f4:19:
                    10:17:c3:df:8f:cd:97:20:04:cb:1d:03:6b:09:8f:
                    d7:7b:84:7d:22:c5:e2:10:cb:cc:11:aa:a1:f5:66:
                    85:0e:35:5a:8c:c3:89:61:29:d0:5c:53:2f:09:4b:
                    91:7e:ce:e0:12:d3:ce:eb:c9:50:3c:36:f0:a6:b4:
                    fb:b5:c2:de:61:a0:ac:6f:bc:7e:ef:53:08:9f:b1:
                    18:ad:5b:e3:01:23:de:11:a5:1f:7d:d5:b6:f4:72:
                    1d:53:75:66:8c:db:61:1e:e9:eb:3c:f3:49:69:82:
                    b6:20:6b:29:03:a1:be:55:e4:4c:f8:25:a7:a8:a3:
                    e3:3f:32:1f:ae:a7:2a:9b:6b:56:dd:c9:5a:b1:1a:
                    01:a0:13:d2:8e:9a:2c:db:7e:fd:5b:0e:2e:ef:92:
                    69:ce:f2:de:ef:d0:2f:09:0e:67
                Exponent: 65537 (0x10001)
                No PSS parameter restrictions
        X509v3 extensions:
            X509v3 Subject Key Identifier: 
                F8:42:CC:88:C9:C8:18:F9:D3:B0:24:65:06:4C:FF:55:AB:BF:0E:7F
            X509v3 Authority Key Identifier: 
                keyid:AA:71:D3:B1:8A:4B:BB:47:15:47:5F:9B:D0:2B:69:D1:6F:85:5E:F6

            X509v3 Basic Constraints: critical
                CA:TRUE
            X509v3 Key Usage: critical
                Digital Signature, Certificate Sign, CRL Sign
    Signature Algorithm: rsassaPss         
         Hash Algorithm: sha384
         Mask Algorithm: mgf1 with sha384
          Salt Length: 0x014E
         Trailer Field: 0xBC (default)

         39:46:e9:1d:16:25:a1:15:6d:65:88:54:ef:7e:33:b3:0e:44:
         f2:11:cd:23:ad:73:2f:80:3c:aa:10:bd:7e:3c:45:1b:c9:8c:
         d7:2c:71:99:87:b4:e3:81:57:a8:c2:86:6c:80:ec:7c:4a:fb:
         da:01:ed:e1:f6:b2:15:16:e1:3f:cd:de:85:d2:25:3b:11:31:
         f6:a1:54:52:57:25:6c:41:99:d3:dd:92:af:ca:ed:c6:28:d4:
         e5:6d:88:a5:c5:37:3f:6f:50:43:54:21:c9:cd:77:71:5c:81:
         6e:ec:96:b4:ea:04:41:d7:db:ec:43:d2:65:a3:2d:a8:33:1d:
         27:01:1e:28:16:2a:93:61:a6:af:8f:9d:31:e2:34:89:f8:9a:
         cf:a0:c9:12:95:1b:9f:93:e6:10:90:e0:bc:d9:a3:72:40:30:
         cb:c4:b4:ac:3f:17:42:3b:a1:ab:ff:3a:d4:c3:2b:22:56:fb:
         77:93:c9:32:7f:bd:18:ff:c0:60:bc:dd:ce:09:d1:e9:22:44:
         f2:9b:85:8b:20:fa:77:b0:95:aa:b5:9c:de:83:2b:58:7c:ec:
         fb:aa:9c:b9:57:5d:32:32:a3:81:66:a4:1f:0f:2b:08:1b:65:
         1c:d4:e1:4f:7f:d9:ee:39:a9:ae:99:6e:0a:3b:e4:ef:11:d6:
         c9:e9:6f:89:27:c4:25:28:be:5a:e5:17:87:e7:56:0a:f4:32:
         38:f2:86:84:d7:b6:66:47:f3:46:46:55:80:08:d6:8e:c0:08:
         a0:3f:04:62:77:1c:6e:dd:80:7e:57:82:0e:60:81:6e:59:ff:
         ad:39:6e:a0:fe:66:1a:1b:d1:4c:bf:14:c9:82:83:0a:95:57:
         53:3b:79:be:74:01:d7:a7:62:64:6f:5a:8a:a6:7d:ab:9f:90:
         fb:95:89:24:d3:55:02:ef:f1:5f:d4:de:46:0c:5b:9a:60:d6:
         6e:64:cb:11:ae:fa:7f:4f:54:44:c0:ff:af:32:45:92:32:6e:
         5b:cb:9d:2c:03:6e
-----BEGIN CERTIFICATE-----
MIIFjzCCA8agAwIBAgIBATA+BgkqhkiG9w0BAQowMaANMAsGCWCGSAFlAwQCAqEa
MBgGCSqGSIb3DQEBCDALBglghkgBZQMEAgKiBAICAU4wgZ0xCzAJBgNVBAYTAlVT
MRAwDgYDVQQIDAdNb250YW5hMRAwDgYDVQQHDAdCb3plbWFuMRgwFgYDVQQKDA93
b2xmU1NMX1JTQS1QU1MxFTATBgNVBAsMDFJvb3QtUlNBLVBTUzEYMBYGA1UEAwwP
d3d3LndvbGZzc2wuY29tMR8wHQYJKoZIhvcNAQkBFhBpbmZvQHdvbGZzc2wuY29t
MB4XDTIyMTIxNjIxMTc0OVoXDTI1MDkxMTIxMTc0OVowgbIxCzAJBgNVBAYTAlVT
MRAwDgYDVQQIDAdNb250YW5hMRAwDgYDVQQHDAdCb3plbWFuMRcwFQYDVQQKDA53
b2xmU1NMX1JTQVBTUzESMBAGA1UECwwJQ0EtUlNBUFNTMRgwFgYDVQQDDA93d3cu
d29sZnNzbC5jb20xHzAdBgkqhkiG9w0BCQEWEGluZm9Ad29sZnNzbC5jb20xFzAV
BgoJkiaJk/IsZAEBDAd3b2xmU1NMMIIBoDALBgkqhkiG9w0BAQoDggGPADCCAYoC
ggGBAMgqQMjrrnwYM8s4Uea3exFPzeo1h2TZssrPSyHEhirHo28VPh7EmwOBSzpd
U2IR4gjfl003PXhiUEAxKnBEGm1pSfx3uPJCCYaaXTnNhHsyijuwT7891AV+wKoo
pc6xKDpZ2RkQOtQfkQcHc1CkK9gYHyL49GQ/E6DYYH5TTDuXcLw25b4xl0VV7aJb
h7UbjmU9txUI0RIaquxOVjVwpz5QZfc+MJwy27Ike4cCKScSNa2OwwIiE8JuU0Xw
FiGB5dW1kWCL11y7wnAG9lBBRTZ/QUSJtpcjvnbXfHJ/6vQZEBfD34/NlyAEyx0D
awmP13uEfSLF4hDLzBGqofVmhQ41WozDiWEp0FxTLwlLkX7O4BLTzuvJUDw28Ka0
+7XC3mGgrG+8fu9TCJ+xGK1b4wEj3hGlH33VtvRyHVN1ZozbYR7p6zzzSWmCtiBr
KQOhvlXkTPglp6ij4z8yH66nKptrVt3JWrEaAaAT0o6aLNt+/VsOLu+Sac7y3u/Q
LwkOZwIDAQABo2MwYTAdBgNVHQ4EFgQU+ELMiMnIGPnTsCRlBkz/Vau/Dn8wHwYD
VR0jBBgwFoAUqnHTsYpLu0cVR1+b0Ctp0W+FXvYwDwYDVR0TAQH/BAUwAwEB/zAO
BgNVHQ8BAf8EBAMCAYYwPgYJKoZIhvcNAQEKMDGgDTALBglghkgBZQMEAgKhGjAY
BgkqhkiG9w0BAQgwCwYJYIZIAWUDBAICogQCAgFOA4IBgQA5RukdFiWhFW1liFTv
fjOzDkTyEc0jrXMvgDyqEL1+PEUbyYzXLHGZh7TjgVeowoZsgOx8SvvaAe3h9rIV
FuE/zd6F0iU7ETH2oVRSVyVsQZnT3ZKvyu3GKNTlbYilxTc/b1BDVCHJzXdxXIFu
7Ja06gRB19vsQ9Jloy2oMx0nAR4oFiqTYaavj50x4jSJ+JrPoMkSlRufk+YQkOC8
2aNyQDDLxLSsPxdCO6Gr/zrUwysiVvt3k8kyf70Y/8BgvN3OCdHpIkTym4WLIPp3
sJWqtZzegytYfOz7qpy5V10yMqOBZqQfDysIG2Uc1OFPf9nuOamumW4KO+TvEdbJ
6W+JJ8QlKL5a5ReH51YK9DI48oaE17ZmR/NGRlWACNaOwAigPwRidxxu3YB+V4IO
YIFuWf+tOW6g/mYaG9FMvxTJgoMKlVdTO3m+dAHXp2Jkb1qKpn2rn5D7lYkk01UC
7/Ff1N5GDFuaYNZuZMsRrvp/T1REwP+vMkWSMm5by50sA24=
-----END CERTIFICATE-----
