Certificate:
    Data:
        Version: 3 (0x2)
        Serial Number:
            60:a0:4a:0b:36:eb:7d:e1:3f:74:29:a9:29:b4:05:6c:17:f7:a6:d4
        Signature Algorithm: SM2-with-SM3
        Issuer: C = US, ST = Montana, L = Bozeman, O = wolfSSL_sm2, OU = Client-sm2, CN = www.wolfssl.com, emailAddress = info@wolfssl.com, UID = wolfSSL
        Validity
            Not Before: Feb 15 06:23:07 2023 GMT
            Not After : Nov 11 06:23:07 2025 GMT
        Subject: C = US, ST = Montana, L = Bozeman, O = wolfSSL_sm2, OU = Client-sm2, CN = www.wolfssl.com, emailAddress = info@wolfssl.com, UID = wolfSSL
        Subject Public Key Info:
            Public Key Algorithm: sm2
                Public-Key: (256 bit)
                pub:
                    04:3a:1d:e8:cb:4b:d3:2e:3f:4b:07:3f:b0:21:fe:
                    c5:9e:d9:ca:3a:93:93:95:76:1d:30:d9:0b:f5:56:
                    ed:19:60:ed:01:4c:f6:67:1d:f1:ac:a8:74:0d:b2:
                    77:c8:49:38:e4:ff:4c:ef:8d:6d:87:f6:4e:c7:f8:
                    39:74:70:70:b5
                ASN1 OID: SM2
        X509v3 extensions:
            X509v3 Subject Key Identifier: 
                E4:21:B2:C5:E5:D4:9E:82:CA:F8:67:F2:28:99:F6:85:E8:F1:55:EF
            X509v3 Authority Key Identifier: 
                keyid:E4:21:B2:C5:E5:D4:9E:82:CA:F8:67:F2:28:99:F6:85:E8:F1:55:EF
                DirName:/C=US/ST=Montana/L=Bozeman/O=wolfSSL_sm2/OU=Client-sm2/CN=www.wolfssl.com/emailAddress=info@wolfssl.com/UID=wolfSSL
                serial:60:A0:4A:0B:36:EB:7D:E1:3F:74:29:A9:29:B4:05:6C:17:F7:A6:D4
            X509v3 Basic Constraints: 
                CA:TRUE
            X509v3 Subject Alternative Name: 
                DNS:example.com, IP Address:127.0.0.1
            X509v3 Extended Key Usage: 
                TLS Web Server Authentication, TLS Web Client Authentication
    Signature Algorithm: SM2-with-SM3
    Signature Value:
        30:46:02:21:00:8f:b2:b5:95:8f:79:f6:5e:75:e5:c5:e9:9a:
        12:d2:0f:78:9f:c0:1d:8d:1c:be:6b:0c:f1:f5:57:60:db:91:
        4f:02:21:00:87:5e:7d:e4:d6:3a:bb:7b:98:27:85:de:7a:f0:
        21:e2:66:a1:9f:26:e0:dd:86:23:b4:c8:c0:46:5a:f2:49:8d
-----BEGIN CERTIFICATE-----
MIIDyTCCA26gAwIBAgIUYKBKCzbrfeE/dCmpKbQFbBf3ptQwCgYIKoEcz1UBg3Uw
gbAxCzAJBgNVBAYTAlVTMRAwDgYDVQQIDAdNb250YW5hMRAwDgYDVQQHDAdCb3pl
bWFuMRQwEgYDVQQKDAt3b2xmU1NMX3NtMjETMBEGA1UECwwKQ2xpZW50LXNtMjEY
MBYGA1UEAwwPd3d3LndvbGZzc2wuY29tMR8wHQYJKoZIhvcNAQkBFhBpbmZvQHdv
bGZzc2wuY29tMRcwFQYKCZImiZPyLGQBAQwHd29sZlNTTDAeFw0yMzAyMTUwNjIz
MDdaFw0yNTExMTEwNjIzMDdaMIGwMQswCQYDVQQGEwJVUzEQMA4GA1UECAwHTW9u
dGFuYTEQMA4GA1UEBwwHQm96ZW1hbjEUMBIGA1UECgwLd29sZlNTTF9zbTIxEzAR
BgNVBAsMCkNsaWVudC1zbTIxGDAWBgNVBAMMD3d3dy53b2xmc3NsLmNvbTEfMB0G
CSqGSIb3DQEJARYQaW5mb0B3b2xmc3NsLmNvbTEXMBUGCgmSJomT8ixkAQEMB3dv
bGZTU0wwWjAUBggqgRzPVQGCLQYIKoEcz1UBgi0DQgAEOh3oy0vTLj9LBz+wIf7F
ntnKOpOTlXYdMNkL9VbtGWDtAUz2Zx3xrKh0DbJ3yEk45P9M741th/ZOx/g5dHBw
taOCAWEwggFdMB0GA1UdDgQWBBTkIbLF5dSegsr4Z/IomfaF6PFV7zCB8AYDVR0j
BIHoMIHlgBTkIbLF5dSegsr4Z/IomfaF6PFV76GBtqSBszCBsDELMAkGA1UEBhMC
VVMxEDAOBgNVBAgMB01vbnRhbmExEDAOBgNVBAcMB0JvemVtYW4xFDASBgNVBAoM
C3dvbGZTU0xfc20yMRMwEQYDVQQLDApDbGllbnQtc20yMRgwFgYDVQQDDA93d3cu
d29sZnNzbC5jb20xHzAdBgkqhkiG9w0BCQEWEGluZm9Ad29sZnNzbC5jb20xFzAV
BgoJkiaJk/IsZAEBDAd3b2xmU1NMghRgoEoLNut94T90KakptAVsF/em1DAMBgNV
HRMEBTADAQH/MBwGA1UdEQQVMBOCC2V4YW1wbGUuY29thwR/AAABMB0GA1UdJQQW
MBQGCCsGAQUFBwMBBggrBgEFBQcDAjAKBggqgRzPVQGDdQNJADBGAiEAj7K1lY95
9l515cXpmhLSD3ifwB2NHL5rDPH1V2DbkU8CIQCHXn3k1jq7e5gnhd568CHiZqGf
JuDdhiO0yMBGWvJJjQ==
-----END CERTIFICATE-----
