Certificate:
    Data:
        Version: 3 (0x2)
        Serial Number:
            74:9c:dd:a4:b2:67:26:57:29:fb:e9:13:54:e0:34:08:03:2b:70:a9
        Signature Algorithm: SM2-with-SM3
        Issuer: C = US, ST = Montana, L = Bozeman, O = wolfSSL_SM2, OU = Root-SM2, CN = www.wolfssl.com, emailAddress = info@wolfssl.com
        Validity
            Not Before: Feb 15 06:23:07 2023 GMT
            Not After : Nov 11 06:23:07 2025 GMT
        Subject: C = US, ST = Montana, L = Bozeman, O = wolfSSL_SM2, OU = Root-SM2, CN = www.wolfssl.com, emailAddress = info@wolfssl.com
        Subject Public Key Info:
            Public Key Algorithm: sm2
                Public-Key: (256 bit)
                pub:
                    04:bb:9c:75:8c:f7:17:f8:48:ab:f7:f6:db:0d:9a:
                    8d:9f:c2:d1:47:97:95:0b:4e:e6:57:ec:c5:f8:57:
                    54:71:39:3c:79:e1:40:3f:b6:51:e9:7c:c7:da:2d:
                    ef:d2:e8:79:81:7b:ab:a3:5f:6b:2a:6c:97:1a:5e:
                    8e:d9:d0:cc:04
                ASN1 OID: SM2
        X509v3 extensions:
            X509v3 Subject Key Identifier: 
                34:1D:79:44:15:79:A1:B1:63:99:E3:ED:65:7C:64:89:80:FF:B8:EC
            X509v3 Authority Key Identifier: 
                34:1D:79:44:15:79:A1:B1:63:99:E3:ED:65:7C:64:89:80:FF:B8:EC
            X509v3 Basic Constraints: critical
                CA:TRUE
            X509v3 Key Usage: critical
                Digital Signature, Certificate Sign, CRL Sign
    Signature Algorithm: SM2-with-SM3
    Signature Value:
        30:44:02:20:03:27:29:f0:ef:78:26:a1:1a:6a:1e:88:81:e7:
        83:72:5f:3e:e6:08:e8:14:68:bf:4b:0f:68:52:92:aa:8f:a1:
        02:20:0b:fe:1b:14:ba:51:82:65:06:bb:22:d8:1a:a7:9f:54:
        62:eb:8d:b2:d5:13:b3:b8:a2:f3:14:44:b2:a0:21:d0
-----BEGIN CERTIFICATE-----
MIICkTCCAjigAwIBAgIUdJzdpLJnJlcp++kTVOA0CAMrcKkwCgYIKoEcz1UBg3Uw
gZUxCzAJBgNVBAYTAlVTMRAwDgYDVQQIDAdNb250YW5hMRAwDgYDVQQHDAdCb3pl
bWFuMRQwEgYDVQQKDAt3b2xmU1NMX1NNMjERMA8GA1UECwwIUm9vdC1TTTIxGDAW
BgNVBAMMD3d3dy53b2xmc3NsLmNvbTEfMB0GCSqGSIb3DQEJARYQaW5mb0B3b2xm
c3NsLmNvbTAeFw0yMzAyMTUwNjIzMDdaFw0yNTExMTEwNjIzMDdaMIGVMQswCQYD
VQQGEwJVUzEQMA4GA1UECAwHTW9udGFuYTEQMA4GA1UEBwwHQm96ZW1hbjEUMBIG
A1UECgwLd29sZlNTTF9TTTIxETAPBgNVBAsMCFJvb3QtU00yMRgwFgYDVQQDDA93
d3cud29sZnNzbC5jb20xHzAdBgkqhkiG9w0BCQEWEGluZm9Ad29sZnNzbC5jb20w
WjAUBggqgRzPVQGCLQYIKoEcz1UBgi0DQgAEu5x1jPcX+Eir9/bbDZqNn8LRR5eV
C07mV+zF+FdUcTk8eeFAP7ZR6XzH2i3v0uh5gXuro19rKmyXGl6O2dDMBKNjMGEw
HQYDVR0OBBYEFDQdeUQVeaGxY5nj7WV8ZImA/7jsMB8GA1UdIwQYMBaAFDQdeUQV
eaGxY5nj7WV8ZImA/7jsMA8GA1UdEwEB/wQFMAMBAf8wDgYDVR0PAQH/BAQDAgGG
MAoGCCqBHM9VAYN1A0cAMEQCIAMnKfDveCahGmoeiIHng3JfPuYI6BRov0sPaFKS
qo+hAiAL/hsUulGCZQa7Itgap59UYuuNstUTs7ii8xREsqAh0A==
-----END CERTIFICATE-----
