Certificate:
    Data:
        Version: 3 (0x2)
        Serial Number: 1 (0x1)
        Signature Algorithm: SM2-with-SM3
        Issuer: C = US, ST = Montana, L = Bozeman, O = wolfSSL_sm2, OU = CA-sm2, CN = www.wolfssl.com, emailAddress = info@wolfssl.com, UID = wolfSSL
        Validity
            Not Before: Feb 15 06:23:07 2023 GMT
            Not After : Nov 11 06:23:07 2025 GMT
        Subject: C = US, ST = Montana, L = Bozeman, O = wolfSSL_sm2, OU = Server-sm2, CN = www.wolfssl.com, emailAddress = info@wolfssl.com, UID = wolfSSL
        Subject Public Key Info:
            Public Key Algorithm: sm2
                Public-Key: (256 bit)
                pub:
                    04:94:70:2b:46:e4:5e:0f:41:fb:8f:2d:34:0a:41:
                    40:19:5e:fb:d4:1d:11:ac:fa:f5:93:37:c6:fa:87:
                    08:f7:16:1f:2c:ce:30:40:9d:4f:a6:2a:0a:a1:d6:
                    95:33:c3:a6:03:98:e6:8d:05:34:b0:97:0c:de:a4:
                    c7:cf:53:8f:d1
                ASN1 OID: SM2
        X509v3 extensions:
            X509v3 Subject Key Identifier: 
                67:AE:60:FF:7E:1B:0F:95:AE:1F:82:59:F2:6C:56:2D:93:EF:17:32
            X509v3 Authority Key Identifier: 
                47:0A:48:7E:BB:02:A8:5A:26:57:2B:19:A9:7B:61:8B:7F:5D:99:6E
            X509v3 Basic Constraints: critical
                CA:FALSE
            X509v3 Key Usage: critical
                Digital Signature, Key Encipherment, Key Agreement
            X509v3 Extended Key Usage: 
                TLS Web Server Authentication
            Netscape Cert Type: 
                SSL Server
    Signature Algorithm: SM2-with-SM3
    Signature Value:
        30:45:02:20:1b:ca:94:28:7f:f6:b2:0d:31:43:50:e1:d5:34:
        17:dd:af:3a:de:81:06:67:9a:b3:06:22:7e:64:ec:fd:0e:b9:
        02:21:00:a1:48:a8:32:d1:05:09:6b:1c:eb:89:12:66:d8:38:
        a1:c4:5c:89:09:0f:fd:e9:c0:3b:1d:fb:cd:b5:4c:31:68
-----BEGIN CERTIFICATE-----
MIIC2DCCAn6gAwIBAgIBATAKBggqgRzPVQGDdTCBrDELMAkGA1UEBhMCVVMxEDAO
BgNVBAgMB01vbnRhbmExEDAOBgNVBAcMB0JvemVtYW4xFDASBgNVBAoMC3dvbGZT
U0xfc20yMQ8wDQYDVQQLDAZDQS1zbTIxGDAWBgNVBAMMD3d3dy53b2xmc3NsLmNv
bTEfMB0GCSqGSIb3DQEJARYQaW5mb0B3b2xmc3NsLmNvbTEXMBUGCgmSJomT8ixk
AQEMB3dvbGZTU0wwHhcNMjMwMjE1MDYyMzA3WhcNMjUxMTExMDYyMzA3WjCBsDEL
MAkGA1UEBhMCVVMxEDAOBgNVBAgMB01vbnRhbmExEDAOBgNVBAcMB0JvemVtYW4x
FDASBgNVBAoMC3dvbGZTU0xfc20yMRMwEQYDVQQLDApTZXJ2ZXItc20yMRgwFgYD
VQQDDA93d3cud29sZnNzbC5jb20xHzAdBgkqhkiG9w0BCQEWEGluZm9Ad29sZnNz
bC5jb20xFzAVBgoJkiaJk/IsZAEBDAd3b2xmU1NMMFowFAYIKoEcz1UBgi0GCCqB
HM9VAYItA0IABJRwK0bkXg9B+48tNApBQBle+9QdEaz69ZM3xvqHCPcWHyzOMECd
T6YqCqHWlTPDpgOY5o0FNLCXDN6kx89Tj9GjgYkwgYYwHQYDVR0OBBYEFGeuYP9+
Gw+Vrh+CWfJsVi2T7xcyMB8GA1UdIwQYMBaAFEcKSH67AqhaJlcrGal7YYt/XZlu
MAwGA1UdEwEB/wQCMAAwDgYDVR0PAQH/BAQDAgOoMBMGA1UdJQQMMAoGCCsGAQUF
BwMBMBEGCWCGSAGG+EIBAQQEAwIGQDAKBggqgRzPVQGDdQNIADBFAiAbypQof/ay
DTFDUOHVNBfdrzregQZnmrMGIn5k7P0OuQIhAKFIqDLRBQlrHOuJEmbYOKHEXIkJ
D/3pwDsd+821TDFo
-----END CERTIFICATE-----
