Certificate:
    Data:
        Version: 3 (0x2)
        Serial Number: 1 (0x1)
        Signature Algorithm: SM2-with-SM3
        Issuer: C = US, ST = Montana, L = Bozeman, O = wolfSSL_sm2, OU = CA-sm2, CN = www.wolfssl.com, emailAddress = info@wolfssl.com, UID = wolfSSL
        Validity
            Not Before: Feb 15 06:23:07 2023 GMT
            Not After : Nov 11 06:23:07 2025 GMT
        Subject: C = US, ST = Montana, L = Bozeman, O = wolfSSL_sm2, OU = Server-sm2, CN = www.wolfssl.com, emailAddress = info@wolfssl.com, UID = wolfSSL
        Subject Public Key Info:
            Public Key Algorithm: sm2
                Public-Key: (256 bit)
                pub:
                    04:94:70:2b:46:e4:5e:0f:41:fb:8f:2d:34:0a:41:
                    40:19:5e:fb:d4:1d:11:ac:fa:f5:93:37:c6:fa:87:
                    08:f7:16:1f:2c:ce:30:40:9d:4f:a6:2a:0a:a1:d6:
                    95:33:c3:a6:03:98:e6:8d:05:34:b0:97:0c:de:a4:
                    c7:cf:53:8f:d1
                ASN1 OID: SM2
        X509v3 extensions:
            X509v3 Subject Key Identifier: 
                67:AE:60:FF:7E:1B:0F:95:AE:1F:82:59:F2:6C:56:2D:93:EF:17:32
            X509v3 Authority Key Identifier: 
                47:0A:48:7E:BB:02:A8:5A:26:57:2B:19:A9:7B:61:8B:7F:5D:99:6E
            X509v3 Basic Constraints: critical
                CA:FALSE
            X509v3 Key Usage: critical
                Digital Signature, Key Encipherment, Key Agreement
            X509v3 Extended Key Usage: 
                TLS Web Server Authentication
            Netscape Cert Type: 
                SSL Server
    Signature Algorithm: SM2-with-SM3
    Signature Value:
        30:45:02:20:1b:ca:94:28:7f:f6:b2:0d:31:43:50:e1:d5:34:
        17:dd:af:3a:de:81:06:67:9a:b3:06:22:7e:64:ec:fd:0e:b9:
        02:21:00:a1:48:a8:32:d1:05:09:6b:1c:eb:89:12:66:d8:38:
        a1:c4:5c:89:09:0f:fd:e9:c0:3b:1d:fb:cd:b5:4c:31:68
-----BEGIN CERTIFICATE-----
MIIC2DCCAn6gAwIBAgIBATAKBggqgRzPVQGDdTCBrDELMAkGA1UEBhMCVVMxEDAO
BgNVBAgMB01vbnRhbmExEDAOBgNVBAcMB0JvemVtYW4xFDASBgNVBAoMC3dvbGZT
U0xfc20yMQ8wDQYDVQQLDAZDQS1zbTIxGDAWBgNVBAMMD3d3dy53b2xmc3NsLmNv
bTEfMB0GCSqGSIb3DQEJARYQaW5mb0B3b2xmc3NsLmNvbTEXMBUGCgmSJomT8ixk
AQEMB3dvbGZTU0wwHhcNMjMwMjE1MDYyMzA3WhcNMjUxMTExMDYyMzA3WjCBsDEL
MAkGA1UEBhMCVVMxEDAOBgNVBAgMB01vbnRhbmExEDAOBgNVBAcMB0JvemVtYW4x
FDASBgNVBAoMC3dvbGZTU0xfc20yMRMwEQYDVQQLDApTZXJ2ZXItc20yMRgwFgYD
VQQDDA93d3cud29sZnNzbC5jb20xHzAdBgkqhkiG9w0BCQEWEGluZm9Ad29sZnNz
bC5jb20xFzAVBgoJkiaJk/IsZAEBDAd3b2xmU1NMMFowFAYIKoEcz1UBgi0GCCqB
HM9VAYItA0IABJRwK0bkXg9B+48tNApBQBle+9QdEaz69ZM3xvqHCPcWHyzOMECd
T6YqCqHWlTPDpgOY5o0FNLCXDN6kx89Tj9GjgYkwgYYwHQYDVR0OBBYEFGeuYP9+
Gw+Vrh+CWfJsVi2T7xcyMB8GA1UdIwQYMBaAFEcKSH67AqhaJlcrGal7YYt/XZlu
MAwGA1UdEwEB/wQCMAAwDgYDVR0PAQH/BAQDAgOoMBMGA1UdJQQMMAoGCCsGAQUF
BwMBMBEGCWCGSAGG+EIBAQQEAwIGQDAKBggqgRzPVQGDdQNIADBFAiAbypQof/ay
DTFDUOHVNBfdrzregQZnmrMGIn5k7P0OuQIhAKFIqDLRBQlrHOuJEmbYOKHEXIkJ
D/3pwDsd+821TDFo
-----END CERTIFICATE-----
Certificate:
    Data:
        Version: 3 (0x2)
        Serial Number: 1 (0x1)
        Signature Algorithm: SM2-with-SM3
        Issuer: C = US, ST = Montana, L = Bozeman, O = wolfSSL_SM2, OU = Root-SM2, CN = www.wolfssl.com, emailAddress = info@wolfssl.com
        Validity
            Not Before: Feb 15 06:23:07 2023 GMT
            Not After : Nov 11 06:23:07 2025 GMT
        Subject: C = US, ST = Montana, L = Bozeman, O = wolfSSL_sm2, OU = CA-sm2, CN = www.wolfssl.com, emailAddress = info@wolfssl.com, UID = wolfSSL
        Subject Public Key Info:
            Public Key Algorithm: sm2
                Public-Key: (256 bit)
                pub:
                    04:21:92:f7:cb:24:df:64:4d:ba:ab:66:7b:83:75:
                    a9:29:e7:ff:64:63:b6:d5:42:80:20:bd:e2:e2:02:
                    12:3b:8e:b4:00:95:09:80:cb:56:ed:4b:ca:8d:57:
                    e6:ae:05:d3:76:27:63:71:39:89:b7:69:e6:48:80:
                    ae:d1:a9:48:12
                ASN1 OID: SM2
        X509v3 extensions:
            X509v3 Subject Key Identifier: 
                47:0A:48:7E:BB:02:A8:5A:26:57:2B:19:A9:7B:61:8B:7F:5D:99:6E
            X509v3 Authority Key Identifier: 
                34:1D:79:44:15:79:A1:B1:63:99:E3:ED:65:7C:64:89:80:FF:B8:EC
            X509v3 Basic Constraints: critical
                CA:TRUE
            X509v3 Key Usage: critical
                Digital Signature, Certificate Sign, CRL Sign
    Signature Algorithm: SM2-with-SM3
    Signature Value:
        30:45:02:20:47:4e:00:03:ab:34:a1:af:59:39:8f:60:36:bf:
        89:88:42:41:27:c1:dd:57:c9:79:cb:1f:56:5c:16:b5:28:bd:
        02:21:00:8b:2e:25:eb:21:9b:a9:2b:a6:6a:5b:db:a7:c7:2b:
        11:df:73:15:ad:e4:c5:c3:c2:f3:b4:b4:67:af:d7:51:1c
-----BEGIN CERTIFICATE-----
MIICljCCAjygAwIBAgIBATAKBggqgRzPVQGDdTCBlTELMAkGA1UEBhMCVVMxEDAO
BgNVBAgMB01vbnRhbmExEDAOBgNVBAcMB0JvemVtYW4xFDASBgNVBAoMC3dvbGZT
U0xfU00yMREwDwYDVQQLDAhSb290LVNNMjEYMBYGA1UEAwwPd3d3LndvbGZzc2wu
Y29tMR8wHQYJKoZIhvcNAQkBFhBpbmZvQHdvbGZzc2wuY29tMB4XDTIzMDIxNTA2
MjMwN1oXDTI1MTExMTA2MjMwN1owgawxCzAJBgNVBAYTAlVTMRAwDgYDVQQIDAdN
b250YW5hMRAwDgYDVQQHDAdCb3plbWFuMRQwEgYDVQQKDAt3b2xmU1NMX3NtMjEP
MA0GA1UECwwGQ0Etc20yMRgwFgYDVQQDDA93d3cud29sZnNzbC5jb20xHzAdBgkq
hkiG9w0BCQEWEGluZm9Ad29sZnNzbC5jb20xFzAVBgoJkiaJk/IsZAEBDAd3b2xm
U1NMMFowFAYIKoEcz1UBgi0GCCqBHM9VAYItA0IABCGS98sk32RNuqtme4N1qSnn
/2RjttVCgCC94uICEjuOtACVCYDLVu1Lyo1X5q4F03YnY3E5ibdp5kiArtGpSBKj
YzBhMB0GA1UdDgQWBBRHCkh+uwKoWiZXKxmpe2GLf12ZbjAfBgNVHSMEGDAWgBQ0
HXlEFXmhsWOZ4+1lfGSJgP+47DAPBgNVHRMBAf8EBTADAQH/MA4GA1UdDwEB/wQE
AwIBhjAKBggqgRzPVQGDdQNIADBFAiBHTgADqzShr1k5j2A2v4mIQkEnwd1XyXnL
H1ZcFrUovQIhAIsuJeshm6krpmpb26fHKxHfcxWt5MXDwvO0tGev11Ec
-----END CERTIFICATE-----
