Certificate:
    Data:
        Version: 3 (0x2)
        Serial Number: 1 (0x1)
        Signature Algorithm: ED25519
        Issuer: C = US, ST = Montana, L = Bozeman, O = wolfSSL_Ed25519, OU = Root-Ed25519, CN = www.wolfssl.com, emailAddress = info@wolfssl.com
        Validity
            Not Before: Dec 16 21:17:49 2022 GMT
            Not After : Sep 11 21:17:49 2025 GMT
        Subject: C = US, ST = Montana, L = Bozeman, O = wolfSSL_ed25519, OU = CA-ed25519, CN = www.wolfssl.com, emailAddress = info@wolfssl.com, UID = wolfSSL
        Subject Public Key Info:
            Public Key Algorithm: ED25519
                ED25519 Public-Key:
                pub:
                    42:3b:7a:f9:82:cf:f9:df:19:dd:f3:f0:32:29:6d:
                    fa:fd:76:4f:68:c2:c2:e0:6c:47:ae:c2:55:68:ac:
                    0d:4d
        X509v3 extensions:
            X509v3 Subject Key Identifier: 
                74:D5:38:19:5E:83:B9:03:F8:01:8A:35:35:BB:89:4C:49:B4:23:E9
            X509v3 Authority Key Identifier: 
                keyid:FA:BA:5B:76:1D:F1:1D:1D:4D:74:48:D8:98:3B:56:EF:B3:14:F3:DE

            X509v3 Basic Constraints: critical
                CA:TRUE
            X509v3 Key Usage: critical
                Digital Signature, Certificate Sign, CRL Sign
    Signature Algorithm: ED25519
         40:01:0f:0b:8d:d6:aa:dc:2c:b3:40:22:e7:78:ef:1c:8b:08:
         27:ee:d9:d7:b6:91:b3:2d:3d:ac:b9:50:fb:2f:b5:25:63:5a:
         1a:3d:3e:cd:81:a1:a9:e7:d5:a1:4a:19:b8:4c:b0:1d:3c:8a:
         e3:47:c0:f6:41:95:e6:59:23:08
-----BEGIN CERTIFICATE-----
MIICZTCCAhegAwIBAgIBATAFBgMrZXAwgZ0xCzAJBgNVBAYTAlVTMRAwDgYDVQQI
DAdNb250YW5hMRAwDgYDVQQHDAdCb3plbWFuMRgwFgYDVQQKDA93b2xmU1NMX0Vk
MjU1MTkxFTATBgNVBAsMDFJvb3QtRWQyNTUxOTEYMBYGA1UEAwwPd3d3LndvbGZz
c2wuY29tMR8wHQYJKoZIhvcNAQkBFhBpbmZvQHdvbGZzc2wuY29tMB4XDTIyMTIx
NjIxMTc0OVoXDTI1MDkxMTIxMTc0OVowgbQxCzAJBgNVBAYTAlVTMRAwDgYDVQQI
DAdNb250YW5hMRAwDgYDVQQHDAdCb3plbWFuMRgwFgYDVQQKDA93b2xmU1NMX2Vk
MjU1MTkxEzARBgNVBAsMCkNBLWVkMjU1MTkxGDAWBgNVBAMMD3d3dy53b2xmc3Ns
LmNvbTEfMB0GCSqGSIb3DQEJARYQaW5mb0B3b2xmc3NsLmNvbTEXMBUGCgmSJomT
8ixkAQEMB3dvbGZTU0wwKjAFBgMrZXADIQBCO3r5gs/53xnd8/AyKW36/XZPaMLC
4GxHrsJVaKwNTaNjMGEwHQYDVR0OBBYEFHTVOBleg7kD+AGKNTW7iUxJtCPpMB8G
A1UdIwQYMBaAFPq6W3Yd8R0dTXRI2Jg7Vu+zFPPeMA8GA1UdEwEB/wQFMAMBAf8w
DgYDVR0PAQH/BAQDAgGGMAUGAytlcANBAEABDwuN1qrcLLNAIud47xyLCCfu2de2
kbMtPay5UPsvtSVjWho9Ps2Boann1aFKGbhMsB08iuNHwPZBleZZIwg=
-----END CERTIFICATE-----
