Certificate:
    Data:
        Version: 3 (0x2)
        Serial Number:
            69:ac:b8:b4:f7:e4:11:cb:c5:63:b2:cc:2a:a8:e2:0f:55:ee:86:86
        Signature Algorithm: ED25519
        Issuer: C = US, ST = Montana, L = Bozeman, O = wolfSSL_ed25519, OU = Client-ed25519, CN = www.wolfssl.com, emailAddress = info@wolfssl.com, UID = wolfSSL
        Validity
            Not Before: Dec 16 21:17:50 2022 GMT
            Not After : Sep 11 21:17:50 2025 GMT
        Subject: C = US, ST = Montana, L = Bozeman, O = wolfSSL_ed25519, OU = Client-ed25519, CN = www.wolfssl.com, emailAddress = info@wolfssl.com, UID = wolfSSL
        Subject Public Key Info:
            Public Key Algorithm: ED25519
                ED25519 Public-Key:
                pub:
                    e6:57:5b:13:1b:c7:51:14:6b:ed:3b:f5:d1:fa:ab:
                    9e:6c:b6:eb:02:09:a3:99:f5:6e:bf:9d:3c:fe:54:
                    39:e6
        X509v3 extensions:
            X509v3 Subject Key Identifier: 
                FE:41:5E:3E:81:E2:2E:46:B3:3E:47:89:90:D4:C2:B4:8E:11:D6:8A
            X509v3 Authority Key Identifier: 
                keyid:FE:41:5E:3E:81:E2:2E:46:B3:3E:47:89:90:D4:C2:B4:8E:11:D6:8A
                DirName:/C=US/ST=Montana/L=Bozeman/O=wolfSSL_ed25519/OU=Client-ed25519/CN=www.wolfssl.com/emailAddress=info@wolfssl.com/UID=wolfSSL
                serial:69:AC:B8:B4:F7:E4:11:CB:C5:63:B2:CC:2A:A8:E2:0F:55:EE:86:86

            X509v3 Basic Constraints: 
                CA:TRUE
            X509v3 Subject Alternative Name: 
                DNS:example.com, IP Address:127.0.0.1
            X509v3 Extended Key Usage: 
                TLS Web Server Authentication, TLS Web Client Authentication
    Signature Algorithm: ED25519
         2e:4a:b8:2a:f0:75:ee:31:6a:51:0a:6a:54:5b:45:6e:ac:03:
         a8:a9:9a:d4:d6:38:02:eb:76:b6:a7:66:86:ea:e9:f3:6f:31:
         4e:e4:50:d1:75:fe:88:3f:23:9d:76:d9:9c:07:14:13:16:30:
         c3:40:51:06:da:a5:39:5f:0a:09
-----BEGIN CERTIFICATE-----
MIIDnzCCA1GgAwIBAgIUaay4tPfkEcvFY7LMKqjiD1XuhoYwBQYDK2VwMIG4MQsw
CQYDVQQGEwJVUzEQMA4GA1UECAwHTW9udGFuYTEQMA4GA1UEBwwHQm96ZW1hbjEY
MBYGA1UECgwPd29sZlNTTF9lZDI1NTE5MRcwFQYDVQQLDA5DbGllbnQtZWQyNTUx
OTEYMBYGA1UEAwwPd3d3LndvbGZzc2wuY29tMR8wHQYJKoZIhvcNAQkBFhBpbmZv
QHdvbGZzc2wuY29tMRcwFQYKCZImiZPyLGQBAQwHd29sZlNTTDAeFw0yMjEyMTYy
MTE3NTBaFw0yNTA5MTEyMTE3NTBaMIG4MQswCQYDVQQGEwJVUzEQMA4GA1UECAwH
TW9udGFuYTEQMA4GA1UEBwwHQm96ZW1hbjEYMBYGA1UECgwPd29sZlNTTF9lZDI1
NTE5MRcwFQYDVQQLDA5DbGllbnQtZWQyNTUxOTEYMBYGA1UEAwwPd3d3LndvbGZz
c2wuY29tMR8wHQYJKoZIhvcNAQkBFhBpbmZvQHdvbGZzc2wuY29tMRcwFQYKCZIm
iZPyLGQBAQwHd29sZlNTTDAqMAUGAytlcAMhAOZXWxMbx1EUa+079dH6q55stusC
CaOZ9W6/nTz+VDnmo4IBaTCCAWUwHQYDVR0OBBYEFP5BXj6B4i5Gsz5HiZDUwrSO
EdaKMIH4BgNVHSMEgfAwge2AFP5BXj6B4i5Gsz5HiZDUwrSOEdaKoYG+pIG7MIG4
MQswCQYDVQQGEwJVUzEQMA4GA1UECAwHTW9udGFuYTEQMA4GA1UEBwwHQm96ZW1h
bjEYMBYGA1UECgwPd29sZlNTTF9lZDI1NTE5MRcwFQYDVQQLDA5DbGllbnQtZWQy
NTUxOTEYMBYGA1UEAwwPd3d3LndvbGZzc2wuY29tMR8wHQYJKoZIhvcNAQkBFhBp
bmZvQHdvbGZzc2wuY29tMRcwFQYKCZImiZPyLGQBAQwHd29sZlNTTIIUaay4tPfk
EcvFY7LMKqjiD1XuhoYwDAYDVR0TBAUwAwEB/zAcBgNVHREEFTATggtleGFtcGxl
LmNvbYcEfwAAATAdBgNVHSUEFjAUBggrBgEFBQcDAQYIKwYBBQUHAwIwBQYDK2Vw
A0EALkq4KvB17jFqUQpqVFtFbqwDqKma1NY4Aut2tqdmhurp828xTuRQ0XX+iD8j
nXbZnAcUExYww0BRBtqlOV8KCQ==
-----END CERTIFICATE-----
