Certificate:
    Data:
        Version: 3 (0x2)
        Serial Number:
            4b:b3:7e:42:e1:d1:6c:16:28:33:87:4f:4f:b8:fb:44:1f:cf:7a:18
        Signature Algorithm: ED25519
        Issuer: C = US, ST = Montana, L = Bozeman, O = wolfSSL_Ed25519, OU = Root-Ed25519, CN = www.wolfssl.com, emailAddress = info@wolfssl.com
        Validity
            Not Before: Dec 16 21:17:49 2022 GMT
            Not After : Sep 11 21:17:49 2025 GMT
        Subject: C = US, ST = Montana, L = Bozeman, O = wolfSSL_Ed25519, OU = Root-Ed25519, CN = www.wolfssl.com, emailAddress = info@wolfssl.com
        Subject Public Key Info:
            Public Key Algorithm: ED25519
                ED25519 Public-Key:
                pub:
                    e9:b3:6f:7c:70:8a:ab:ca:54:20:4e:64:76:3c:1a:
                    4f:f7:fa:5e:4a:ff:f3:db:b9:64:2d:10:a5:0c:5a:
                    3f:da
        X509v3 extensions:
            X509v3 Subject Key Identifier: 
                FA:BA:5B:76:1D:F1:1D:1D:4D:74:48:D8:98:3B:56:EF:B3:14:F3:DE
            X509v3 Authority Key Identifier: 
                keyid:FA:BA:5B:76:1D:F1:1D:1D:4D:74:48:D8:98:3B:56:EF:B3:14:F3:DE

            X509v3 Basic Constraints: critical
                CA:TRUE
            X509v3 Key Usage: critical
                Digital Signature, Certificate Sign, CRL Sign
    Signature Algorithm: ED25519
         3d:94:fc:b8:6a:4a:d4:34:91:8b:84:c2:c6:ac:7b:93:60:44:
         24:e0:0e:19:79:a5:73:49:72:af:85:82:5b:1a:05:2a:69:6a:
         13:01:69:26:b6:64:99:22:b4:8e:13:ec:91:13:44:b4:14:eb:
         51:21:b1:5b:78:85:c8:c6:db:0f
-----BEGIN CERTIFICATE-----
MIICYTCCAhOgAwIBAgIUS7N+QuHRbBYoM4dPT7j7RB/PehgwBQYDK2VwMIGdMQsw
CQYDVQQGEwJVUzEQMA4GA1UECAwHTW9udGFuYTEQMA4GA1UEBwwHQm96ZW1hbjEY
MBYGA1UECgwPd29sZlNTTF9FZDI1NTE5MRUwEwYDVQQLDAxSb290LUVkMjU1MTkx
GDAWBgNVBAMMD3d3dy53b2xmc3NsLmNvbTEfMB0GCSqGSIb3DQEJARYQaW5mb0B3
b2xmc3NsLmNvbTAeFw0yMjEyMTYyMTE3NDlaFw0yNTA5MTEyMTE3NDlaMIGdMQsw
CQYDVQQGEwJVUzEQMA4GA1UECAwHTW9udGFuYTEQMA4GA1UEBwwHQm96ZW1hbjEY
MBYGA1UECgwPd29sZlNTTF9FZDI1NTE5MRUwEwYDVQQLDAxSb290LUVkMjU1MTkx
GDAWBgNVBAMMD3d3dy53b2xmc3NsLmNvbTEfMB0GCSqGSIb3DQEJARYQaW5mb0B3
b2xmc3NsLmNvbTAqMAUGAytlcAMhAOmzb3xwiqvKVCBOZHY8Gk/3+l5K//PbuWQt
EKUMWj/ao2MwYTAdBgNVHQ4EFgQU+rpbdh3xHR1NdEjYmDtW77MU894wHwYDVR0j
BBgwFoAU+rpbdh3xHR1NdEjYmDtW77MU894wDwYDVR0TAQH/BAUwAwEB/zAOBgNV
HQ8BAf8EBAMCAYYwBQYDK2VwA0EAPZT8uGpK1DSRi4TCxqx7k2BEJOAOGXmlc0ly
r4WCWxoFKmlqEwFpJrZkmSK0jhPskRNEtBTrUSGxW3iFyMbbDw==
-----END CERTIFICATE-----
