Certificate:
    Data:
        Version: 3 (0x2)
        Serial Number: 1 (0x1)
        Signature Algorithm: ED25519
        Issuer: C = US, ST = Montana, L = Bozeman, O = wolfSSL_ed25519, OU = CA-ed25519, CN = www.wolfssl.com, emailAddress = info@wolfssl.com, UID = wolfSSL
        Validity
            Not Before: Dec 16 21:17:49 2022 GMT
            Not After : Sep 11 21:17:49 2025 GMT
        Subject: C = US, ST = Montana, L = Bozeman, O = wolfSSL_ed25519, OU = Server-ed25519, CN = www.wolfssl.com, emailAddress = info@wolfssl.com, UID = wolfSSL
        Subject Public Key Info:
            Public Key Algorithm: ED25519
                ED25519 Public-Key:
                pub:
                    23:aa:4d:60:50:e0:13:d3:3a:ed:ab:f6:a9:cc:4a:
                    fe:d7:4d:2f:d2:5b:1a:10:05:ef:5a:41:25:ce:1b:
                    53:78
        X509v3 extensions:
            X509v3 Subject Key Identifier: 
                A3:29:81:E7:90:6F:B9:60:F8:AF:CC:15:7A:AE:D7:A1:F4:B4:86:BA
            X509v3 Authority Key Identifier: 
                keyid:74:D5:38:19:5E:83:B9:03:F8:01:8A:35:35:BB:89:4C:49:B4:23:E9

            X509v3 Basic Constraints: critical
                CA:FALSE
            X509v3 Key Usage: critical
                Digital Signature, Key Encipherment, Key Agreement
            X509v3 Extended Key Usage: 
                TLS Web Server Authentication
            Netscape Cert Type: 
                SSL Server
    Signature Algorithm: ED25519
         36:3f:8d:2f:28:bd:51:83:b8:d8:9c:09:64:c4:77:fd:cd:c6:
         c3:86:b0:8d:81:e3:e9:ce:7a:2a:32:15:e9:f9:6a:75:1a:a0:
         5e:71:62:72:de:46:11:a8:9d:db:80:6b:73:38:61:0c:f3:24:
         11:45:c9:a1:d3:d2:3b:05:d5:05
-----BEGIN CERTIFICATE-----
MIICpzCCAlmgAwIBAgIBATAFBgMrZXAwgbQxCzAJBgNVBAYTAlVTMRAwDgYDVQQI
DAdNb250YW5hMRAwDgYDVQQHDAdCb3plbWFuMRgwFgYDVQQKDA93b2xmU1NMX2Vk
MjU1MTkxEzARBgNVBAsMCkNBLWVkMjU1MTkxGDAWBgNVBAMMD3d3dy53b2xmc3Ns
LmNvbTEfMB0GCSqGSIb3DQEJARYQaW5mb0B3b2xmc3NsLmNvbTEXMBUGCgmSJomT
8ixkAQEMB3dvbGZTU0wwHhcNMjIxMjE2MjExNzQ5WhcNMjUwOTExMjExNzQ5WjCB
uDELMAkGA1UEBhMCVVMxEDAOBgNVBAgMB01vbnRhbmExEDAOBgNVBAcMB0JvemVt
YW4xGDAWBgNVBAoMD3dvbGZTU0xfZWQyNTUxOTEXMBUGA1UECwwOU2VydmVyLWVk
MjU1MTkxGDAWBgNVBAMMD3d3dy53b2xmc3NsLmNvbTEfMB0GCSqGSIb3DQEJARYQ
aW5mb0B3b2xmc3NsLmNvbTEXMBUGCgmSJomT8ixkAQEMB3dvbGZTU0wwKjAFBgMr
ZXADIQAjqk1gUOAT0zrtq/apzEr+100v0lsaEAXvWkElzhtTeKOBiTCBhjAdBgNV
HQ4EFgQUoymB55BvuWD4r8wVeq7XofS0hrowHwYDVR0jBBgwFoAUdNU4GV6DuQP4
AYo1NbuJTEm0I+kwDAYDVR0TAQH/BAIwADAOBgNVHQ8BAf8EBAMCA6gwEwYDVR0l
BAwwCgYIKwYBBQUHAwEwEQYJYIZIAYb4QgEBBAQDAgZAMAUGAytlcANBADY/jS8o
vVGDuNicCWTEd/3NxsOGsI2B4+nOeioyFen5anUaoF5xYnLeRhGonduAa3M4YQzz
JBFFyaHT0jsF1QU=
-----END CERTIFICATE-----
