Certificate:
    Data:
        Version: 3 (0x2)
        Serial Number:
            24:30:a2:59:c1:a0:67:cb:4c:58:f7:69:e0:0b:15:23:ff:a3:8e:19
        Signature Algorithm: sha256WithRSAEncryption
        Issuer: C = US, ST = Montana, L = Bozeman, O = wolfSSL_2048, OU = RELATIVE_URI, CN = www.wolfssl.com, emailAddress = info@wolfssl.com
        Validity
            Not Before: Dec 16 21:17:49 2022 GMT
            Not After : Sep 11 21:17:49 2025 GMT
        Subject: C = US, ST = Montana, L = Bozeman, O = wolfSSL_2048, OU = RELATIVE_URI, CN = www.wolfssl.com, emailAddress = info@wolfssl.com
        Subject Public Key Info:
            Public Key Algorithm: rsaEncryption
                RSA Public-Key: (2048 bit)
                Modulus:
                    00:c3:03:d1:2b:fe:39:a4:32:45:3b:53:c8:84:2b:
                    2a:7c:74:9a:bd:aa:2a:52:07:47:d6:a6:36:b2:07:
                    32:8e:d0:ba:69:7b:c6:c3:44:9e:d4:81:48:fd:2d:
                    68:a2:8b:67:bb:a1:75:c8:36:2c:4a:d2:1b:f7:8b:
                    ba:cf:0d:f9:ef:ec:f1:81:1e:7b:9b:03:47:9a:bf:
                    65:cc:7f:65:24:69:a6:e8:14:89:5b:e4:34:f7:c5:
                    b0:14:93:f5:67:7b:3a:7a:78:e1:01:56:56:91:a6:
                    13:42:8d:d2:3c:40:9c:4c:ef:d1:86:df:37:51:1b:
                    0c:a1:3b:f5:f1:a3:4a:35:e4:e1:ce:96:df:1b:7e:
                    bf:4e:97:d0:10:e8:a8:08:30:81:af:20:0b:43:14:
                    c5:74:67:b4:32:82:6f:8d:86:c2:88:40:99:36:83:
                    ba:1e:40:72:22:17:d7:52:65:24:73:b0:ce:ef:19:
                    cd:ae:ff:78:6c:7b:c0:12:03:d4:4e:72:0d:50:6d:
                    3b:a3:3b:a3:99:5e:9d:c8:d9:0c:85:b3:d9:8a:d9:
                    54:26:db:6d:fa:ac:bb:ff:25:4c:c4:d1:79:f4:71:
                    d3:86:40:18:13:b0:63:b5:72:4e:30:c4:97:84:86:
                    2d:56:2f:d7:15:f7:7f:c0:ae:f5:fc:5b:e5:fb:a1:
                    ba:d3
                Exponent: 65537 (0x10001)
        X509v3 extensions:
            X509v3 Subject Key Identifier: 
                33:D8:45:66:D7:68:87:18:7E:54:0D:70:27:91:C7:26:D7:85:65:C0
            X509v3 Authority Key Identifier: 
                keyid:33:D8:45:66:D7:68:87:18:7E:54:0D:70:27:91:C7:26:D7:85:65:C0
                DirName:/C=US/ST=Montana/L=Bozeman/O=wolfSSL_2048/OU=RELATIVE_URI/CN=www.wolfssl.com/emailAddress=info@wolfssl.com
                serial:24:30:A2:59:C1:A0:67:CB:4C:58:F7:69:E0:0B:15:23:FF:A3:8E:19

            X509v3 Basic Constraints: 
                CA:FALSE
            X509v3 Subject Alternative Name: 
                URI:../relative/page.html
    Signature Algorithm: sha256WithRSAEncryption
         2d:b8:d7:52:e5:73:42:36:8a:a9:97:ed:5f:da:4b:28:40:92:
         fa:b3:05:13:67:e1:d8:9d:93:7e:d3:03:d0:21:6d:50:db:5a:
         6f:40:de:06:f6:ff:6f:67:89:61:6d:e8:3d:3e:7f:47:a9:10:
         f4:40:cf:74:1b:e7:5d:1c:2e:e3:5f:a1:d6:7a:c4:1c:98:2e:
         55:8a:b5:99:2a:2f:de:82:33:1f:e0:35:b0:e6:e9:89:47:9a:
         77:03:bb:96:a3:6c:21:02:ea:2c:6a:a8:bc:3a:f7:b9:66:53:
         55:36:98:a6:20:28:c0:f8:ef:91:7b:2b:dc:a9:5c:6e:b1:83:
         be:27:a5:7c:9a:d2:a7:a8:31:a3:f3:0d:8d:21:cf:d3:28:40:
         7c:83:18:a1:97:fa:b2:7e:54:cb:fd:33:d6:28:17:47:c1:6c:
         8a:c3:4d:f3:9c:33:df:ed:5f:ba:4b:6c:82:dc:7b:17:94:cc:
         12:a8:ed:92:64:5d:6a:37:9e:12:65:76:5a:22:76:61:00:59:
         22:4c:2a:e2:7b:a8:48:45:70:13:7d:f5:45:90:70:9b:3a:4e:
         df:d5:a7:a4:72:74:9f:e3:ca:32:4f:cb:f8:e2:8b:eb:ce:35:
         75:dc:de:a1:4d:d2:3e:6a:a9:96:77:26:00:d4:a5:19:e4:44:
         41:d4:0e:1a
-----BEGIN CERTIFICATE-----
MIIE8zCCA9ugAwIBAgIUJDCiWcGgZ8tMWPdp4AsVI/+jjhkwDQYJKoZIhvcNAQEL
BQAwgZoxCzAJBgNVBAYTAlVTMRAwDgYDVQQIDAdNb250YW5hMRAwDgYDVQQHDAdC
b3plbWFuMRUwEwYDVQQKDAx3b2xmU1NMXzIwNDgxFTATBgNVBAsMDFJFTEFUSVZF
X1VSSTEYMBYGA1UEAwwPd3d3LndvbGZzc2wuY29tMR8wHQYJKoZIhvcNAQkBFhBp
bmZvQHdvbGZzc2wuY29tMB4XDTIyMTIxNjIxMTc0OVoXDTI1MDkxMTIxMTc0OVow
gZoxCzAJBgNVBAYTAlVTMRAwDgYDVQQIDAdNb250YW5hMRAwDgYDVQQHDAdCb3pl
bWFuMRUwEwYDVQQKDAx3b2xmU1NMXzIwNDgxFTATBgNVBAsMDFJFTEFUSVZFX1VS
STEYMBYGA1UEAwwPd3d3LndvbGZzc2wuY29tMR8wHQYJKoZIhvcNAQkBFhBpbmZv
QHdvbGZzc2wuY29tMIIBIjANBgkqhkiG9w0BAQEFAAOCAQ8AMIIBCgKCAQEAwwPR
K/45pDJFO1PIhCsqfHSavaoqUgdH1qY2sgcyjtC6aXvGw0Se1IFI/S1oootnu6F1
yDYsStIb94u6zw357+zxgR57mwNHmr9lzH9lJGmm6BSJW+Q098WwFJP1Z3s6enjh
AVZWkaYTQo3SPECcTO/Rht83URsMoTv18aNKNeThzpbfG36/TpfQEOioCDCBryAL
QxTFdGe0MoJvjYbCiECZNoO6HkByIhfXUmUkc7DO7xnNrv94bHvAEgPUTnINUG07
ozujmV6dyNkMhbPZitlUJttt+qy7/yVMxNF59HHThkAYE7BjtXJOMMSXhIYtVi/X
Ffd/wK71/Fvl+6G60wIDAQABo4IBLTCCASkwHQYDVR0OBBYEFDPYRWbXaIcYflQN
cCeRxybXhWXAMIHaBgNVHSMEgdIwgc+AFDPYRWbXaIcYflQNcCeRxybXhWXAoYGg
pIGdMIGaMQswCQYDVQQGEwJVUzEQMA4GA1UECAwHTW9udGFuYTEQMA4GA1UEBwwH
Qm96ZW1hbjEVMBMGA1UECgwMd29sZlNTTF8yMDQ4MRUwEwYDVQQLDAxSRUxBVElW
RV9VUkkxGDAWBgNVBAMMD3d3dy53b2xmc3NsLmNvbTEfMB0GCSqGSIb3DQEJARYQ
aW5mb0B3b2xmc3NsLmNvbYIUJDCiWcGgZ8tMWPdp4AsVI/+jjhkwCQYDVR0TBAIw
ADAgBgNVHREEGTAXhhUuLi9yZWxhdGl2ZS9wYWdlLmh0bWwwDQYJKoZIhvcNAQEL
BQADggEBAC2411Llc0I2iqmX7V/aSyhAkvqzBRNn4didk37TA9AhbVDbWm9A3gb2
/29niWFt6D0+f0epEPRAz3Qb510cLuNfodZ6xByYLlWKtZkqL96CMx/gNbDm6YlH
mncDu5ajbCEC6ixqqLw697lmU1U2mKYgKMD475F7K9ypXG6xg74npXya0qeoMaPz
DY0hz9MoQHyDGKGX+rJ+VMv9M9YoF0fBbIrDTfOcM9/tX7pLbILcexeUzBKo7ZJk
XWo3nhJldloidmEAWSJMKuJ7qEhFcBN99UWQcJs6Tt/Vp6RydJ/jyjJPy/jii+vO
NXXc3qFN0j5qqZZ3JgDUpRnkREHUDho=
-----END CERTIFICATE-----
