Certificate:
    Data:
        Version: 3 (0x2)
        Serial Number:
            45:9c:f1:fd:f9:b8:de:31:65:89:f7:e4:d9:e4:24:25:6a:41:8e:81
        Signature Algorithm: sha256WithRSAEncryption
        Issuer: C = US, ST = Montana, L = Bozeman, O = wolfSSL_2048, OU = Programming-2048, CN = www.wolfssl.com, emailAddress = info@wolfssl.com
        Validity
            Not Before: Dec 16 21:17:49 2022 GMT
            Not After : Sep 11 21:17:49 2025 GMT
        Subject: C = US, ST = Montana, L = Bozeman, O = wolfSSL_2048, OU = Programming-2048, CN = www.wolfssl.com, emailAddress = info@wolfssl.com
        Subject Public Key Info:
            Public Key Algorithm: rsaEncryption
                RSA Public-Key: (2048 bit)
                Modulus:
                    00:c3:03:d1:2b:fe:39:a4:32:45:3b:53:c8:84:2b:
                    2a:7c:74:9a:bd:aa:2a:52:07:47:d6:a6:36:b2:07:
                    32:8e:d0:ba:69:7b:c6:c3:44:9e:d4:81:48:fd:2d:
                    68:a2:8b:67:bb:a1:75:c8:36:2c:4a:d2:1b:f7:8b:
                    ba:cf:0d:f9:ef:ec:f1:81:1e:7b:9b:03:47:9a:bf:
                    65:cc:7f:65:24:69:a6:e8:14:89:5b:e4:34:f7:c5:
                    b0:14:93:f5:67:7b:3a:7a:78:e1:01:56:56:91:a6:
                    13:42:8d:d2:3c:40:9c:4c:ef:d1:86:df:37:51:1b:
                    0c:a1:3b:f5:f1:a3:4a:35:e4:e1:ce:96:df:1b:7e:
                    bf:4e:97:d0:10:e8:a8:08:30:81:af:20:0b:43:14:
                    c5:74:67:b4:32:82:6f:8d:86:c2:88:40:99:36:83:
                    ba:1e:40:72:22:17:d7:52:65:24:73:b0:ce:ef:19:
                    cd:ae:ff:78:6c:7b:c0:12:03:d4:4e:72:0d:50:6d:
                    3b:a3:3b:a3:99:5e:9d:c8:d9:0c:85:b3:d9:8a:d9:
                    54:26:db:6d:fa:ac:bb:ff:25:4c:c4:d1:79:f4:71:
                    d3:86:40:18:13:b0:63:b5:72:4e:30:c4:97:84:86:
                    2d:56:2f:d7:15:f7:7f:c0:ae:f5:fc:5b:e5:fb:a1:
                    ba:d3
                Exponent: 65537 (0x10001)
        X509v3 extensions:
            X509v3 Subject Key Identifier: 
                33:D8:45:66:D7:68:87:18:7E:54:0D:70:27:91:C7:26:D7:85:65:C0
            X509v3 Authority Key Identifier: 
                keyid:33:D8:45:66:D7:68:87:18:7E:54:0D:70:27:91:C7:26:D7:85:65:C0
                DirName:/C=US/ST=Montana/L=Bozeman/O=wolfSSL_2048/OU=Programming-2048/CN=www.wolfssl.com/emailAddress=info@wolfssl.com
                serial:45:9C:F1:FD:F9:B8:DE:31:65:89:F7:E4:D9:E4:24:25:6A:41:8E:81

            X509v3 Basic Constraints: 
                CA:TRUE
            X509v3 Subject Alternative Name: 
                DNS:example.com
            X509v3 Key Usage: critical
                Digital Signature, Certificate Sign, CRL Sign
    Signature Algorithm: sha256WithRSAEncryption
         a9:d7:de:27:5e:35:fb:a2:0d:f1:c5:9e:d7:d4:d7:d3:11:c7:
         78:39:1c:e6:b9:af:44:34:ed:c8:b6:b8:b3:e0:31:75:1b:3a:
         f8:f0:1e:58:f5:02:44:4e:39:f6:39:52:0a:a2:a1:d9:ad:98:
         46:65:ec:f1:c4:c3:26:91:d0:98:51:45:55:91:49:52:11:27:
         e8:c5:82:ca:b9:a1:09:75:1d:b2:8f:33:76:3d:d6:8e:7c:37:
         03:ec:95:6a:43:95:5c:96:84:f1:c5:d0:b2:47:0a:78:53:c4:
         3b:04:a8:1a:73:7c:da:b6:0f:4d:80:7f:77:0a:0c:6c:8a:6b:
         78:98:c3:cc:19:90:e6:c7:9e:31:f5:f9:90:2c:72:8e:bd:7c:
         9d:3d:68:50:9d:30:32:c7:26:27:e4:52:cc:bd:c3:c6:e5:8a:
         3f:44:70:63:f1:da:ae:a0:fd:18:6a:d6:e5:12:e5:04:55:89:
         20:a9:47:67:4a:4e:4f:dc:3b:eb:06:83:81:98:7c:a4:33:61:
         e0:f4:03:33:1c:1d:65:e3:43:e2:f2:08:ca:59:ee:13:4f:32:
         5e:48:7e:62:48:2c:c9:95:7b:00:ea:a2:c1:2a:50:b5:a4:91:
         40:3f:6a:df:84:e3:66:0e:2f:a1:c8:02:c7:13:88:15:77:2a:
         d3:38:6e:0f
-----BEGIN CERTIFICATE-----
MIIFCDCCA/CgAwIBAgIURZzx/fm43jFliffk2eQkJWpBjoEwDQYJKoZIhvcNAQEL
BQAwgZ4xCzAJBgNVBAYTAlVTMRAwDgYDVQQIDAdNb250YW5hMRAwDgYDVQQHDAdC
b3plbWFuMRUwEwYDVQQKDAx3b2xmU1NMXzIwNDgxGTAXBgNVBAsMEFByb2dyYW1t
aW5nLTIwNDgxGDAWBgNVBAMMD3d3dy53b2xmc3NsLmNvbTEfMB0GCSqGSIb3DQEJ
ARYQaW5mb0B3b2xmc3NsLmNvbTAeFw0yMjEyMTYyMTE3NDlaFw0yNTA5MTEyMTE3
NDlaMIGeMQswCQYDVQQGEwJVUzEQMA4GA1UECAwHTW9udGFuYTEQMA4GA1UEBwwH
Qm96ZW1hbjEVMBMGA1UECgwMd29sZlNTTF8yMDQ4MRkwFwYDVQQLDBBQcm9ncmFt
bWluZy0yMDQ4MRgwFgYDVQQDDA93d3cud29sZnNzbC5jb20xHzAdBgkqhkiG9w0B
CQEWEGluZm9Ad29sZnNzbC5jb20wggEiMA0GCSqGSIb3DQEBAQUAA4IBDwAwggEK
AoIBAQDDA9Er/jmkMkU7U8iEKyp8dJq9qipSB0fWpjayBzKO0Lppe8bDRJ7UgUj9
LWiii2e7oXXINixK0hv3i7rPDfnv7PGBHnubA0eav2XMf2UkaaboFIlb5DT3xbAU
k/Vnezp6eOEBVlaRphNCjdI8QJxM79GG3zdRGwyhO/Xxo0o15OHOlt8bfr9Ol9AQ
6KgIMIGvIAtDFMV0Z7Qygm+NhsKIQJk2g7oeQHIiF9dSZSRzsM7vGc2u/3hse8AS
A9ROcg1QbTujO6OZXp3I2QyFs9mK2VQm2236rLv/JUzE0Xn0cdOGQBgTsGO1ck4w
xJeEhi1WL9cV93/ArvX8W+X7obrTAgMBAAGjggE6MIIBNjAdBgNVHQ4EFgQUM9hF
Ztdohxh+VA1wJ5HHJteFZcAwgd4GA1UdIwSB1jCB04AUM9hFZtdohxh+VA1wJ5HH
JteFZcChgaSkgaEwgZ4xCzAJBgNVBAYTAlVTMRAwDgYDVQQIDAdNb250YW5hMRAw
DgYDVQQHDAdCb3plbWFuMRUwEwYDVQQKDAx3b2xmU1NMXzIwNDgxGTAXBgNVBAsM
EFByb2dyYW1taW5nLTIwNDgxGDAWBgNVBAMMD3d3dy53b2xmc3NsLmNvbTEfMB0G
CSqGSIb3DQEJARYQaW5mb0B3b2xmc3NsLmNvbYIURZzx/fm43jFliffk2eQkJWpB
joEwDAYDVR0TBAUwAwEB/zAWBgNVHREEDzANggtleGFtcGxlLmNvbTAOBgNVHQ8B
Af8EBAMCAYYwDQYJKoZIhvcNAQELBQADggEBAKnX3ideNfuiDfHFntfU19MRx3g5
HOa5r0Q07ci2uLPgMXUbOvjwHlj1AkROOfY5UgqiodmtmEZl7PHEwyaR0JhRRVWR
SVIRJ+jFgsq5oQl1HbKPM3Y91o58NwPslWpDlVyWhPHF0LJHCnhTxDsEqBpzfNq2
D02Af3cKDGyKa3iYw8wZkObHnjH1+ZAsco69fJ09aFCdMDLHJifkUsy9w8blij9E
cGPx2q6g/Rhq1uUS5QRViSCpR2dKTk/cO+sGg4GYfKQzYeD0AzMcHWXjQ+LyCMpZ
7hNPMl5IfmJILMmVewDqosEqULWkkUA/at+E42YOL6HIAscTiBV3KtM4bg8=
-----END CERTIFICATE-----
