Certificate:
    Data:
        Version: 3 (0x2)
        Serial Number:
            31:01:44:60:7d:f5:1c:e0:55:a6:4f:c9:fd:9a:11:8b:31:40:77:3b
        Signature Algorithm: sha256WithRSAEncryption
        Issuer: C = US, ST = Montana, L = Bozeman, O = wolfSSL_2048, OU = URI, CN = www.wolfssl.com, emailAddress = info@wolfssl.com
        Validity
            Not Before: Dec 16 21:17:49 2022 GMT
            Not After : Sep 11 21:17:49 2025 GMT
        Subject: C = US, ST = Montana, L = Bozeman, O = wolfSSL_2048, OU = URI, CN = www.wolfssl.com, emailAddress = info@wolfssl.com
        Subject Public Key Info:
            Public Key Algorithm: rsaEncryption
                RSA Public-Key: (2048 bit)
                Modulus:
                    00:c3:03:d1:2b:fe:39:a4:32:45:3b:53:c8:84:2b:
                    2a:7c:74:9a:bd:aa:2a:52:07:47:d6:a6:36:b2:07:
                    32:8e:d0:ba:69:7b:c6:c3:44:9e:d4:81:48:fd:2d:
                    68:a2:8b:67:bb:a1:75:c8:36:2c:4a:d2:1b:f7:8b:
                    ba:cf:0d:f9:ef:ec:f1:81:1e:7b:9b:03:47:9a:bf:
                    65:cc:7f:65:24:69:a6:e8:14:89:5b:e4:34:f7:c5:
                    b0:14:93:f5:67:7b:3a:7a:78:e1:01:56:56:91:a6:
                    13:42:8d:d2:3c:40:9c:4c:ef:d1:86:df:37:51:1b:
                    0c:a1:3b:f5:f1:a3:4a:35:e4:e1:ce:96:df:1b:7e:
                    bf:4e:97:d0:10:e8:a8:08:30:81:af:20:0b:43:14:
                    c5:74:67:b4:32:82:6f:8d:86:c2:88:40:99:36:83:
                    ba:1e:40:72:22:17:d7:52:65:24:73:b0:ce:ef:19:
                    cd:ae:ff:78:6c:7b:c0:12:03:d4:4e:72:0d:50:6d:
                    3b:a3:3b:a3:99:5e:9d:c8:d9:0c:85:b3:d9:8a:d9:
                    54:26:db:6d:fa:ac:bb:ff:25:4c:c4:d1:79:f4:71:
                    d3:86:40:18:13:b0:63:b5:72:4e:30:c4:97:84:86:
                    2d:56:2f:d7:15:f7:7f:c0:ae:f5:fc:5b:e5:fb:a1:
                    ba:d3
                Exponent: 65537 (0x10001)
        X509v3 extensions:
            X509v3 Subject Key Identifier: 
                33:D8:45:66:D7:68:87:18:7E:54:0D:70:27:91:C7:26:D7:85:65:C0
            X509v3 Authority Key Identifier: 
                keyid:33:D8:45:66:D7:68:87:18:7E:54:0D:70:27:91:C7:26:D7:85:65:C0
                DirName:/C=US/ST=Montana/L=Bozeman/O=wolfSSL_2048/OU=URI/CN=www.wolfssl.com/emailAddress=info@wolfssl.com
                serial:31:01:44:60:7D:F5:1C:E0:55:A6:4F:C9:FD:9A:11:8B:31:40:77:3B

            X509v3 Basic Constraints: 
                CA:FALSE
            X509v3 Subject Alternative Name: 
                URI:https://www.wolfssl.com
    Signature Algorithm: sha256WithRSAEncryption
         1c:c6:a7:c5:f4:80:8b:30:5e:17:44:27:82:4b:bb:6a:37:ba:
         e2:89:6a:f6:b2:30:b3:9b:4a:77:b0:c7:4c:a6:7d:e3:51:48:
         00:88:60:f0:50:8a:a0:48:ac:0d:14:05:e9:c3:98:d2:84:a9:
         de:39:4e:dc:48:85:32:96:99:52:75:9e:5c:d9:c8:6a:b7:da:
         f0:e9:a3:86:95:1c:17:70:23:40:88:e8:1e:79:96:92:98:5c:
         d6:b0:83:6e:61:9c:5a:c1:72:f9:2a:12:a2:8c:b1:f8:39:dd:
         56:9a:1b:c9:57:4f:83:8f:48:77:c5:f9:31:5f:7c:05:b0:f3:
         a9:08:e1:de:c9:8c:bb:e8:3b:12:ee:29:a9:21:97:0b:d0:d9:
         75:d4:b5:5b:9f:1a:c6:44:de:e4:64:d0:de:9b:c6:08:08:33:
         ab:c1:a5:3d:7d:fd:b9:f2:0f:6e:96:e1:7f:d3:c0:c6:47:67:
         71:b2:00:87:eb:e3:6b:a6:2f:95:5d:5d:3e:3f:0f:fc:ad:68:
         a9:19:43:6b:45:dc:e3:d1:53:53:3b:25:aa:af:af:c2:95:c4:
         4a:19:29:56:bc:20:51:92:bd:93:d4:f9:bc:14:07:42:a7:9f:
         9d:fa:68:ae:a9:76:f3:64:98:5f:04:ef:2b:b1:fe:d0:cb:e4:
         2f:04:f0:62
-----BEGIN CERTIFICATE-----
MIIE2jCCA8KgAwIBAgIUMQFEYH31HOBVpk/J/ZoRizFAdzswDQYJKoZIhvcNAQEL
BQAwgZExCzAJBgNVBAYTAlVTMRAwDgYDVQQIDAdNb250YW5hMRAwDgYDVQQHDAdC
b3plbWFuMRUwEwYDVQQKDAx3b2xmU1NMXzIwNDgxDDAKBgNVBAsMA1VSSTEYMBYG
A1UEAwwPd3d3LndvbGZzc2wuY29tMR8wHQYJKoZIhvcNAQkBFhBpbmZvQHdvbGZz
c2wuY29tMB4XDTIyMTIxNjIxMTc0OVoXDTI1MDkxMTIxMTc0OVowgZExCzAJBgNV
BAYTAlVTMRAwDgYDVQQIDAdNb250YW5hMRAwDgYDVQQHDAdCb3plbWFuMRUwEwYD
VQQKDAx3b2xmU1NMXzIwNDgxDDAKBgNVBAsMA1VSSTEYMBYGA1UEAwwPd3d3Lndv
bGZzc2wuY29tMR8wHQYJKoZIhvcNAQkBFhBpbmZvQHdvbGZzc2wuY29tMIIBIjAN
BgkqhkiG9w0BAQEFAAOCAQ8AMIIBCgKCAQEAwwPRK/45pDJFO1PIhCsqfHSavaoq
UgdH1qY2sgcyjtC6aXvGw0Se1IFI/S1oootnu6F1yDYsStIb94u6zw357+zxgR57
mwNHmr9lzH9lJGmm6BSJW+Q098WwFJP1Z3s6enjhAVZWkaYTQo3SPECcTO/Rht83
URsMoTv18aNKNeThzpbfG36/TpfQEOioCDCBryALQxTFdGe0MoJvjYbCiECZNoO6
HkByIhfXUmUkc7DO7xnNrv94bHvAEgPUTnINUG07ozujmV6dyNkMhbPZitlUJttt
+qy7/yVMxNF59HHThkAYE7BjtXJOMMSXhIYtVi/XFfd/wK71/Fvl+6G60wIDAQAB
o4IBJjCCASIwHQYDVR0OBBYEFDPYRWbXaIcYflQNcCeRxybXhWXAMIHRBgNVHSME
gckwgcaAFDPYRWbXaIcYflQNcCeRxybXhWXAoYGXpIGUMIGRMQswCQYDVQQGEwJV
UzEQMA4GA1UECAwHTW9udGFuYTEQMA4GA1UEBwwHQm96ZW1hbjEVMBMGA1UECgwM
d29sZlNTTF8yMDQ4MQwwCgYDVQQLDANVUkkxGDAWBgNVBAMMD3d3dy53b2xmc3Ns
LmNvbTEfMB0GCSqGSIb3DQEJARYQaW5mb0B3b2xmc3NsLmNvbYIUMQFEYH31HOBV
pk/J/ZoRizFAdzswCQYDVR0TBAIwADAiBgNVHREEGzAZhhdodHRwczovL3d3dy53
b2xmc3NsLmNvbTANBgkqhkiG9w0BAQsFAAOCAQEAHManxfSAizBeF0Qngku7aje6
4olq9rIws5tKd7DHTKZ941FIAIhg8FCKoEisDRQF6cOY0oSp3jlO3EiFMpaZUnWe
XNnIarfa8OmjhpUcF3AjQIjoHnmWkphc1rCDbmGcWsFy+SoSooyx+DndVpobyVdP
g49Id8X5MV98BbDzqQjh3smMu+g7Eu4pqSGXC9DZddS1W58axkTe5GTQ3pvGCAgz
q8GlPX39ufIPbpbhf9PAxkdncbIAh+vja6YvlV1dPj8P/K1oqRlDa0Xc49FTUzsl
qq+vwpXEShkpVrwgUZK9k9T5vBQHQqefnfporql282SYXwTvK7H+0MvkLwTwYg==
-----END CERTIFICATE-----
