Certificate:
    Data:
        Version: 3 (0x2)
        Serial Number:
            73:fb:54:d6:03:7d:4c:07:84:e2:00:11:8c:dd:90:dc:48:8d:ea:53
        Signature Algorithm: sha256WithRSAEncryption
        Issuer: C = US, ST = Montana, L = Bozeman, O = wolfSSL_2048, OU = Programming-2048, CN = www.wolfssl.com, emailAddress = info@wolfssl.com
        Validity
            Not Before: Dec 16 21:17:49 2022 GMT
            Not After : Sep 11 21:17:49 2025 GMT
        Subject: C = US, ST = Montana, L = Bozeman, O = wolfSSL_2048, OU = Programming-2048, CN = www.wolfssl.com, emailAddress = info@wolfssl.com
        Subject Public Key Info:
            Public Key Algorithm: rsaEncryption
                RSA Public-Key: (2048 bit)
                Modulus:
                    00:c3:03:d1:2b:fe:39:a4:32:45:3b:53:c8:84:2b:
                    2a:7c:74:9a:bd:aa:2a:52:07:47:d6:a6:36:b2:07:
                    32:8e:d0:ba:69:7b:c6:c3:44:9e:d4:81:48:fd:2d:
                    68:a2:8b:67:bb:a1:75:c8:36:2c:4a:d2:1b:f7:8b:
                    ba:cf:0d:f9:ef:ec:f1:81:1e:7b:9b:03:47:9a:bf:
                    65:cc:7f:65:24:69:a6:e8:14:89:5b:e4:34:f7:c5:
                    b0:14:93:f5:67:7b:3a:7a:78:e1:01:56:56:91:a6:
                    13:42:8d:d2:3c:40:9c:4c:ef:d1:86:df:37:51:1b:
                    0c:a1:3b:f5:f1:a3:4a:35:e4:e1:ce:96:df:1b:7e:
                    bf:4e:97:d0:10:e8:a8:08:30:81:af:20:0b:43:14:
                    c5:74:67:b4:32:82:6f:8d:86:c2:88:40:99:36:83:
                    ba:1e:40:72:22:17:d7:52:65:24:73:b0:ce:ef:19:
                    cd:ae:ff:78:6c:7b:c0:12:03:d4:4e:72:0d:50:6d:
                    3b:a3:3b:a3:99:5e:9d:c8:d9:0c:85:b3:d9:8a:d9:
                    54:26:db:6d:fa:ac:bb:ff:25:4c:c4:d1:79:f4:71:
                    d3:86:40:18:13:b0:63:b5:72:4e:30:c4:97:84:86:
                    2d:56:2f:d7:15:f7:7f:c0:ae:f5:fc:5b:e5:fb:a1:
                    ba:d3
                Exponent: 65537 (0x10001)
        X509v3 extensions:
            X509v3 Subject Key Identifier: 
                33:D8:45:66:D7:68:87:18:7E:54:0D:70:27:91:C7:26:D7:85:65:C0
            X509v3 Authority Key Identifier: 
                keyid:33:D8:45:66:D7:68:87:18:7E:54:0D:70:27:91:C7:26:D7:85:65:C0
                DirName:/C=US/ST=Montana/L=Bozeman/O=wolfSSL_2048/OU=Programming-2048/CN=www.wolfssl.com/emailAddress=info@wolfssl.com
                serial:73:FB:54:D6:03:7D:4C:07:84:E2:00:11:8C:DD:90:DC:48:8D:EA:53

            X509v3 Basic Constraints: 
                CA:TRUE
            X509v3 Subject Alternative Name: 
                DNS:example.com, IP Address:127.0.0.1
            X509v3 Extended Key Usage: 
                TLS Web Server Authentication, TLS Web Client Authentication
    Signature Algorithm: sha256WithRSAEncryption
         36:cb:bc:c5:52:9a:66:cd:91:4d:8f:27:9f:b3:64:80:0e:64:
         b4:cb:1a:cd:75:9e:82:7c:55:67:d8:9f:90:a3:34:96:99:43:
         f7:49:53:a2:58:85:a0:b3:83:4f:af:b8:15:8a:88:1e:f3:60:
         f4:7c:94:b5:58:68:f1:2a:13:80:34:c2:6f:a5:f8:7e:76:16:
         81:4f:36:8b:c3:59:bd:51:dd:60:87:d7:1d:96:44:69:07:3c:
         8f:28:56:b1:11:5c:4e:81:3f:57:25:fd:65:dd:07:cf:17:0a:
         01:7e:4e:3f:8e:73:db:fe:f4:f2:c5:ff:a3:76:a8:74:46:2e:
         47:0d:b0:ed:0a:c0:c5:0a:65:d3:dc:62:b2:e0:1e:8e:bd:f3:
         bd:af:af:66:84:36:92:e2:3b:80:d0:57:a6:41:a3:62:d1:a6:
         6d:14:6c:cd:82:b1:c1:c1:35:55:ae:59:49:a8:26:52:bd:ef:
         1b:2c:1f:9d:39:04:d2:82:a0:6b:39:71:59:33:82:ba:55:6c:
         97:f2:1b:5b:e0:4d:e2:cf:89:e7:26:b8:2c:6c:9f:83:d6:ed:
         4e:2f:75:a9:30:4e:01:95:0d:4f:83:5e:c8:af:7f:67:ea:53:
         bf:ca:9b:1f:d4:ff:36:97:02:71:8e:33:de:e2:58:27:aa:70:
         0c:5b:de:0e
-----BEGIN CERTIFICATE-----
MIIFHTCCBAWgAwIBAgIUc/tU1gN9TAeE4gARjN2Q3EiN6lMwDQYJKoZIhvcNAQEL
BQAwgZ4xCzAJBgNVBAYTAlVTMRAwDgYDVQQIDAdNb250YW5hMRAwDgYDVQQHDAdC
b3plbWFuMRUwEwYDVQQKDAx3b2xmU1NMXzIwNDgxGTAXBgNVBAsMEFByb2dyYW1t
aW5nLTIwNDgxGDAWBgNVBAMMD3d3dy53b2xmc3NsLmNvbTEfMB0GCSqGSIb3DQEJ
ARYQaW5mb0B3b2xmc3NsLmNvbTAeFw0yMjEyMTYyMTE3NDlaFw0yNTA5MTEyMTE3
NDlaMIGeMQswCQYDVQQGEwJVUzEQMA4GA1UECAwHTW9udGFuYTEQMA4GA1UEBwwH
Qm96ZW1hbjEVMBMGA1UECgwMd29sZlNTTF8yMDQ4MRkwFwYDVQQLDBBQcm9ncmFt
bWluZy0yMDQ4MRgwFgYDVQQDDA93d3cud29sZnNzbC5jb20xHzAdBgkqhkiG9w0B
CQEWEGluZm9Ad29sZnNzbC5jb20wggEiMA0GCSqGSIb3DQEBAQUAA4IBDwAwggEK
AoIBAQDDA9Er/jmkMkU7U8iEKyp8dJq9qipSB0fWpjayBzKO0Lppe8bDRJ7UgUj9
LWiii2e7oXXINixK0hv3i7rPDfnv7PGBHnubA0eav2XMf2UkaaboFIlb5DT3xbAU
k/Vnezp6eOEBVlaRphNCjdI8QJxM79GG3zdRGwyhO/Xxo0o15OHOlt8bfr9Ol9AQ
6KgIMIGvIAtDFMV0Z7Qygm+NhsKIQJk2g7oeQHIiF9dSZSRzsM7vGc2u/3hse8AS
A9ROcg1QbTujO6OZXp3I2QyFs9mK2VQm2236rLv/JUzE0Xn0cdOGQBgTsGO1ck4w
xJeEhi1WL9cV93/ArvX8W+X7obrTAgMBAAGjggFPMIIBSzAdBgNVHQ4EFgQUM9hF
Ztdohxh+VA1wJ5HHJteFZcAwgd4GA1UdIwSB1jCB04AUM9hFZtdohxh+VA1wJ5HH
JteFZcChgaSkgaEwgZ4xCzAJBgNVBAYTAlVTMRAwDgYDVQQIDAdNb250YW5hMRAw
DgYDVQQHDAdCb3plbWFuMRUwEwYDVQQKDAx3b2xmU1NMXzIwNDgxGTAXBgNVBAsM
EFByb2dyYW1taW5nLTIwNDgxGDAWBgNVBAMMD3d3dy53b2xmc3NsLmNvbTEfMB0G
CSqGSIb3DQEJARYQaW5mb0B3b2xmc3NsLmNvbYIUc/tU1gN9TAeE4gARjN2Q3EiN
6lMwDAYDVR0TBAUwAwEB/zAcBgNVHREEFTATggtleGFtcGxlLmNvbYcEfwAAATAd
BgNVHSUEFjAUBggrBgEFBQcDAQYIKwYBBQUHAwIwDQYJKoZIhvcNAQELBQADggEB
ADbLvMVSmmbNkU2PJ5+zZIAOZLTLGs11noJ8VWfYn5CjNJaZQ/dJU6JYhaCzg0+v
uBWKiB7zYPR8lLVYaPEqE4A0wm+l+H52FoFPNovDWb1R3WCH1x2WRGkHPI8oVrER
XE6BP1cl/WXdB88XCgF+Tj+Oc9v+9PLF/6N2qHRGLkcNsO0KwMUKZdPcYrLgHo69
872vr2aENpLiO4DQV6ZBo2LRpm0UbM2CscHBNVWuWUmoJlK97xssH505BNKCoGs5
cVkzgrpVbJfyG1vgTeLPiecmuCxsn4PW7U4vdakwTgGVDU+DXsivf2fqU7/Kmx/U
/zaXAnGOM97iWCeqcAxb3g4=
-----END CERTIFICATE-----
