Certificate:
    Data:
        Version: 3 (0x2)
        Serial Number:
            74:65:e7:ce:97:a7:4c:9e:ec:b7:35:9a:21:93:6d:b1:f8:a1:53:95
        Signature Algorithm: sha256WithRSAEncryption
        Issuer: C = US, ST = Montana, L = Bozeman, O = wolfSSL_2048, OU = CRL_DIST, CN = www.wolfssl.com, emailAddress = info@wolfssl.com
        Validity
            Not Before: Dec 16 21:17:49 2022 GMT
            Not After : Sep 11 21:17:49 2025 GMT
        Subject: C = US, ST = Montana, L = Bozeman, O = wolfSSL_2048, OU = CRL_DIST, CN = www.wolfssl.com, emailAddress = info@wolfssl.com
        Subject Public Key Info:
            Public Key Algorithm: rsaEncryption
                RSA Public-Key: (2048 bit)
                Modulus:
                    00:c3:03:d1:2b:fe:39:a4:32:45:3b:53:c8:84:2b:
                    2a:7c:74:9a:bd:aa:2a:52:07:47:d6:a6:36:b2:07:
                    32:8e:d0:ba:69:7b:c6:c3:44:9e:d4:81:48:fd:2d:
                    68:a2:8b:67:bb:a1:75:c8:36:2c:4a:d2:1b:f7:8b:
                    ba:cf:0d:f9:ef:ec:f1:81:1e:7b:9b:03:47:9a:bf:
                    65:cc:7f:65:24:69:a6:e8:14:89:5b:e4:34:f7:c5:
                    b0:14:93:f5:67:7b:3a:7a:78:e1:01:56:56:91:a6:
                    13:42:8d:d2:3c:40:9c:4c:ef:d1:86:df:37:51:1b:
                    0c:a1:3b:f5:f1:a3:4a:35:e4:e1:ce:96:df:1b:7e:
                    bf:4e:97:d0:10:e8:a8:08:30:81:af:20:0b:43:14:
                    c5:74:67:b4:32:82:6f:8d:86:c2:88:40:99:36:83:
                    ba:1e:40:72:22:17:d7:52:65:24:73:b0:ce:ef:19:
                    cd:ae:ff:78:6c:7b:c0:12:03:d4:4e:72:0d:50:6d:
                    3b:a3:3b:a3:99:5e:9d:c8:d9:0c:85:b3:d9:8a:d9:
                    54:26:db:6d:fa:ac:bb:ff:25:4c:c4:d1:79:f4:71:
                    d3:86:40:18:13:b0:63:b5:72:4e:30:c4:97:84:86:
                    2d:56:2f:d7:15:f7:7f:c0:ae:f5:fc:5b:e5:fb:a1:
                    ba:d3
                Exponent: 65537 (0x10001)
        X509v3 extensions:
            X509v3 CRL Distribution Points: 

                Full Name:
                  URI:http://www.wolfssl.com/crl.pem

    Signature Algorithm: sha256WithRSAEncryption
         83:23:c3:dc:8e:65:2d:00:a3:09:24:f0:c5:6a:68:a6:b7:53:
         9a:4d:7c:bb:3c:e6:c5:a0:e5:0e:2e:47:33:70:a5:41:a5:3b:
         be:62:61:9f:a9:58:f2:6a:d3:e7:8b:38:57:34:65:b1:5f:64:
         37:6b:81:46:f7:f5:ba:28:3a:c8:76:7b:b2:74:6c:45:de:7e:
         1c:57:8e:17:f1:b1:98:99:5e:21:6a:bd:c1:cd:3a:43:33:2f:
         aa:a9:a8:37:63:0e:ee:8c:83:3d:60:0f:79:45:20:5d:78:08:
         d8:c2:7d:6d:95:31:1e:ca:88:bc:9f:d3:c5:e9:e6:76:9e:72:
         c2:93:75:61:63:e2:c6:2e:0a:56:1f:1e:e0:ea:31:05:30:da:
         68:11:85:3c:c2:4c:68:98:0a:ed:11:6f:a8:f5:25:d1:81:bd:
         98:d1:b5:53:e0:09:dc:f4:e8:49:f0:56:ce:f7:f2:a4:f6:56:
         e4:18:4b:99:04:9b:2c:48:62:19:6c:8c:38:17:95:8e:98:7d:
         b8:12:05:fb:6c:a2:d3:b5:b2:f8:34:b9:ba:c2:76:47:75:1a:
         73:cc:61:0c:b1:f2:12:52:41:fc:3f:aa:85:b6:24:b6:bd:c8:
         7b:0c:11:bd:03:89:eb:38:45:db:18:6d:e3:56:30:41:f3:14:
         2e:f9:ea:b1
-----BEGIN CERTIFICATE-----
MIID7zCCAtegAwIBAgIUdGXnzpenTJ7stzWaIZNtsfihU5UwDQYJKoZIhvcNAQEL
BQAwgZYxCzAJBgNVBAYTAlVTMRAwDgYDVQQIDAdNb250YW5hMRAwDgYDVQQHDAdC
b3plbWFuMRUwEwYDVQQKDAx3b2xmU1NMXzIwNDgxETAPBgNVBAsMCENSTF9ESVNU
MRgwFgYDVQQDDA93d3cud29sZnNzbC5jb20xHzAdBgkqhkiG9w0BCQEWEGluZm9A
d29sZnNzbC5jb20wHhcNMjIxMjE2MjExNzQ5WhcNMjUwOTExMjExNzQ5WjCBljEL
MAkGA1UEBhMCVVMxEDAOBgNVBAgMB01vbnRhbmExEDAOBgNVBAcMB0JvemVtYW4x
FTATBgNVBAoMDHdvbGZTU0xfMjA0ODERMA8GA1UECwwIQ1JMX0RJU1QxGDAWBgNV
BAMMD3d3dy53b2xmc3NsLmNvbTEfMB0GCSqGSIb3DQEJARYQaW5mb0B3b2xmc3Ns
LmNvbTCCASIwDQYJKoZIhvcNAQEBBQADggEPADCCAQoCggEBAMMD0Sv+OaQyRTtT
yIQrKnx0mr2qKlIHR9amNrIHMo7Quml7xsNEntSBSP0taKKLZ7uhdcg2LErSG/eL
us8N+e/s8YEee5sDR5q/Zcx/ZSRppugUiVvkNPfFsBST9Wd7Onp44QFWVpGmE0KN
0jxAnEzv0YbfN1EbDKE79fGjSjXk4c6W3xt+v06X0BDoqAgwga8gC0MUxXRntDKC
b42GwohAmTaDuh5AciIX11JlJHOwzu8Zza7/eGx7wBID1E5yDVBtO6M7o5lencjZ
DIWz2YrZVCbbbfqsu/8lTMTRefRx04ZAGBOwY7VyTjDEl4SGLVYv1xX3f8Cu9fxb
5fuhutMCAwEAAaMzMDEwLwYDVR0fBCgwJjAkoCKgIIYeaHR0cDovL3d3dy53b2xm
c3NsLmNvbS9jcmwucGVtMA0GCSqGSIb3DQEBCwUAA4IBAQCDI8PcjmUtAKMJJPDF
amimt1OaTXy7PObFoOUOLkczcKVBpTu+YmGfqVjyatPnizhXNGWxX2Q3a4FG9/W6
KDrIdnuydGxF3n4cV44X8bGYmV4har3BzTpDMy+qqag3Yw7ujIM9YA95RSBdeAjY
wn1tlTEeyoi8n9PF6eZ2nnLCk3VhY+LGLgpWHx7g6jEFMNpoEYU8wkxomArtEW+o
9SXRgb2Y0bVT4Anc9OhJ8FbO9/Kk9lbkGEuZBJssSGIZbIw4F5WOmH24EgX7bKLT
tbL4NLm6wnZHdRpzzGEMsfISUkH8P6qFtiS2vch7DBG9A4nrOEXbGG3jVjBB8xQu
+eqx
-----END CERTIFICATE-----
