Certificate:
    Data:
        Version: 3 (0x2)
        Serial Number: 1 (0x1)
        Signature Algorithm: sha256WithRSAEncryption
        Issuer: C = US, ST = Montana, L = Bozeman, O = Sawtooth, OU = Consulting, CN = www.wolfssl.com, emailAddress = info@wolfssl.com
        Validity
            Not Before: Dec 16 21:17:49 2022 GMT
            Not After : Sep 11 21:17:49 2025 GMT
        Subject: C = US, ST = Montana, L = Bozeman, O = wolfSSL, OU = NoCaBool, CN = www.wolfssl.com, emailAddress = info@wolfssl.com
        Subject Public Key Info:
            Public Key Algorithm: rsaEncryption
                RSA Public-Key: (2048 bit)
                Modulus:
                    00:eb:52:8d:b0:d8:01:6b:f7:16:50:fe:34:a3:86:
                    1b:e8:49:50:b1:6f:6a:3f:af:de:6c:d1:af:25:9c:
                    ab:21:fc:d1:3f:45:dc:86:1d:57:04:9e:9c:56:ff:
                    66:af:78:4b:85:7c:71:bc:6b:79:a9:63:21:f4:88:
                    1e:6f:b9:53:58:b0:4d:93:b5:a7:e5:9c:80:3b:d9:
                    fb:f4:47:fe:46:f1:e7:7e:59:1d:e7:21:11:6b:96:
                    a0:d7:3b:de:ba:06:61:eb:03:d4:74:b7:b4:93:f4:
                    38:34:db:9f:58:dc:d7:fa:ee:fe:56:69:b8:97:af:
                    5b:ca:56:40:30:11:1c:26:40:a6:1f:1c:bb:d6:e0:
                    ff:1e:a4:57:35:e3:74:ab:49:a1:87:95:2f:8a:77:
                    0a:b1:65:a0:8f:d3:5a:ac:04:93:cc:50:83:42:64:
                    ab:12:fa:2e:af:2b:ea:b1:73:7b:ce:33:c3:68:23:
                    27:f0:75:f4:0b:82:1e:ae:21:00:4f:fc:26:17:75:
                    84:9b:e0:31:de:59:83:aa:45:f9:82:cb:3e:dd:22:
                    ee:ce:7c:0c:06:dc:cc:61:25:7e:7a:64:e9:c5:06:
                    57:d3:c1:61:53:59:82:32:c6:cf:1d:70:87:44:3d:
                    b7:52:e5:56:67:e3:16:7b:bb:48:98:8d:54:c1:85:
                    aa:57
                Exponent: 65537 (0x10001)
        X509v3 extensions:
            X509v3 Subject Key Identifier: 
                EF:F4:8B:86:CE:75:EF:DC:E1:F8:23:1E:1A:B8:3B:8D:98:09:88:E7
            X509v3 Authority Key Identifier: 
                keyid:27:8E:67:11:74:C3:26:1D:3F:ED:33:63:B3:A4:D8:1D:30:E5:E8:D5
                DirName:/C=US/ST=Montana/L=Bozeman/O=Sawtooth/OU=Consulting/CN=www.wolfssl.com/emailAddress=info@wolfssl.com
                serial:2C:80:CE:DB:47:9D:07:66:92:3D:68:D7:CA:AC:90:4F:CA:69:41:4B

            X509v3 Basic Constraints: 
                CA:FALSE, pathlen:0
            X509v3 Key Usage: 
                Digital Signature
            X509v3 Extended Key Usage: 
                TLS Web Client Authentication, TLS Web Server Authentication
    Signature Algorithm: sha256WithRSAEncryption
         22:6e:8b:b8:04:1b:db:85:37:85:51:80:3a:7f:68:19:e4:08:
         d5:dc:e3:a3:2a:a0:20:d4:bd:fa:d5:78:58:10:40:92:e1:ea:
         17:36:d7:9c:71:6c:df:e3:ed:71:78:e3:8c:82:b5:dc:cb:82:
         7d:26:65:b5:31:98:b4:8b:76:19:c5:72:18:9d:b5:fc:de:2d:
         eb:8e:07:db:5a:d9:13:34:ed:73:89:74:22:d2:b4:f9:bd:75:
         4f:5a:ab:6d:fc:e8:8d:cd:32:22:f8:b2:a7:60:dd:3e:6e:a4:
         1d:7f:02:53:c8:50:36:0e:90:55:43:73:6a:a3:ec:82:50:af:
         56:0a:93:39:a9:43:48:55:fe:e8:94:84:d8:41:81:b8:3b:3e:
         01:95:d7:69:b8:ec:a6:b4:73:73:2d:a4:30:d0:09:ad:6d:2c:
         20:da:cd:30:ce:00:9f:81:cc:52:71:0e:32:1c:10:a4:f4:c4:
         55:c5:b2:b2:66:97:bf:3b:d0:ae:1b:9b:1d:6c:4c:3f:2d:1a:
         76:9c:31:96:dc:53:45:22:b1:e8:52:c6:54:25:85:d5:89:1f:
         db:3a:e7:97:b4:1e:0d:17:94:21:1e:f9:be:d6:b7:c1:92:a7:
         e2:d6:51:f4:c0:40:2f:17:6a:ab:85:5e:c4:0c:6e:cb:75:df:
         f7:ba:0d:f0
-----BEGIN CERTIFICATE-----
MIIE2DCCA8CgAwIBAgIBATANBgkqhkiG9w0BAQsFADCBlDELMAkGA1UEBhMCVVMx
EDAOBgNVBAgMB01vbnRhbmExEDAOBgNVBAcMB0JvemVtYW4xETAPBgNVBAoMCFNh
d3Rvb3RoMRMwEQYDVQQLDApDb25zdWx0aW5nMRgwFgYDVQQDDA93d3cud29sZnNz
bC5jb20xHzAdBgkqhkiG9w0BCQEWEGluZm9Ad29sZnNzbC5jb20wHhcNMjIxMjE2
MjExNzQ5WhcNMjUwOTExMjExNzQ5WjCBkTELMAkGA1UEBhMCVVMxEDAOBgNVBAgM
B01vbnRhbmExEDAOBgNVBAcMB0JvemVtYW4xEDAOBgNVBAoMB3dvbGZTU0wxETAP
BgNVBAsMCE5vQ2FCb29sMRgwFgYDVQQDDA93d3cud29sZnNzbC5jb20xHzAdBgkq
hkiG9w0BCQEWEGluZm9Ad29sZnNzbC5jb20wggEiMA0GCSqGSIb3DQEBAQUAA4IB
DwAwggEKAoIBAQDrUo2w2AFr9xZQ/jSjhhvoSVCxb2o/r95s0a8lnKsh/NE/RdyG
HVcEnpxW/2aveEuFfHG8a3mpYyH0iB5vuVNYsE2TtaflnIA72fv0R/5G8ed+WR3n
IRFrlqDXO966BmHrA9R0t7ST9Dg0259Y3Nf67v5WabiXr1vKVkAwERwmQKYfHLvW
4P8epFc143SrSaGHlS+KdwqxZaCP01qsBJPMUINCZKsS+i6vK+qxc3vOM8NoIyfw
dfQLgh6uIQBP/CYXdYSb4DHeWYOqRfmCyz7dIu7OfAwG3MxhJX56ZOnFBlfTwWFT
WYIyxs8dcIdEPbdS5VZn4xZ7u0iYjVTBhapXAgMBAAGjggE0MIIBMDAdBgNVHQ4E
FgQU7/SLhs5179zh+CMeGrg7jZgJiOcwgdQGA1UdIwSBzDCByYAUJ45nEXTDJh0/
7TNjs6TYHTDl6NWhgZqkgZcwgZQxCzAJBgNVBAYTAlVTMRAwDgYDVQQIDAdNb250
YW5hMRAwDgYDVQQHDAdCb3plbWFuMREwDwYDVQQKDAhTYXd0b290aDETMBEGA1UE
CwwKQ29uc3VsdGluZzEYMBYGA1UEAwwPd3d3LndvbGZzc2wuY29tMR8wHQYJKoZI
hvcNAQkBFhBpbmZvQHdvbGZzc2wuY29tghQsgM7bR50HZpI9aNfKrJBPymlBSzAM
BgNVHRMEBTADAgEAMAsGA1UdDwQEAwIHgDAdBgNVHSUEFjAUBggrBgEFBQcDAgYI
KwYBBQUHAwEwDQYJKoZIhvcNAQELBQADggEBACJui7gEG9uFN4VRgDp/aBnkCNXc
46MqoCDUvfrVeFgQQJLh6hc215xxbN/j7XF444yCtdzLgn0mZbUxmLSLdhnFchid
tfzeLeuOB9ta2RM07XOJdCLStPm9dU9aq2386I3NMiL4sqdg3T5upB1/AlPIUDYO
kFVDc2qj7IJQr1YKkzmpQ0hV/uiUhNhBgbg7PgGV12m47Ka0c3MtpDDQCa1tLCDa
zTDOAJ+BzFJxDjIcEKT0xFXFsrJml7870K4bmx1sTD8tGnacMZbcU0UisehSxlQl
hdWJH9s655e0Hg0XlCEe+b7Wt8GSp+LWUfTAQC8XaquFXsQMbst13/e6DfA=
-----END CERTIFICATE-----
Certificate:
    Data:
        Version: 3 (0x2)
        Serial Number:
            2c:80:ce:db:47:9d:07:66:92:3d:68:d7:ca:ac:90:4f:ca:69:41:4b
        Signature Algorithm: sha256WithRSAEncryption
        Issuer: C = US, ST = Montana, L = Bozeman, O = Sawtooth, OU = Consulting, CN = www.wolfssl.com, emailAddress = info@wolfssl.com
        Validity
            Not Before: Dec 16 21:17:49 2022 GMT
            Not After : Sep 11 21:17:49 2025 GMT
        Subject: C = US, ST = Montana, L = Bozeman, O = Sawtooth, OU = Consulting, CN = www.wolfssl.com, emailAddress = info@wolfssl.com
        Subject Public Key Info:
            Public Key Algorithm: rsaEncryption
                RSA Public-Key: (2048 bit)
                Modulus:
                    00:bf:0c:ca:2d:14:b2:1e:84:42:5b:cd:38:1f:4a:
                    f2:4d:75:10:f1:b6:35:9f:df:ca:7d:03:98:d3:ac:
                    de:03:66:ee:2a:f1:d8:b0:7d:6e:07:54:0b:10:98:
                    21:4d:80:cb:12:20:e7:cc:4f:de:45:7d:c9:72:77:
                    32:ea:ca:90:bb:69:52:10:03:2f:a8:f3:95:c5:f1:
                    8b:62:56:1b:ef:67:6f:a4:10:41:95:ad:0a:9b:e3:
                    a5:c0:b0:d2:70:76:50:30:5b:a8:e8:08:2c:7c:ed:
                    a7:a2:7a:8d:38:29:1c:ac:c7:ed:f2:7c:95:b0:95:
                    82:7d:49:5c:38:cd:77:25:ef:bd:80:75:53:94:3c:
                    3d:ca:63:5b:9f:15:b5:d3:1d:13:2f:19:d1:3c:db:
                    76:3a:cc:b8:7d:c9:e5:c2:d7:da:40:6f:d8:21:dc:
                    73:1b:42:2d:53:9c:fe:1a:fc:7d:ab:7a:36:3f:98:
                    de:84:7c:05:67:ce:6a:14:38:87:a9:f1:8c:b5:68:
                    cb:68:7f:71:20:2b:f5:a0:63:f5:56:2f:a3:26:d2:
                    b7:6f:b1:5a:17:d7:38:99:08:fe:93:58:6f:fe:c3:
                    13:49:08:16:0b:a7:4d:67:00:52:31:67:23:4e:98:
                    ed:51:45:1d:b9:04:d9:0b:ec:d8:28:b3:4b:bd:ed:
                    36:79
                Exponent: 65537 (0x10001)
        X509v3 extensions:
            X509v3 Subject Key Identifier: 
                27:8E:67:11:74:C3:26:1D:3F:ED:33:63:B3:A4:D8:1D:30:E5:E8:D5
            X509v3 Authority Key Identifier: 
                keyid:27:8E:67:11:74:C3:26:1D:3F:ED:33:63:B3:A4:D8:1D:30:E5:E8:D5
                DirName:/C=US/ST=Montana/L=Bozeman/O=Sawtooth/OU=Consulting/CN=www.wolfssl.com/emailAddress=info@wolfssl.com
                serial:2C:80:CE:DB:47:9D:07:66:92:3D:68:D7:CA:AC:90:4F:CA:69:41:4B

            X509v3 Basic Constraints: 
                CA:TRUE
            X509v3 Subject Alternative Name: 
                DNS:example.com, IP Address:127.0.0.1
            X509v3 Extended Key Usage: 
                TLS Web Server Authentication, TLS Web Client Authentication
    Signature Algorithm: sha256WithRSAEncryption
         ae:b0:a4:35:8e:8a:1b:a6:eb:b3:a2:57:cf:3a:1f:dc:6e:bc:
         d2:d0:a6:4a:8f:88:0a:6e:74:d5:d1:7c:d1:44:b1:d4:3b:17:
         03:09:5a:46:ed:08:08:cf:f1:fd:20:07:67:c0:97:ec:35:f3:
         75:ca:20:61:98:3e:f5:4d:be:e6:9d:75:1e:e4:03:ad:8c:a6:
         1e:3d:ec:e4:1a:92:5b:f9:a3:ad:83:ca:4f:cd:aa:38:bb:6e:
         ae:ad:fa:a7:46:f1:8b:73:ec:09:23:bc:f2:18:e5:b7:92:86:
         3e:a4:75:60:c7:3d:0f:3f:83:00:c3:06:08:9c:d1:54:d6:ba:
         6d:95:3d:34:a1:be:24:91:cc:20:03:11:5b:72:1c:d4:65:d0:
         11:88:75:26:04:26:ef:66:70:e6:3b:38:87:9c:53:71:1b:09:
         51:70:50:99:4c:31:0c:62:44:57:30:60:04:fc:12:2c:a3:24:
         b4:f7:11:d5:0e:b5:21:0b:ed:86:11:67:4d:36:fa:57:a0:59:
         55:21:b3:6d:e4:77:5e:ec:7e:f0:09:13:8e:99:98:b2:e1:82:
         b6:4b:3e:0f:41:a6:0c:cd:49:99:7e:e4:8a:cb:37:ed:53:cf:
         86:5d:a9:26:a8:e5:01:25:5a:b4:bc:25:35:f1:fa:5a:5c:ce:
         d4:b8:9a:2c
-----BEGIN CERTIFICATE-----
MIIE/zCCA+egAwIBAgIULIDO20edB2aSPWjXyqyQT8ppQUswDQYJKoZIhvcNAQEL
BQAwgZQxCzAJBgNVBAYTAlVTMRAwDgYDVQQIDAdNb250YW5hMRAwDgYDVQQHDAdC
b3plbWFuMREwDwYDVQQKDAhTYXd0b290aDETMBEGA1UECwwKQ29uc3VsdGluZzEY
MBYGA1UEAwwPd3d3LndvbGZzc2wuY29tMR8wHQYJKoZIhvcNAQkBFhBpbmZvQHdv
bGZzc2wuY29tMB4XDTIyMTIxNjIxMTc0OVoXDTI1MDkxMTIxMTc0OVowgZQxCzAJ
BgNVBAYTAlVTMRAwDgYDVQQIDAdNb250YW5hMRAwDgYDVQQHDAdCb3plbWFuMREw
DwYDVQQKDAhTYXd0b290aDETMBEGA1UECwwKQ29uc3VsdGluZzEYMBYGA1UEAwwP
d3d3LndvbGZzc2wuY29tMR8wHQYJKoZIhvcNAQkBFhBpbmZvQHdvbGZzc2wuY29t
MIIBIjANBgkqhkiG9w0BAQEFAAOCAQ8AMIIBCgKCAQEAvwzKLRSyHoRCW804H0ry
TXUQ8bY1n9/KfQOY06zeA2buKvHYsH1uB1QLEJghTYDLEiDnzE/eRX3Jcncy6sqQ
u2lSEAMvqPOVxfGLYlYb72dvpBBBla0Km+OlwLDScHZQMFuo6AgsfO2nonqNOCkc
rMft8nyVsJWCfUlcOM13Je+9gHVTlDw9ymNbnxW10x0TLxnRPNt2Osy4fcnlwtfa
QG/YIdxzG0ItU5z+Gvx9q3o2P5jehHwFZ85qFDiHqfGMtWjLaH9xICv1oGP1Vi+j
JtK3b7FaF9c4mQj+k1hv/sMTSQgWC6dNZwBSMWcjTpjtUUUduQTZC+zYKLNLve02
eQIDAQABo4IBRTCCAUEwHQYDVR0OBBYEFCeOZxF0wyYdP+0zY7Ok2B0w5ejVMIHU
BgNVHSMEgcwwgcmAFCeOZxF0wyYdP+0zY7Ok2B0w5ejVoYGapIGXMIGUMQswCQYD
VQQGEwJVUzEQMA4GA1UECAwHTW9udGFuYTEQMA4GA1UEBwwHQm96ZW1hbjERMA8G
A1UECgwIU2F3dG9vdGgxEzARBgNVBAsMCkNvbnN1bHRpbmcxGDAWBgNVBAMMD3d3
dy53b2xmc3NsLmNvbTEfMB0GCSqGSIb3DQEJARYQaW5mb0B3b2xmc3NsLmNvbYIU
LIDO20edB2aSPWjXyqyQT8ppQUswDAYDVR0TBAUwAwEB/zAcBgNVHREEFTATggtl
eGFtcGxlLmNvbYcEfwAAATAdBgNVHSUEFjAUBggrBgEFBQcDAQYIKwYBBQUHAwIw
DQYJKoZIhvcNAQELBQADggEBAK6wpDWOihum67OiV886H9xuvNLQpkqPiApudNXR
fNFEsdQ7FwMJWkbtCAjP8f0gB2fAl+w183XKIGGYPvVNvuaddR7kA62Mph497OQa
klv5o62Dyk/Nqji7bq6t+qdG8Ytz7AkjvPIY5beShj6kdWDHPQ8/gwDDBgic0VTW
um2VPTShviSRzCADEVtyHNRl0BGIdSYEJu9mcOY7OIecU3EbCVFwUJlMMQxiRFcw
YAT8EiyjJLT3EdUOtSEL7YYRZ002+legWVUhs23kd17sfvAJE46ZmLLhgrZLPg9B
pgzNSZl+5IrLN+1Tz4ZdqSao5QElWrS8JTXx+lpcztS4miw=
-----END CERTIFICATE-----
