Certificate:
    Data:
        Version: 3 (0x2)
        Serial Number:
            2d:70:a6:06:58:4b:2c:a4:38:f2:94:39:94:46:70:99:ca:bf:25:89
        Signature Algorithm: ecdsa-with-SHA256
        Issuer: C = US, ST = Washington, L = Seattle, O = Eliptic, OU = ECC, CN = www.wolfssl.com, emailAddress = info@wolfssl.com
        Validity
            Not Before: Dec 16 21:17:49 2022 GMT
            Not After : Dec 13 21:17:49 2032 GMT
        Subject: C = US, ST = Washington, L = Seattle, O = Eliptic, OU = ECC, CN = www.wolfssl.com, emailAddress = info@wolfssl.com
        Subject Public Key Info:
            Public Key Algorithm: id-ecPublicKey
                Public-Key: (256 bit)
                pub:
                    04:bb:33:ac:4c:27:50:4a:c6:4a:a5:04:c3:3c:de:
                    9f:36:db:72:2d:ce:94:ea:2b:fa:cb:20:09:39:2c:
                    16:e8:61:02:e9:af:4d:d3:02:93:9a:31:5b:97:92:
                    21:7f:f0:cf:18:da:91:11:02:34:86:e8:20:58:33:
                    0b:80:34:89:d8
                ASN1 OID: prime256v1
                NIST CURVE: P-256
        X509v3 extensions:
            X509v3 Basic Constraints: 
                CA:FALSE
            Netscape Cert Type: 
                SSL Server
            X509v3 Subject Key Identifier: 
                5D:5D:26:EF:AC:7E:36:F9:9B:76:15:2B:4A:25:02:23:EF:B2:89:30
            X509v3 Authority Key Identifier: 
                keyid:5D:5D:26:EF:AC:7E:36:F9:9B:76:15:2B:4A:25:02:23:EF:B2:89:30
                DirName:/C=US/ST=Washington/L=Seattle/O=Eliptic/OU=ECC/CN=www.wolfssl.com/emailAddress=info@wolfssl.com
                serial:2D:70:A6:06:58:4B:2C:A4:38:F2:94:39:94:46:70:99:CA:BF:25:89

            X509v3 Key Usage: critical
                Digital Signature, Key Encipherment, Key Agreement
            X509v3 Extended Key Usage: 
                TLS Web Server Authentication
    Signature Algorithm: ecdsa-with-SHA256
         30:44:02:20:3f:7e:67:7c:2a:52:f3:12:eb:3c:f3:3d:cb:d0:
         08:e0:9f:21:10:b7:1c:e6:c9:53:a9:04:65:38:76:cb:8d:ff:
         02:20:09:ac:bd:98:ac:8f:58:ad:2c:51:8d:cd:bf:56:77:23:
         ac:b0:37:90:fb:8e:84:5a:a2:06:21:9d:4c:50:39:c3
-----BEGIN CERTIFICATE-----
MIIDWzCCAwKgAwIBAgIULXCmBlhLLKQ48pQ5lEZwmcq/JYkwCgYIKoZIzj0EAwIw
gY8xCzAJBgNVBAYTAlVTMRMwEQYDVQQIDApXYXNoaW5ndG9uMRAwDgYDVQQHDAdT
ZWF0dGxlMRAwDgYDVQQKDAdFbGlwdGljMQwwCgYDVQQLDANFQ0MxGDAWBgNVBAMM
D3d3dy53b2xmc3NsLmNvbTEfMB0GCSqGSIb3DQEJARYQaW5mb0B3b2xmc3NsLmNv
bTAeFw0yMjEyMTYyMTE3NDlaFw0zMjEyMTMyMTE3NDlaMIGPMQswCQYDVQQGEwJV
UzETMBEGA1UECAwKV2FzaGluZ3RvbjEQMA4GA1UEBwwHU2VhdHRsZTEQMA4GA1UE
CgwHRWxpcHRpYzEMMAoGA1UECwwDRUNDMRgwFgYDVQQDDA93d3cud29sZnNzbC5j
b20xHzAdBgkqhkiG9w0BCQEWEGluZm9Ad29sZnNzbC5jb20wWTATBgcqhkjOPQIB
BggqhkjOPQMBBwNCAAS7M6xMJ1BKxkqlBMM83p8223ItzpTqK/rLIAk5LBboYQLp
r03TApOaMVuXkiF/8M8Y2pERAjSG6CBYMwuANInYo4IBODCCATQwCQYDVR0TBAIw
ADARBglghkgBhvhCAQEEBAMCBkAwHQYDVR0OBBYEFF1dJu+sfjb5m3YVK0olAiPv
sokwMIHPBgNVHSMEgccwgcSAFF1dJu+sfjb5m3YVK0olAiPvsokwoYGVpIGSMIGP
MQswCQYDVQQGEwJVUzETMBEGA1UECAwKV2FzaGluZ3RvbjEQMA4GA1UEBwwHU2Vh
dHRsZTEQMA4GA1UECgwHRWxpcHRpYzEMMAoGA1UECwwDRUNDMRgwFgYDVQQDDA93
d3cud29sZnNzbC5jb20xHzAdBgkqhkiG9w0BCQEWEGluZm9Ad29sZnNzbC5jb22C
FC1wpgZYSyykOPKUOZRGcJnKvyWJMA4GA1UdDwEB/wQEAwIDqDATBgNVHSUEDDAK
BggrBgEFBQcDATAKBggqhkjOPQQDAgNHADBEAiA/fmd8KlLzEus88z3L0AjgnyEQ
txzmyVOpBGU4dsuN/wIgCay9mKyPWK0sUY3Nv1Z3I6ywN5D7joRaogYhnUxQOcM=
-----END CERTIFICATE-----
