Certificate:
    Data:
        Version: 3 (0x2)
        Serial Number: 1 (0x1)
        Signature Algorithm: sha256WithRSAEncryption
        Issuer: C = US, ST = Montana, L = Bozeman, O = Sawtooth, OU = Consulting, CN = www.wolfssl.com, emailAddress = info@wolfssl.com
        Validity
            Not Before: Dec 16 21:17:49 2022 GMT
            Not After : Sep 11 21:17:49 2025 GMT
        Subject: C = US, ST = Montana, L = Bozeman, O = wolfSSL, OU = Support, CN = www.wolfssl.com, emailAddress = info@wolfssl.com
        Subject Public Key Info:
            Public Key Algorithm: rsaEncryption
                RSA Public-Key: (2048 bit)
                Modulus:
                    00:c0:95:08:e1:57:41:f2:71:6d:b7:d2:45:41:27:
                    01:65:c6:45:ae:f2:bc:24:30:b8:95:ce:2f:4e:d6:
                    f6:1c:88:bc:7c:9f:fb:a8:67:7f:fe:5c:9c:51:75:
                    f7:8a:ca:07:e7:35:2f:8f:e1:bd:7b:c0:2f:7c:ab:
                    64:a8:17:fc:ca:5d:7b:ba:e0:21:e5:72:2e:6f:2e:
                    86:d8:95:73:da:ac:1b:53:b9:5f:3f:d7:19:0d:25:
                    4f:e1:63:63:51:8b:0b:64:3f:ad:43:b8:a5:1c:5c:
                    34:b3:ae:00:a0:63:c5:f6:7f:0b:59:68:78:73:a6:
                    8c:18:a9:02:6d:af:c3:19:01:2e:b8:10:e3:c6:cc:
                    40:b4:69:a3:46:33:69:87:6e:c4:bb:17:a6:f3:e8:
                    dd:ad:73:bc:7b:2f:21:b5:fd:66:51:0c:bd:54:b3:
                    e1:6d:5f:1c:bc:23:73:d1:09:03:89:14:d2:10:b9:
                    64:c3:2a:d0:a1:96:4a:bc:e1:d4:1a:5b:c7:a0:c0:
                    c1:63:78:0f:44:37:30:32:96:80:32:23:95:a1:77:
                    ba:13:d2:97:73:e2:5d:25:c9:6a:0d:c3:39:60:a4:
                    b4:b0:69:42:42:09:e9:d8:08:bc:33:20:b3:58:22:
                    a7:aa:eb:c4:e1:e6:61:83:c5:d2:96:df:d9:d0:4f:
                    ad:d7
                Exponent: 65537 (0x10001)
        X509v3 extensions:
            X509v3 Subject Key Identifier: 
                B3:11:32:C9:92:98:84:E2:C9:F8:D0:3B:6E:03:42:CA:1F:0E:8E:3C
            X509v3 Authority Key Identifier: 
                keyid:27:8E:67:11:74:C3:26:1D:3F:ED:33:63:B3:A4:D8:1D:30:E5:E8:D5
                DirName:/C=US/ST=Montana/L=Bozeman/O=Sawtooth/OU=Consulting/CN=www.wolfssl.com/emailAddress=info@wolfssl.com
                serial:2C:80:CE:DB:47:9D:07:66:92:3D:68:D7:CA:AC:90:4F:CA:69:41:4B

            X509v3 Basic Constraints: 
                CA:TRUE
            X509v3 Subject Alternative Name: 
                DNS:example.com, IP Address:127.0.0.1
            X509v3 Extended Key Usage: 
                TLS Web Server Authentication, TLS Web Client Authentication
    Signature Algorithm: sha256WithRSAEncryption
         b9:10:f0:be:fe:c8:67:5e:7d:0f:36:33:c7:17:2a:01:c4:bb:
         74:83:4c:bc:bb:e2:ba:92:82:3a:d9:2d:8c:0e:e3:75:1b:c0:
         14:aa:40:1e:a8:11:7d:94:9c:3d:74:7a:3b:16:7b:d8:9d:f0:
         e8:7d:1d:fa:3b:14:42:20:e3:05:a3:fd:b1:0c:f1:2a:c4:00:
         50:8d:1e:97:93:6a:de:82:13:24:9e:2b:fa:08:85:e3:4f:40:
         fd:63:c7:3d:e9:bd:6f:7c:03:98:85:fe:b4:51:5d:7f:8c:83:
         b3:ad:4a:88:e9:f3:4c:33:84:77:d3:02:35:59:e3:4e:64:a1:
         b7:bb:fb:f8:fb:14:2a:ae:36:bf:d9:82:e7:cb:98:48:16:c8:
         81:d6:a0:f1:74:14:e3:74:4a:72:4a:f1:6f:dd:be:86:1e:20:
         f3:05:16:83:1f:aa:7c:59:35:97:24:b8:27:b7:56:9f:30:2e:
         90:e0:19:e0:21:ca:9d:3f:da:99:07:94:79:49:53:14:5c:a2:
         2c:56:5b:b2:55:68:5c:1f:91:58:9a:cd:53:b5:ea:63:5a:72:
         49:41:cc:76:9f:88:35:86:0d:60:5d:e5:91:bd:ac:6f:cf:d5:
         92:27:72:4a:21:f4:58:98:8e:3b:d2:29:e6:ee:fa:e6:b0:6c:
         8b:1e:e0:54
-----BEGIN CERTIFICATE-----
MIIE6DCCA9CgAwIBAgIBATANBgkqhkiG9w0BAQsFADCBlDELMAkGA1UEBhMCVVMx
EDAOBgNVBAgMB01vbnRhbmExEDAOBgNVBAcMB0JvemVtYW4xETAPBgNVBAoMCFNh
d3Rvb3RoMRMwEQYDVQQLDApDb25zdWx0aW5nMRgwFgYDVQQDDA93d3cud29sZnNz
bC5jb20xHzAdBgkqhkiG9w0BCQEWEGluZm9Ad29sZnNzbC5jb20wHhcNMjIxMjE2
MjExNzQ5WhcNMjUwOTExMjExNzQ5WjCBkDELMAkGA1UEBhMCVVMxEDAOBgNVBAgM
B01vbnRhbmExEDAOBgNVBAcMB0JvemVtYW4xEDAOBgNVBAoMB3dvbGZTU0wxEDAO
BgNVBAsMB1N1cHBvcnQxGDAWBgNVBAMMD3d3dy53b2xmc3NsLmNvbTEfMB0GCSqG
SIb3DQEJARYQaW5mb0B3b2xmc3NsLmNvbTCCASIwDQYJKoZIhvcNAQEBBQADggEP
ADCCAQoCggEBAMCVCOFXQfJxbbfSRUEnAWXGRa7yvCQwuJXOL07W9hyIvHyf+6hn
f/5cnFF194rKB+c1L4/hvXvAL3yrZKgX/Mpde7rgIeVyLm8uhtiVc9qsG1O5Xz/X
GQ0lT+FjY1GLC2Q/rUO4pRxcNLOuAKBjxfZ/C1loeHOmjBipAm2vwxkBLrgQ48bM
QLRpo0YzaYduxLsXpvPo3a1zvHsvIbX9ZlEMvVSz4W1fHLwjc9EJA4kU0hC5ZMMq
0KGWSrzh1Bpbx6DAwWN4D0Q3MDKWgDIjlaF3uhPSl3PiXSXJag3DOWCktLBpQkIJ
6dgIvDMgs1gip6rrxOHmYYPF0pbf2dBPrdcCAwEAAaOCAUUwggFBMB0GA1UdDgQW
BBSzETLJkpiE4sn40DtuA0LKHw6OPDCB1AYDVR0jBIHMMIHJgBQnjmcRdMMmHT/t
M2OzpNgdMOXo1aGBmqSBlzCBlDELMAkGA1UEBhMCVVMxEDAOBgNVBAgMB01vbnRh
bmExEDAOBgNVBAcMB0JvemVtYW4xETAPBgNVBAoMCFNhd3Rvb3RoMRMwEQYDVQQL
DApDb25zdWx0aW5nMRgwFgYDVQQDDA93d3cud29sZnNzbC5jb20xHzAdBgkqhkiG
9w0BCQEWEGluZm9Ad29sZnNzbC5jb22CFCyAzttHnQdmkj1o18qskE/KaUFLMAwG
A1UdEwQFMAMBAf8wHAYDVR0RBBUwE4ILZXhhbXBsZS5jb22HBH8AAAEwHQYDVR0l
BBYwFAYIKwYBBQUHAwEGCCsGAQUFBwMCMA0GCSqGSIb3DQEBCwUAA4IBAQC5EPC+
/shnXn0PNjPHFyoBxLt0g0y8u+K6koI62S2MDuN1G8AUqkAeqBF9lJw9dHo7FnvY
nfDofR36OxRCIOMFo/2xDPEqxABQjR6Xk2reghMkniv6CIXjT0D9Y8c96b1vfAOY
hf60UV1/jIOzrUqI6fNMM4R30wI1WeNOZKG3u/v4+xQqrja/2YLny5hIFsiB1qDx
dBTjdEpySvFv3b6GHiDzBRaDH6p8WTWXJLgnt1afMC6Q4BngIcqdP9qZB5R5SVMU
XKIsVluyVWhcH5FYms1TtepjWnJJQcx2n4g1hg1gXeWRvaxvz9WSJ3JKIfRYmI47
0inm7vrmsGyLHuBU
-----END CERTIFICATE-----
Certificate:
    Data:
        Version: 3 (0x2)
        Serial Number:
            2c:80:ce:db:47:9d:07:66:92:3d:68:d7:ca:ac:90:4f:ca:69:41:4b
        Signature Algorithm: sha256WithRSAEncryption
        Issuer: C = US, ST = Montana, L = Bozeman, O = Sawtooth, OU = Consulting, CN = www.wolfssl.com, emailAddress = info@wolfssl.com
        Validity
            Not Before: Dec 16 21:17:49 2022 GMT
            Not After : Sep 11 21:17:49 2025 GMT
        Subject: C = US, ST = Montana, L = Bozeman, O = Sawtooth, OU = Consulting, CN = www.wolfssl.com, emailAddress = info@wolfssl.com
        Subject Public Key Info:
            Public Key Algorithm: rsaEncryption
                RSA Public-Key: (2048 bit)
                Modulus:
                    00:bf:0c:ca:2d:14:b2:1e:84:42:5b:cd:38:1f:4a:
                    f2:4d:75:10:f1:b6:35:9f:df:ca:7d:03:98:d3:ac:
                    de:03:66:ee:2a:f1:d8:b0:7d:6e:07:54:0b:10:98:
                    21:4d:80:cb:12:20:e7:cc:4f:de:45:7d:c9:72:77:
                    32:ea:ca:90:bb:69:52:10:03:2f:a8:f3:95:c5:f1:
                    8b:62:56:1b:ef:67:6f:a4:10:41:95:ad:0a:9b:e3:
                    a5:c0:b0:d2:70:76:50:30:5b:a8:e8:08:2c:7c:ed:
                    a7:a2:7a:8d:38:29:1c:ac:c7:ed:f2:7c:95:b0:95:
                    82:7d:49:5c:38:cd:77:25:ef:bd:80:75:53:94:3c:
                    3d:ca:63:5b:9f:15:b5:d3:1d:13:2f:19:d1:3c:db:
                    76:3a:cc:b8:7d:c9:e5:c2:d7:da:40:6f:d8:21:dc:
                    73:1b:42:2d:53:9c:fe:1a:fc:7d:ab:7a:36:3f:98:
                    de:84:7c:05:67:ce:6a:14:38:87:a9:f1:8c:b5:68:
                    cb:68:7f:71:20:2b:f5:a0:63:f5:56:2f:a3:26:d2:
                    b7:6f:b1:5a:17:d7:38:99:08:fe:93:58:6f:fe:c3:
                    13:49:08:16:0b:a7:4d:67:00:52:31:67:23:4e:98:
                    ed:51:45:1d:b9:04:d9:0b:ec:d8:28:b3:4b:bd:ed:
                    36:79
                Exponent: 65537 (0x10001)
        X509v3 extensions:
            X509v3 Subject Key Identifier: 
                27:8E:67:11:74:C3:26:1D:3F:ED:33:63:B3:A4:D8:1D:30:E5:E8:D5
            X509v3 Authority Key Identifier: 
                keyid:27:8E:67:11:74:C3:26:1D:3F:ED:33:63:B3:A4:D8:1D:30:E5:E8:D5
                DirName:/C=US/ST=Montana/L=Bozeman/O=Sawtooth/OU=Consulting/CN=www.wolfssl.com/emailAddress=info@wolfssl.com
                serial:2C:80:CE:DB:47:9D:07:66:92:3D:68:D7:CA:AC:90:4F:CA:69:41:4B

            X509v3 Basic Constraints: 
                CA:TRUE
            X509v3 Subject Alternative Name: 
                DNS:example.com, IP Address:127.0.0.1
            X509v3 Extended Key Usage: 
                TLS Web Server Authentication, TLS Web Client Authentication
    Signature Algorithm: sha256WithRSAEncryption
         ae:b0:a4:35:8e:8a:1b:a6:eb:b3:a2:57:cf:3a:1f:dc:6e:bc:
         d2:d0:a6:4a:8f:88:0a:6e:74:d5:d1:7c:d1:44:b1:d4:3b:17:
         03:09:5a:46:ed:08:08:cf:f1:fd:20:07:67:c0:97:ec:35:f3:
         75:ca:20:61:98:3e:f5:4d:be:e6:9d:75:1e:e4:03:ad:8c:a6:
         1e:3d:ec:e4:1a:92:5b:f9:a3:ad:83:ca:4f:cd:aa:38:bb:6e:
         ae:ad:fa:a7:46:f1:8b:73:ec:09:23:bc:f2:18:e5:b7:92:86:
         3e:a4:75:60:c7:3d:0f:3f:83:00:c3:06:08:9c:d1:54:d6:ba:
         6d:95:3d:34:a1:be:24:91:cc:20:03:11:5b:72:1c:d4:65:d0:
         11:88:75:26:04:26:ef:66:70:e6:3b:38:87:9c:53:71:1b:09:
         51:70:50:99:4c:31:0c:62:44:57:30:60:04:fc:12:2c:a3:24:
         b4:f7:11:d5:0e:b5:21:0b:ed:86:11:67:4d:36:fa:57:a0:59:
         55:21:b3:6d:e4:77:5e:ec:7e:f0:09:13:8e:99:98:b2:e1:82:
         b6:4b:3e:0f:41:a6:0c:cd:49:99:7e:e4:8a:cb:37:ed:53:cf:
         86:5d:a9:26:a8:e5:01:25:5a:b4:bc:25:35:f1:fa:5a:5c:ce:
         d4:b8:9a:2c
-----BEGIN CERTIFICATE-----
MIIE/zCCA+egAwIBAgIULIDO20edB2aSPWjXyqyQT8ppQUswDQYJKoZIhvcNAQEL
BQAwgZQxCzAJBgNVBAYTAlVTMRAwDgYDVQQIDAdNb250YW5hMRAwDgYDVQQHDAdC
b3plbWFuMREwDwYDVQQKDAhTYXd0b290aDETMBEGA1UECwwKQ29uc3VsdGluZzEY
MBYGA1UEAwwPd3d3LndvbGZzc2wuY29tMR8wHQYJKoZIhvcNAQkBFhBpbmZvQHdv
bGZzc2wuY29tMB4XDTIyMTIxNjIxMTc0OVoXDTI1MDkxMTIxMTc0OVowgZQxCzAJ
BgNVBAYTAlVTMRAwDgYDVQQIDAdNb250YW5hMRAwDgYDVQQHDAdCb3plbWFuMREw
DwYDVQQKDAhTYXd0b290aDETMBEGA1UECwwKQ29uc3VsdGluZzEYMBYGA1UEAwwP
d3d3LndvbGZzc2wuY29tMR8wHQYJKoZIhvcNAQkBFhBpbmZvQHdvbGZzc2wuY29t
MIIBIjANBgkqhkiG9w0BAQEFAAOCAQ8AMIIBCgKCAQEAvwzKLRSyHoRCW804H0ry
TXUQ8bY1n9/KfQOY06zeA2buKvHYsH1uB1QLEJghTYDLEiDnzE/eRX3Jcncy6sqQ
u2lSEAMvqPOVxfGLYlYb72dvpBBBla0Km+OlwLDScHZQMFuo6AgsfO2nonqNOCkc
rMft8nyVsJWCfUlcOM13Je+9gHVTlDw9ymNbnxW10x0TLxnRPNt2Osy4fcnlwtfa
QG/YIdxzG0ItU5z+Gvx9q3o2P5jehHwFZ85qFDiHqfGMtWjLaH9xICv1oGP1Vi+j
JtK3b7FaF9c4mQj+k1hv/sMTSQgWC6dNZwBSMWcjTpjtUUUduQTZC+zYKLNLve02
eQIDAQABo4IBRTCCAUEwHQYDVR0OBBYEFCeOZxF0wyYdP+0zY7Ok2B0w5ejVMIHU
BgNVHSMEgcwwgcmAFCeOZxF0wyYdP+0zY7Ok2B0w5ejVoYGapIGXMIGUMQswCQYD
VQQGEwJVUzEQMA4GA1UECAwHTW9udGFuYTEQMA4GA1UEBwwHQm96ZW1hbjERMA8G
A1UECgwIU2F3dG9vdGgxEzARBgNVBAsMCkNvbnN1bHRpbmcxGDAWBgNVBAMMD3d3
dy53b2xmc3NsLmNvbTEfMB0GCSqGSIb3DQEJARYQaW5mb0B3b2xmc3NsLmNvbYIU
LIDO20edB2aSPWjXyqyQT8ppQUswDAYDVR0TBAUwAwEB/zAcBgNVHREEFTATggtl
eGFtcGxlLmNvbYcEfwAAATAdBgNVHSUEFjAUBggrBgEFBQcDAQYIKwYBBQUHAwIw
DQYJKoZIhvcNAQELBQADggEBAK6wpDWOihum67OiV886H9xuvNLQpkqPiApudNXR
fNFEsdQ7FwMJWkbtCAjP8f0gB2fAl+w183XKIGGYPvVNvuaddR7kA62Mph497OQa
klv5o62Dyk/Nqji7bq6t+qdG8Ytz7AkjvPIY5beShj6kdWDHPQ8/gwDDBgic0VTW
um2VPTShviSRzCADEVtyHNRl0BGIdSYEJu9mcOY7OIecU3EbCVFwUJlMMQxiRFcw
YAT8EiyjJLT3EdUOtSEL7YYRZ002+legWVUhs23kd17sfvAJE46ZmLLhgrZLPg9B
pgzNSZl+5IrLN+1Tz4ZdqSao5QElWrS8JTXx+lpcztS4miw=
-----END CERTIFICATE-----
