Certificate:
    Data:
        Version: 3 (0x2)
        Serial Number: 1 (0x1)
        Signature Algorithm: sha256WithRSAEncryption
        Issuer: C = US, ST = Montana, L = Bozeman, O = Sawtooth, OU = Consulting, CN = www.wolfssl.com, emailAddress = info@wolfssl.com
        Validity
            Not Before: Dec 16 21:17:49 2022 GMT
            Not After : Sep 11 21:17:49 2025 GMT
        Subject: C = US, ST = Montana, L = Bozeman, O = Elliptic - RSAsig, OU = ECC-RSAsig, CN = www.wolfssl.com, emailAddress = info@wolfssl.com
        Subject Public Key Info:
            Public Key Algorithm: id-ecPublicKey
                Public-Key: (256 bit)
                pub:
                    04:bb:33:ac:4c:27:50:4a:c6:4a:a5:04:c3:3c:de:
                    9f:36:db:72:2d:ce:94:ea:2b:fa:cb:20:09:39:2c:
                    16:e8:61:02:e9:af:4d:d3:02:93:9a:31:5b:97:92:
                    21:7f:f0:cf:18:da:91:11:02:34:86:e8:20:58:33:
                    0b:80:34:89:d8
                ASN1 OID: prime256v1
                NIST CURVE: P-256
        X509v3 extensions:
            X509v3 Subject Key Identifier: 
                5D:5D:26:EF:AC:7E:36:F9:9B:76:15:2B:4A:25:02:23:EF:B2:89:30
            X509v3 Authority Key Identifier: 
                keyid:27:8E:67:11:74:C3:26:1D:3F:ED:33:63:B3:A4:D8:1D:30:E5:E8:D5
                DirName:/C=US/ST=Montana/L=Bozeman/O=Sawtooth/OU=Consulting/CN=www.wolfssl.com/emailAddress=info@wolfssl.com
                serial:2C:80:CE:DB:47:9D:07:66:92:3D:68:D7:CA:AC:90:4F:CA:69:41:4B

            X509v3 Basic Constraints: 
                CA:TRUE
            X509v3 Subject Alternative Name: 
                DNS:example.com, IP Address:127.0.0.1
            X509v3 Extended Key Usage: 
                TLS Web Server Authentication, TLS Web Client Authentication
    Signature Algorithm: sha256WithRSAEncryption
         44:da:4d:a2:d3:96:51:31:35:74:21:d5:27:0d:ab:72:eb:d8:
         24:11:3c:52:07:01:51:e8:26:11:39:da:ac:57:ca:e3:8d:8c:
         91:16:28:e3:7b:fe:58:76:0a:3e:9d:ac:f3:ce:9f:5a:ff:07:
         c9:a1:27:9a:9a:5c:db:82:ba:0e:d0:80:bc:cf:b1:34:6a:26:
         af:15:7a:21:f6:a9:48:3c:c6:02:d0:4e:32:ac:75:17:60:19:
         45:12:37:5d:75:65:84:ca:e8:40:73:f5:1c:71:82:ae:e2:3a:
         1c:d7:4c:59:f2:83:16:1f:77:02:91:cc:9c:aa:c9:e7:72:6b:
         ff:40:7e:da:35:65:47:bd:55:90:c8:c8:21:b2:fb:89:d4:d4:
         cc:39:02:54:20:83:17:46:eb:5f:60:58:35:4e:ca:24:8d:0b:
         77:10:b0:4a:2a:51:a9:d0:74:27:35:61:76:0f:94:2c:0b:10:
         1d:b8:4a:3e:38:95:17:0a:0a:7e:c6:35:c3:68:89:c0:82:8b:
         61:b8:e6:2f:f9:c8:58:96:c7:1f:eb:1d:2f:09:34:5f:bf:76:
         af:00:6c:33:80:10:5b:a0:d2:76:6f:e2:4c:96:b6:2d:dc:c0:
         21:43:6e:f3:58:2a:4b:a6:ef:15:b5:ca:00:28:1a:c6:e0:31:
         f0:5d:99:70
-----BEGIN CERTIFICATE-----
MIIEKjCCAxKgAwIBAgIBATANBgkqhkiG9w0BAQsFADCBlDELMAkGA1UEBhMCVVMx
EDAOBgNVBAgMB01vbnRhbmExEDAOBgNVBAcMB0JvemVtYW4xETAPBgNVBAoMCFNh
d3Rvb3RoMRMwEQYDVQQLDApDb25zdWx0aW5nMRgwFgYDVQQDDA93d3cud29sZnNz
bC5jb20xHzAdBgkqhkiG9w0BCQEWEGluZm9Ad29sZnNzbC5jb20wHhcNMjIxMjE2
MjExNzQ5WhcNMjUwOTExMjExNzQ5WjCBnTELMAkGA1UEBhMCVVMxEDAOBgNVBAgM
B01vbnRhbmExEDAOBgNVBAcMB0JvemVtYW4xGjAYBgNVBAoMEUVsbGlwdGljIC0g
UlNBc2lnMRMwEQYDVQQLDApFQ0MtUlNBc2lnMRgwFgYDVQQDDA93d3cud29sZnNz
bC5jb20xHzAdBgkqhkiG9w0BCQEWEGluZm9Ad29sZnNzbC5jb20wWTATBgcqhkjO
PQIBBggqhkjOPQMBBwNCAAS7M6xMJ1BKxkqlBMM83p8223ItzpTqK/rLIAk5LBbo
YQLpr03TApOaMVuXkiF/8M8Y2pERAjSG6CBYMwuANInYo4IBRTCCAUEwHQYDVR0O
BBYEFF1dJu+sfjb5m3YVK0olAiPvsokwMIHUBgNVHSMEgcwwgcmAFCeOZxF0wyYd
P+0zY7Ok2B0w5ejVoYGapIGXMIGUMQswCQYDVQQGEwJVUzEQMA4GA1UECAwHTW9u
dGFuYTEQMA4GA1UEBwwHQm96ZW1hbjERMA8GA1UECgwIU2F3dG9vdGgxEzARBgNV
BAsMCkNvbnN1bHRpbmcxGDAWBgNVBAMMD3d3dy53b2xmc3NsLmNvbTEfMB0GCSqG
SIb3DQEJARYQaW5mb0B3b2xmc3NsLmNvbYIULIDO20edB2aSPWjXyqyQT8ppQUsw
DAYDVR0TBAUwAwEB/zAcBgNVHREEFTATggtleGFtcGxlLmNvbYcEfwAAATAdBgNV
HSUEFjAUBggrBgEFBQcDAQYIKwYBBQUHAwIwDQYJKoZIhvcNAQELBQADggEBAETa
TaLTllExNXQh1ScNq3Lr2CQRPFIHAVHoJhE52qxXyuONjJEWKON7/lh2Cj6drPPO
n1r/B8mhJ5qaXNuCug7QgLzPsTRqJq8VeiH2qUg8xgLQTjKsdRdgGUUSN111ZYTK
6EBz9Rxxgq7iOhzXTFnygxYfdwKRzJyqyedya/9Afto1ZUe9VZDIyCGy+4nU1Mw5
AlQggxdG619gWDVOyiSNC3cQsEoqUanQdCc1YXYPlCwLEB24Sj44lRcKCn7GNcNo
icCCi2G45i/5yFiWxx/rHS8JNF+/dq8AbDOAEFug0nZv4kyWti3cwCFDbvNYKkum
7xW1ygAoGsbgMfBdmXA=
-----END CERTIFICATE-----
