Certificate:
    Data:
        Version: 3 (0x2)
        Serial Number: 101 (0x65)
        Signature Algorithm: sha256WithRSAEncryption
        Issuer: C = US, ST = Washington, L = Seattle, O = wolfSSL Inc., OU = Engineering, CN = chainD-ICA1-pathlen127, emailAddress = info@wolfssl.com
        Validity
            Not Before: Dec 16 21:17:50 2022 GMT
            Not After : Sep 11 21:17:50 2025 GMT
        Subject: C = US, ST = Washington, L = Seattle, O = wolfSSL Inc., OU = Engineering, CN = chainD-entity, emailAddress = info@wolfssl.com
        Subject Public Key Info:
            Public Key Algorithm: rsaEncryption
                RSA Public-Key: (2048 bit)
                Modulus:
                    00:e2:5d:f4:bd:06:b6:a1:21:3a:2d:7f:cc:f2:5a:
                    15:36:28:0a:f2:bb:16:b5:ec:f9:e7:5b:92:ec:17:
                    75:76:89:f4:1b:7c:a9:79:cb:62:4b:55:8a:ca:cc:
                    f9:f0:a9:a2:05:61:ee:d8:8b:d0:5d:c5:49:bc:7d:
                    28:26:7d:3a:22:cc:20:71:55:4c:3a:f7:24:d7:95:
                    ac:ce:18:7d:0d:7b:20:4f:11:a9:7b:02:08:09:e6:
                    85:91:e4:4e:80:b9:a4:76:0f:28:cc:07:f6:f2:be:
                    c1:54:63:d2:b7:81:59:09:0b:c1:bd:0d:27:70:55:
                    c7:5f:bc:54:ee:73:16:7e:d2:b4:4c:df:a8:a9:81:
                    cc:e3:a6:8c:eb:e3:98:49:84:0b:a0:da:f3:e1:5f:
                    32:69:6a:b0:50:69:4f:96:72:04:3f:e7:1c:80:b1:
                    2c:6f:7d:ff:41:f2:bb:0b:17:b7:b5:ce:21:ea:e6:
                    c2:bd:cd:28:08:40:43:04:e5:40:e2:7d:41:35:b5:
                    51:bf:e8:20:01:99:85:a2:38:f1:6e:69:40:da:6e:
                    9f:d3:40:63:89:19:de:4d:49:d2:79:10:b6:2a:bb:
                    6f:66:fa:25:5f:96:c1:e8:38:96:e3:e5:28:28:b4:
                    ca:3c:21:1c:95:cd:b5:5e:50:f1:c9:3e:c2:4c:f2:
                    cb:33
                Exponent: 65537 (0x10001)
        X509v3 extensions:
            X509v3 Subject Key Identifier: 
                58:92:0B:B2:E4:12:D8:A3:31:37:D9:89:F2:9E:6E:62:22:40:42:82
            X509v3 Authority Key Identifier: 
                keyid:67:78:F9:AD:1C:53:41:1F:46:BD:49:9B:73:2E:7C:DC:5C:2D:0B:FB
                DirName:/C=US/ST=Montana/L=Bozeman/O=Sawtooth/OU=Consulting/CN=www.wolfssl.com/emailAddress=info@wolfssl.com
                serial:64

            X509v3 Basic Constraints: 
                CA:FALSE
    Signature Algorithm: sha256WithRSAEncryption
         07:a9:44:44:fc:dc:51:bc:be:74:cf:5a:7e:ee:42:62:ab:9d:
         46:7f:5a:fe:01:f5:2e:3b:ba:60:91:84:96:61:ee:73:33:57:
         f3:bc:26:0c:87:66:e5:f0:c2:ea:27:bc:17:d2:2e:16:70:6a:
         6c:24:e2:a9:8e:75:12:58:0f:a0:1c:98:18:6a:71:42:4b:d4:
         57:61:8e:e4:13:45:4b:93:e1:dc:7a:82:df:32:9f:de:7d:e4:
         79:2f:6f:39:75:ed:f3:b5:5d:ce:e7:d3:3f:b0:8c:43:81:bf:
         65:d5:52:95:a8:d2:ed:69:21:af:db:10:2d:51:5f:8b:48:0a:
         70:92:d2:63:7e:a7:ba:7c:2c:b3:1c:93:da:3d:bd:20:fc:47:
         24:12:43:a6:24:ed:6f:43:3c:a5:8a:50:7e:9c:bd:ec:92:5f:
         62:f5:e2:d6:70:78:bf:47:70:ff:c6:81:12:e1:2a:4f:3f:e3:
         2f:ee:9a:63:96:dc:a8:2c:3c:da:de:60:07:66:a5:cf:c7:93:
         eb:9c:62:28:2e:d4:fa:b6:04:94:a2:7e:06:74:b0:27:c8:55:
         e6:7d:e3:a3:c8:17:d0:6e:10:3e:b8:7a:8d:7e:a8:a1:0e:a2:
         de:58:4c:04:4e:d8:9e:43:56:0b:31:2e:9f:62:3e:9d:a8:cb:
         68:16:f9:69
-----BEGIN CERTIFICATE-----
MIIErDCCA5SgAwIBAgIBZTANBgkqhkiG9w0BAQsFADCBozELMAkGA1UEBhMCVVMx
EzARBgNVBAgMCldhc2hpbmd0b24xEDAOBgNVBAcMB1NlYXR0bGUxFTATBgNVBAoM
DHdvbGZTU0wgSW5jLjEUMBIGA1UECwwLRW5naW5lZXJpbmcxHzAdBgNVBAMMFmNo
YWluRC1JQ0ExLXBhdGhsZW4xMjcxHzAdBgkqhkiG9w0BCQEWEGluZm9Ad29sZnNz
bC5jb20wHhcNMjIxMjE2MjExNzUwWhcNMjUwOTExMjExNzUwWjCBmjELMAkGA1UE
BhMCVVMxEzARBgNVBAgMCldhc2hpbmd0b24xEDAOBgNVBAcMB1NlYXR0bGUxFTAT
BgNVBAoMDHdvbGZTU0wgSW5jLjEUMBIGA1UECwwLRW5naW5lZXJpbmcxFjAUBgNV
BAMMDWNoYWluRC1lbnRpdHkxHzAdBgkqhkiG9w0BCQEWEGluZm9Ad29sZnNzbC5j
b20wggEiMA0GCSqGSIb3DQEBAQUAA4IBDwAwggEKAoIBAQDiXfS9BrahITotf8zy
WhU2KAryuxa17PnnW5LsF3V2ifQbfKl5y2JLVYrKzPnwqaIFYe7Yi9BdxUm8fSgm
fToizCBxVUw69yTXlazOGH0NeyBPEal7AggJ5oWR5E6AuaR2DyjMB/byvsFUY9K3
gVkJC8G9DSdwVcdfvFTucxZ+0rRM36ipgczjpozr45hJhAug2vPhXzJparBQaU+W
cgQ/5xyAsSxvff9B8rsLF7e1ziHq5sK9zSgIQEME5UDifUE1tVG/6CABmYWiOPFu
aUDabp/TQGOJGd5NSdJ5ELYqu29m+iVflsHoOJbj5SgotMo8IRyVzbVeUPHJPsJM
8sszAgMBAAGjgfEwge4wHQYDVR0OBBYEFFiSC7LkEtijMTfZifKebmIiQEKCMIHB
BgNVHSMEgbkwgbaAFGd4+a0cU0EfRr1Jm3MufNxcLQv7oYGapIGXMIGUMQswCQYD
VQQGEwJVUzEQMA4GA1UECAwHTW9udGFuYTEQMA4GA1UEBwwHQm96ZW1hbjERMA8G
A1UECgwIU2F3dG9vdGgxEzARBgNVBAsMCkNvbnN1bHRpbmcxGDAWBgNVBAMMD3d3
dy53b2xmc3NsLmNvbTEfMB0GCSqGSIb3DQEJARYQaW5mb0B3b2xmc3NsLmNvbYIB
ZDAJBgNVHRMEAjAAMA0GCSqGSIb3DQEBCwUAA4IBAQAHqURE/NxRvL50z1p+7kJi
q51Gf1r+AfUuO7pgkYSWYe5zM1fzvCYMh2bl8MLqJ7wX0i4WcGpsJOKpjnUSWA+g
HJgYanFCS9RXYY7kE0VLk+HceoLfMp/efeR5L285de3ztV3O59M/sIxDgb9l1VKV
qNLtaSGv2xAtUV+LSApwktJjfqe6fCyzHJPaPb0g/EckEkOmJO1vQzylilB+nL3s
kl9i9eLWcHi/R3D/xoES4SpPP+Mv7ppjltyoLDza3mAHZqXPx5PrnGIoLtT6tgSU
on4GdLAnyFXmfeOjyBfQbhA+uHqNfqihDqLeWEwETtieQ1YLMS6fYj6dqMtoFvlp
-----END CERTIFICATE-----
Certificate:
    Data:
        Version: 3 (0x2)
        Serial Number: 100 (0x64)
        Signature Algorithm: sha256WithRSAEncryption
        Issuer: C = US, ST = Montana, L = Bozeman, O = Sawtooth, OU = Consulting, CN = www.wolfssl.com, emailAddress = info@wolfssl.com
        Validity
            Not Before: Dec 16 21:17:50 2022 GMT
            Not After : Sep 11 21:17:50 2025 GMT
        Subject: C = US, ST = Washington, L = Seattle, O = wolfSSL Inc., OU = Engineering, CN = chainD-ICA1-pathlen127, emailAddress = info@wolfssl.com
        Subject Public Key Info:
            Public Key Algorithm: rsaEncryption
                RSA Public-Key: (2048 bit)
                Modulus:
                    00:d7:81:78:a9:19:99:12:d1:cf:3d:51:54:1d:d3:
                    14:94:ed:3e:de:ff:e0:23:e4:f7:23:fc:5c:49:24:
                    d8:36:93:e6:2a:ee:a7:ab:c6:8d:c9:ad:40:45:c9:
                    44:06:47:4c:0d:65:09:dd:db:e2:f0:bd:cd:79:1c:
                    ec:d1:8d:de:f2:ff:66:f5:b2:bd:43:cc:58:7f:1d:
                    db:4b:97:a5:83:5c:87:5e:9b:73:87:c8:1d:2b:47:
                    92:55:e4:db:be:51:d5:eb:76:c2:aa:59:72:7b:f6:
                    27:2f:be:c0:db:dc:3c:f2:e2:19:c9:b0:30:bb:2e:
                    a2:95:48:06:bd:8e:9d:bd:8c:6b:5e:c6:9a:73:4b:
                    6c:b0:20:96:47:44:d3:09:6b:6a:2b:fa:86:5f:1d:
                    0b:a7:62:22:72:d5:56:1c:aa:97:8c:ce:57:a3:0f:
                    e6:bc:cd:63:54:55:60:87:50:eb:fa:8c:e9:15:70:
                    b3:5c:4d:0e:27:60:fd:07:6e:8c:ec:3f:a0:25:c5:
                    01:59:a3:fc:2d:80:4b:84:4c:10:b5:c8:a7:6b:b1:
                    e5:c5:c1:9a:b0:d6:4b:30:21:ba:42:65:e0:3f:59:
                    cf:7f:49:4b:3b:cf:62:06:f4:89:ae:5b:81:5d:15:
                    63:fb:7c:29:a6:b5:cf:f3:b5:b5:66:06:4f:a3:da:
                    67:39
                Exponent: 65537 (0x10001)
        X509v3 extensions:
            X509v3 Subject Key Identifier: 
                67:78:F9:AD:1C:53:41:1F:46:BD:49:9B:73:2E:7C:DC:5C:2D:0B:FB
            X509v3 Authority Key Identifier: 
                keyid:27:8E:67:11:74:C3:26:1D:3F:ED:33:63:B3:A4:D8:1D:30:E5:E8:D5
                DirName:/C=US/ST=Montana/L=Bozeman/O=Sawtooth/OU=Consulting/CN=www.wolfssl.com/emailAddress=info@wolfssl.com
                serial:2C:80:CE:DB:47:9D:07:66:92:3D:68:D7:CA:AC:90:4F:CA:69:41:4B

            X509v3 Basic Constraints: 
                CA:TRUE, pathlen:127
            X509v3 Key Usage: 
                Certificate Sign, CRL Sign
    Signature Algorithm: sha256WithRSAEncryption
         14:5a:3c:65:84:c3:96:6c:0a:15:61:18:89:b8:b5:0b:66:41:
         17:bd:d9:09:03:d5:7f:fc:3c:8a:1b:2e:64:60:8d:8a:a3:47:
         55:c7:63:d1:e4:ab:15:76:d6:d3:82:84:d6:19:05:08:f5:c7:
         f2:ad:d3:de:32:03:f7:bc:b6:43:5a:e7:fd:9e:7b:b5:9d:c9:
         ba:0a:5a:7f:08:cf:15:f5:a1:50:89:29:fb:49:b2:78:60:30:
         28:36:2c:81:b2:0a:e0:ec:a7:d9:9f:fe:f7:38:2f:b6:6f:5a:
         bb:29:b2:a5:cc:23:09:5c:f8:00:05:3a:53:3f:37:41:5d:7c:
         dd:fc:69:00:3a:91:e5:c4:42:b0:0a:db:90:2a:cd:f6:99:2e:
         ae:04:b7:6d:df:e8:71:9b:7f:5b:6f:78:4d:9b:78:83:01:40:
         e1:fc:fa:e3:f0:fe:5a:f3:ae:a9:30:9e:da:ba:9e:6e:aa:e0:
         a5:98:d1:f0:24:96:c7:37:c4:3e:5d:1b:b1:ff:5d:a1:8f:7f:
         d7:78:c7:0d:c6:ce:20:e3:73:15:b0:23:24:12:e0:d7:f0:b3:
         f8:b2:c0:c7:e9:53:0e:d7:b3:a6:a2:54:06:76:c0:09:31:17:
         73:42:07:e8:25:fd:6d:11:1d:1f:4d:2a:1f:06:52:68:5f:e6:
         66:c2:6a:cf
-----BEGIN CERTIFICATE-----
MIIEzjCCA7agAwIBAgIBZDANBgkqhkiG9w0BAQsFADCBlDELMAkGA1UEBhMCVVMx
EDAOBgNVBAgMB01vbnRhbmExEDAOBgNVBAcMB0JvemVtYW4xETAPBgNVBAoMCFNh
d3Rvb3RoMRMwEQYDVQQLDApDb25zdWx0aW5nMRgwFgYDVQQDDA93d3cud29sZnNz
bC5jb20xHzAdBgkqhkiG9w0BCQEWEGluZm9Ad29sZnNzbC5jb20wHhcNMjIxMjE2
MjExNzUwWhcNMjUwOTExMjExNzUwWjCBozELMAkGA1UEBhMCVVMxEzARBgNVBAgM
Cldhc2hpbmd0b24xEDAOBgNVBAcMB1NlYXR0bGUxFTATBgNVBAoMDHdvbGZTU0wg
SW5jLjEUMBIGA1UECwwLRW5naW5lZXJpbmcxHzAdBgNVBAMMFmNoYWluRC1JQ0Ex
LXBhdGhsZW4xMjcxHzAdBgkqhkiG9w0BCQEWEGluZm9Ad29sZnNzbC5jb20wggEi
MA0GCSqGSIb3DQEBAQUAA4IBDwAwggEKAoIBAQDXgXipGZkS0c89UVQd0xSU7T7e
/+Aj5Pcj/FxJJNg2k+Yq7qerxo3JrUBFyUQGR0wNZQnd2+Lwvc15HOzRjd7y/2b1
sr1DzFh/HdtLl6WDXIdem3OHyB0rR5JV5Nu+UdXrdsKqWXJ79icvvsDb3Dzy4hnJ
sDC7LqKVSAa9jp29jGtexppzS2ywIJZHRNMJa2or+oZfHQunYiJy1VYcqpeMzlej
D+a8zWNUVWCHUOv6jOkVcLNcTQ4nYP0HbozsP6AlxQFZo/wtgEuETBC1yKdrseXF
wZqw1kswIbpCZeA/Wc9/SUs7z2IG9ImuW4FdFWP7fCmmtc/ztbVmBk+j2mc5AgMB
AAGjggEYMIIBFDAdBgNVHQ4EFgQUZ3j5rRxTQR9GvUmbcy583FwtC/swgdQGA1Ud
IwSBzDCByYAUJ45nEXTDJh0/7TNjs6TYHTDl6NWhgZqkgZcwgZQxCzAJBgNVBAYT
AlVTMRAwDgYDVQQIDAdNb250YW5hMRAwDgYDVQQHDAdCb3plbWFuMREwDwYDVQQK
DAhTYXd0b290aDETMBEGA1UECwwKQ29uc3VsdGluZzEYMBYGA1UEAwwPd3d3Lndv
bGZzc2wuY29tMR8wHQYJKoZIhvcNAQkBFhBpbmZvQHdvbGZzc2wuY29tghQsgM7b
R50HZpI9aNfKrJBPymlBSzAPBgNVHRMECDAGAQH/AgF/MAsGA1UdDwQEAwIBBjAN
BgkqhkiG9w0BAQsFAAOCAQEAFFo8ZYTDlmwKFWEYibi1C2ZBF73ZCQPVf/w8ihsu
ZGCNiqNHVcdj0eSrFXbW04KE1hkFCPXH8q3T3jID97y2Q1rn/Z57tZ3JugpafwjP
FfWhUIkp+0myeGAwKDYsgbIK4Oyn2Z/+9zgvtm9auymypcwjCVz4AAU6Uz83QV18
3fxpADqR5cRCsArbkCrN9pkurgS3bd/ocZt/W294TZt4gwFA4fz64/D+WvOuqTCe
2rqebqrgpZjR8CSWxzfEPl0bsf9doY9/13jHDcbOIONzFbAjJBLg1/Cz+LLAx+lT
DtezpqJUBnbACTEXc0IH6CX9bREdH00qHwZSaF/mZsJqzw==
-----END CERTIFICATE-----
