Certificate:
    Data:
        Version: 3 (0x2)
        Serial Number: 100 (0x64)
        Signature Algorithm: sha256WithRSAEncryption
        Issuer: C = US, ST = Washington, L = Seattle, O = wolfSSL Inc., OU = Engineering, CN = chainG-ICA2-pathlen1, emailAddress = info@wolfssl.com
        Validity
            Not Before: Dec 16 21:17:50 2022 GMT
            Not After : Sep 11 21:17:50 2025 GMT
        Subject: C = US, ST = Washington, L = Seattle, O = wolfSSL Inc., OU = Engineering, CN = chainG-ICA1-pathlen0, emailAddress = info@wolfssl.com
        Subject Public Key Info:
            Public Key Algorithm: rsaEncryption
                RSA Public-Key: (2048 bit)
                Modulus:
                    00:d2:26:be:51:98:42:e0:1f:ae:fc:c2:cb:ba:d5:
                    0f:44:3b:0b:60:d8:49:ec:03:43:6b:06:ce:f2:28:
                    19:fb:48:9c:0b:5c:7f:00:a3:22:9f:bc:e9:2a:5b:
                    e4:e1:16:d8:9c:b9:c3:0b:30:e3:1c:83:7d:c0:b9:
                    a4:3f:da:38:ec:8b:38:be:45:c4:a7:1d:c1:68:18:
                    28:19:b0:f2:93:06:3a:bd:23:67:aa:05:89:31:3b:
                    c2:b4:5e:b3:12:cb:3b:f3:9c:d6:df:4c:ed:cb:42:
                    1b:25:80:2d:ab:c4:67:8f:a5:ff:da:6c:f1:18:fd:
                    a1:98:8c:d8:1f:67:6c:28:c7:cb:4e:bb:b0:27:ea:
                    25:b1:5d:73:d0:2a:e9:44:50:b9:f5:65:64:e6:cf:
                    3d:92:d8:c0:6d:ed:96:8e:e2:d3:84:70:d0:db:fe:
                    70:63:44:fa:f8:db:35:d1:95:ad:18:95:21:64:ce:
                    e2:23:7e:5e:6c:2f:ef:a7:63:fe:82:4a:cb:cc:23:
                    cf:9d:26:a5:66:ed:9c:06:7e:70:76:03:72:99:db:
                    fa:be:a5:c3:38:8b:40:24:c1:6b:d7:9c:bb:27:86:
                    22:a9:62:e0:b2:bd:e7:b5:e4:81:ea:64:db:18:16:
                    24:62:81:6c:a8:f2:83:3f:af:3b:b5:fd:b0:d8:84:
                    b2:21
                Exponent: 65537 (0x10001)
        X509v3 extensions:
            X509v3 Subject Key Identifier: 
                47:C0:19:4B:ED:C4:DA:97:B1:60:EA:5A:0A:42:6D:A5:D3:D8:25:31
            X509v3 Authority Key Identifier: 
                keyid:E1:E6:9B:28:CF:FD:AB:45:C1:B7:A7:C4:C9:58:FC:41:E3:1A:5C:74
                DirName:/C=US/ST=Washington/L=Seattle/O=wolfSSL Inc./OU=Engineering/CN=chainG-ICA3-pathlen99/emailAddress=info@wolfssl.com
                serial:64

            X509v3 Basic Constraints: 
                CA:TRUE, pathlen:0
            X509v3 Key Usage: 
                Certificate Sign, CRL Sign
    Signature Algorithm: sha256WithRSAEncryption
         a8:e1:75:09:71:57:28:d6:27:3a:92:89:0c:47:57:05:3a:92:
         81:d3:23:00:92:fd:f3:77:24:60:67:af:86:ba:b2:17:1a:9f:
         5e:3a:ee:ba:a3:fa:1f:76:69:b9:18:4d:89:97:ac:54:5a:9f:
         e2:ad:7a:37:d3:e1:35:fa:39:32:7f:d9:14:98:48:16:4d:99:
         e6:d5:61:0e:31:df:d1:a7:cd:c1:fd:6b:72:59:80:f7:8c:77:
         ef:45:c9:53:ed:b6:a4:73:06:1e:d3:d6:40:01:c8:c7:3c:48:
         71:38:ac:66:a8:f6:e2:5f:75:87:a8:93:28:db:ef:3f:e2:c6:
         2b:0d:ac:63:33:9c:1c:65:8d:9a:b2:3e:c8:2b:0d:3c:96:ef:
         b3:e2:4d:b8:fe:6d:8b:59:66:02:3f:f9:a8:0b:08:a3:30:a7:
         9c:81:74:3d:88:cb:3f:f7:93:95:93:9f:38:53:ac:d9:a5:ae:
         43:46:30:17:25:b1:cb:bf:2d:fe:df:32:17:ec:b0:54:33:c7:
         1c:31:78:86:8c:fd:16:9e:0c:a4:71:3f:d0:a4:0e:26:90:39:
         68:34:bf:34:f7:73:fb:7b:64:14:3f:b4:41:95:c2:da:16:dc:
         20:a4:cc:3e:fa:64:dd:ce:d6:48:11:9d:ab:6b:a7:3e:c6:67:
         1d:ac:f6:0b
-----BEGIN CERTIFICATE-----
MIIE1DCCA7ygAwIBAgIBZDANBgkqhkiG9w0BAQsFADCBoTELMAkGA1UEBhMCVVMx
EzARBgNVBAgMCldhc2hpbmd0b24xEDAOBgNVBAcMB1NlYXR0bGUxFTATBgNVBAoM
DHdvbGZTU0wgSW5jLjEUMBIGA1UECwwLRW5naW5lZXJpbmcxHTAbBgNVBAMMFGNo
YWluRy1JQ0EyLXBhdGhsZW4xMR8wHQYJKoZIhvcNAQkBFhBpbmZvQHdvbGZzc2wu
Y29tMB4XDTIyMTIxNjIxMTc1MFoXDTI1MDkxMTIxMTc1MFowgaExCzAJBgNVBAYT
AlVTMRMwEQYDVQQIDApXYXNoaW5ndG9uMRAwDgYDVQQHDAdTZWF0dGxlMRUwEwYD
VQQKDAx3b2xmU1NMIEluYy4xFDASBgNVBAsMC0VuZ2luZWVyaW5nMR0wGwYDVQQD
DBRjaGFpbkctSUNBMS1wYXRobGVuMDEfMB0GCSqGSIb3DQEJARYQaW5mb0B3b2xm
c3NsLmNvbTCCASIwDQYJKoZIhvcNAQEBBQADggEPADCCAQoCggEBANImvlGYQuAf
rvzCy7rVD0Q7C2DYSewDQ2sGzvIoGftInAtcfwCjIp+86Spb5OEW2Jy5wwsw4xyD
fcC5pD/aOOyLOL5FxKcdwWgYKBmw8pMGOr0jZ6oFiTE7wrResxLLO/Oc1t9M7ctC
GyWALavEZ4+l/9ps8Rj9oZiM2B9nbCjHy067sCfqJbFdc9Aq6URQufVlZObPPZLY
wG3tlo7i04Rw0Nv+cGNE+vjbNdGVrRiVIWTO4iN+Xmwv76dj/oJKy8wjz50mpWbt
nAZ+cHYDcpnb+r6lwziLQCTBa9ecuyeGIqli4LK957Xkgepk2xgWJGKBbKjygz+v
O7X9sNiEsiECAwEAAaOCARMwggEPMB0GA1UdDgQWBBRHwBlL7cTal7Fg6loKQm2l
09glMTCBzwYDVR0jBIHHMIHEgBTh5psoz/2rRcG3p8TJWPxB4xpcdKGBqKSBpTCB
ojELMAkGA1UEBhMCVVMxEzARBgNVBAgMCldhc2hpbmd0b24xEDAOBgNVBAcMB1Nl
YXR0bGUxFTATBgNVBAoMDHdvbGZTU0wgSW5jLjEUMBIGA1UECwwLRW5naW5lZXJp
bmcxHjAcBgNVBAMMFWNoYWluRy1JQ0EzLXBhdGhsZW45OTEfMB0GCSqGSIb3DQEJ
ARYQaW5mb0B3b2xmc3NsLmNvbYIBZDAPBgNVHRMECDAGAQH/AgEAMAsGA1UdDwQE
AwIBBjANBgkqhkiG9w0BAQsFAAOCAQEAqOF1CXFXKNYnOpKJDEdXBTqSgdMjAJL9
83ckYGevhrqyFxqfXjruuqP6H3ZpuRhNiZesVFqf4q16N9PhNfo5Mn/ZFJhIFk2Z
5tVhDjHf0afNwf1rclmA94x370XJU+22pHMGHtPWQAHIxzxIcTisZqj24l91h6iT
KNvvP+LGKw2sYzOcHGWNmrI+yCsNPJbvs+JNuP5ti1lmAj/5qAsIozCnnIF0PYjL
P/eTlZOfOFOs2aWuQ0YwFyWxy78t/t8yF+ywVDPHHDF4hoz9Fp4MpHE/0KQOJpA5
aDS/NPdz+3tkFD+0QZXC2hbcIKTMPvpk3c7WSBGdq2unPsZnHaz2Cw==
-----END CERTIFICATE-----
