Certificate:
    Data:
        Version: 3 (0x2)
        Serial Number: 101 (0x65)
        Signature Algorithm: sha256WithRSAEncryption
        Issuer: C = US, ST = Washington, L = Seattle, O = wolfSSL Inc., OU = Engineering, CN = chainG-ICA1-pathlen0, emailAddress = info@wolfssl.com
        Validity
            Not Before: Dec 16 21:17:50 2022 GMT
            Not After : Sep 11 21:17:50 2025 GMT
        Subject: C = US, ST = Washington, L = Seattle, O = wolfSSL Inc., OU = Engineering, CN = chainG-entity, emailAddress = info@wolfssl.com
        Subject Public Key Info:
            Public Key Algorithm: rsaEncryption
                RSA Public-Key: (2048 bit)
                Modulus:
                    00:bb:7b:82:23:a2:34:e7:cb:89:4e:64:cc:f2:98:
                    c8:65:8f:e2:69:55:54:4b:3c:8b:c0:1f:67:37:7f:
                    09:cb:9e:df:5e:75:f6:99:83:12:ac:15:23:cf:64:
                    a4:10:16:a5:10:af:28:86:00:20:4e:f3:4d:fd:08:
                    fb:a1:a7:18:4c:13:1e:4d:90:2e:e6:9a:e3:28:03:
                    b4:f4:83:ce:fd:a2:a9:86:56:02:62:33:9f:6e:98:
                    7e:0f:cc:06:71:31:8a:93:d2:d9:a3:1d:08:7a:92:
                    f8:7e:bf:90:5f:a1:e6:2b:64:58:bb:a6:9a:c9:19:
                    97:fd:c9:a9:f7:08:27:8a:f3:be:e2:db:88:25:84:
                    91:13:06:e2:63:bc:e1:37:82:7e:6f:5a:da:f0:e2:
                    eb:a1:2a:8f:5d:52:11:af:e2:f5:89:42:79:83:b8:
                    c0:a5:95:dc:42:c6:1c:90:51:1e:33:f3:f1:c2:e4:
                    d2:7b:87:c3:64:90:b7:5f:9b:38:ef:d2:d0:4f:d5:
                    51:aa:e0:3a:d1:c3:01:03:e7:32:b1:27:c6:48:5a:
                    c0:ac:26:8d:94:61:76:f8:98:ff:30:6d:aa:55:c3:
                    63:fd:a4:a4:1b:3c:6b:e8:05:75:41:17:5d:ad:c9:
                    17:9b:c3:4d:6e:9f:7d:7d:36:fe:c0:a3:99:d6:e5:
                    92:ad
                Exponent: 65537 (0x10001)
        X509v3 extensions:
            X509v3 Subject Key Identifier: 
                21:3A:72:3B:95:38:DF:99:DE:62:25:21:D0:14:81:6E:CA:AA:FB:A1
            X509v3 Authority Key Identifier: 
                keyid:47:C0:19:4B:ED:C4:DA:97:B1:60:EA:5A:0A:42:6D:A5:D3:D8:25:31
                DirName:/C=US/ST=Washington/L=Seattle/O=wolfSSL Inc./OU=Engineering/CN=chainG-ICA2-pathlen1/emailAddress=info@wolfssl.com
                serial:64

            X509v3 Basic Constraints: 
                CA:FALSE
    Signature Algorithm: sha256WithRSAEncryption
         a9:28:b3:d9:91:da:b9:0b:35:94:8d:b0:53:7c:6c:0d:b7:ab:
         41:7b:72:42:48:5b:13:6f:15:4b:df:cd:69:48:01:f4:b7:6d:
         4d:c3:be:85:91:31:1b:f7:54:e8:3e:6c:b7:ad:29:16:9b:f7:
         99:f4:67:a6:cb:96:7e:5b:8a:32:41:20:89:88:8d:a0:f2:81:
         3a:50:14:66:06:9b:eb:c0:ee:bb:d1:0c:84:7c:e3:bb:b6:92:
         62:68:3b:b0:0d:c2:ed:f4:d1:7f:8f:15:8c:1a:fd:fe:9d:be:
         84:0d:47:53:ad:c6:d7:60:52:71:5d:65:0a:28:aa:22:03:73:
         cf:1f:d6:e1:1a:5c:b7:54:83:93:c8:38:bc:3b:64:50:91:f5:
         ff:65:fd:3e:4b:fc:8c:96:80:c0:51:1f:14:16:3a:35:f2:93:
         67:99:dd:e3:8d:10:52:25:a9:1b:9f:43:7a:9a:31:ae:f1:9e:
         49:cb:17:e8:8b:17:59:42:7d:15:82:d8:4b:a4:02:d9:ea:96:
         69:0e:01:de:8c:47:63:54:88:b1:df:31:fd:16:8c:53:22:81:
         62:e3:96:10:b2:21:af:4b:72:82:66:aa:d1:06:09:f4:bd:00:
         b6:f1:7a:4a:48:82:61:f5:de:c3:04:17:3a:83:46:38:b7:ff:
         db:26:0e:f9
-----BEGIN CERTIFICATE-----
MIIEtzCCA5+gAwIBAgIBZTANBgkqhkiG9w0BAQsFADCBoTELMAkGA1UEBhMCVVMx
EzARBgNVBAgMCldhc2hpbmd0b24xEDAOBgNVBAcMB1NlYXR0bGUxFTATBgNVBAoM
DHdvbGZTU0wgSW5jLjEUMBIGA1UECwwLRW5naW5lZXJpbmcxHTAbBgNVBAMMFGNo
YWluRy1JQ0ExLXBhdGhsZW4wMR8wHQYJKoZIhvcNAQkBFhBpbmZvQHdvbGZzc2wu
Y29tMB4XDTIyMTIxNjIxMTc1MFoXDTI1MDkxMTIxMTc1MFowgZoxCzAJBgNVBAYT
AlVTMRMwEQYDVQQIDApXYXNoaW5ndG9uMRAwDgYDVQQHDAdTZWF0dGxlMRUwEwYD
VQQKDAx3b2xmU1NMIEluYy4xFDASBgNVBAsMC0VuZ2luZWVyaW5nMRYwFAYDVQQD
DA1jaGFpbkctZW50aXR5MR8wHQYJKoZIhvcNAQkBFhBpbmZvQHdvbGZzc2wuY29t
MIIBIjANBgkqhkiG9w0BAQEFAAOCAQ8AMIIBCgKCAQEAu3uCI6I058uJTmTM8pjI
ZY/iaVVUSzyLwB9nN38Jy57fXnX2mYMSrBUjz2SkEBalEK8ohgAgTvNN/Qj7oacY
TBMeTZAu5prjKAO09IPO/aKphlYCYjOfbph+D8wGcTGKk9LZox0IepL4fr+QX6Hm
K2RYu6aayRmX/cmp9wgnivO+4tuIJYSREwbiY7zhN4J+b1ra8OLroSqPXVIRr+L1
iUJ5g7jApZXcQsYckFEeM/PxwuTSe4fDZJC3X5s479LQT9VRquA60cMBA+cysSfG
SFrArCaNlGF2+Jj/MG2qVcNj/aSkGzxr6AV1QRddrckXm8NNbp99fTb+wKOZ1uWS
rQIDAQABo4H+MIH7MB0GA1UdDgQWBBQhOnI7lTjfmd5iJSHQFIFuyqr7oTCBzgYD
VR0jBIHGMIHDgBRHwBlL7cTal7Fg6loKQm2l09glMaGBp6SBpDCBoTELMAkGA1UE
BhMCVVMxEzARBgNVBAgMCldhc2hpbmd0b24xEDAOBgNVBAcMB1NlYXR0bGUxFTAT
BgNVBAoMDHdvbGZTU0wgSW5jLjEUMBIGA1UECwwLRW5naW5lZXJpbmcxHTAbBgNV
BAMMFGNoYWluRy1JQ0EyLXBhdGhsZW4xMR8wHQYJKoZIhvcNAQkBFhBpbmZvQHdv
bGZzc2wuY29tggFkMAkGA1UdEwQCMAAwDQYJKoZIhvcNAQELBQADggEBAKkos9mR
2rkLNZSNsFN8bA23q0F7ckJIWxNvFUvfzWlIAfS3bU3DvoWRMRv3VOg+bLetKRab
95n0Z6bLln5bijJBIImIjaDygTpQFGYGm+vA7rvRDIR847u2kmJoO7ANwu300X+P
FYwa/f6dvoQNR1OtxtdgUnFdZQooqiIDc88f1uEaXLdUg5PIOLw7ZFCR9f9l/T5L
/IyWgMBRHxQWOjXyk2eZ3eONEFIlqRufQ3qaMa7xnknLF+iLF1lCfRWC2EukAtnq
lmkOAd6MR2NUiLHfMf0WjFMigWLjlhCyIa9LcoJmqtEGCfS9ALbxekpIgmH13sME
FzqDRji3/9smDvk=
-----END CERTIFICATE-----
