Certificate:
    Data:
        Version: 3 (0x2)
        Serial Number: 100 (0x64)
        Signature Algorithm: sha256WithRSAEncryption
        Issuer: C = US, ST = Montana, L = Bozeman, O = Sawtooth, OU = Consulting, CN = www.wolfssl.com, emailAddress = info@wolfssl.com
        Validity
            Not Before: Dec 16 21:17:50 2022 GMT
            Not After : Sep 11 21:17:50 2025 GMT
        Subject: C = US, ST = Washington, L = Seattle, O = wolfSSL Inc., OU = Engineering, CN = chainA-ICA1-pathlen0, emailAddress = info@wolfssl.com
        Subject Public Key Info:
            Public Key Algorithm: rsaEncryption
                RSA Public-Key: (2048 bit)
                Modulus:
                    00:b2:2b:a1:3f:be:c0:58:bd:3a:bc:0d:19:ac:ca:
                    7f:b9:3b:f0:8c:30:ff:04:b1:34:7e:26:86:96:36:
                    6b:53:2e:44:1d:a1:f4:bc:51:79:55:05:ca:bb:a0:
                    a7:9d:33:01:93:96:14:67:ec:f4:c3:2e:66:27:d1:
                    41:68:34:ac:8d:64:63:d8:55:86:9d:62:24:99:ed:
                    b7:ff:cb:4d:9d:40:54:d5:e3:aa:45:a6:a6:db:fe:
                    73:42:94:42:c1:d0:32:5c:c4:21:ae:9c:93:00:b7:
                    4a:1f:9e:95:a6:28:6d:4b:d8:c0:65:e7:ed:a3:6d:
                    ca:18:b3:fa:df:c9:67:1a:75:23:60:83:a5:03:5f:
                    61:bd:e5:d6:8d:9d:05:47:23:7e:a0:8d:d1:7f:42:
                    4e:38:ac:ce:70:bc:bf:7b:05:5b:0f:82:02:b0:9a:
                    8d:c0:14:ca:d0:45:5e:97:10:d1:a1:e1:23:da:dc:
                    69:9c:ce:53:cc:68:89:c6:40:4d:69:bc:ab:4f:c7:
                    11:5e:62:a2:df:e2:a5:34:7c:39:36:27:67:34:11:
                    04:2c:2a:b3:16:db:8e:fd:d7:7b:1d:93:5f:33:c2:
                    ca:96:22:2a:43:82:8a:48:46:07:13:ff:6c:1c:b0:
                    ba:0b:f0:cd:3f:4c:dc:34:17:8f:22:70:69:9d:22:
                    d7:c7
                Exponent: 65537 (0x10001)
        X509v3 extensions:
            X509v3 Subject Key Identifier: 
                A8:10:EA:C8:EF:4F:00:CD:E3:79:C3:EB:DF:F6:C8:86:9D:44:6C:26
            X509v3 Authority Key Identifier: 
                keyid:27:8E:67:11:74:C3:26:1D:3F:ED:33:63:B3:A4:D8:1D:30:E5:E8:D5
                DirName:/C=US/ST=Montana/L=Bozeman/O=Sawtooth/OU=Consulting/CN=www.wolfssl.com/emailAddress=info@wolfssl.com
                serial:2C:80:CE:DB:47:9D:07:66:92:3D:68:D7:CA:AC:90:4F:CA:69:41:4B

            X509v3 Basic Constraints: 
                CA:TRUE, pathlen:0
            X509v3 Key Usage: 
                Certificate Sign, CRL Sign
    Signature Algorithm: sha256WithRSAEncryption
         24:f8:97:5a:ff:43:de:e4:fe:0c:a4:8e:e4:b3:fb:97:22:81:
         f0:1c:83:37:56:d8:7e:ea:d5:a9:74:3f:df:49:01:6a:4d:dc:
         ec:9a:08:a7:30:ec:5b:86:bf:bd:74:c4:b7:1e:ba:e5:f0:b0:
         58:75:8a:22:49:0e:c2:6c:bd:2f:25:e1:a5:a2:61:77:7a:19:
         8f:d6:87:ef:3d:2b:32:d1:6f:21:59:04:00:76:60:c9:ae:7b:
         57:41:d7:31:97:da:4c:3e:e3:c2:49:a8:18:80:97:dd:31:97:
         f3:e6:72:ee:29:83:93:f6:19:03:84:c8:e5:47:1d:da:cf:2c:
         d5:95:cb:23:83:34:4b:ea:06:dd:46:60:fb:0f:da:0d:75:63:
         0c:53:36:3e:3e:03:79:d8:71:c9:ee:97:d6:31:8a:52:98:de:
         dd:35:58:64:a9:7c:50:84:c3:42:63:ec:71:44:f6:b1:e2:07:
         90:c5:4e:58:17:5d:51:ab:aa:a4:ef:aa:b3:42:90:5e:fc:aa:
         db:1f:5e:0e:91:e7:16:5a:11:ce:98:b8:84:3f:f0:61:76:73:
         76:09:cf:63:01:ba:79:53:35:c5:e9:76:6e:19:70:f9:46:85:
         81:8e:81:14:84:c4:bf:f8:1b:cd:cc:d9:ef:1b:d2:4e:fb:1a:
         36:de:70:35
-----BEGIN CERTIFICATE-----
MIIEzDCCA7SgAwIBAgIBZDANBgkqhkiG9w0BAQsFADCBlDELMAkGA1UEBhMCVVMx
EDAOBgNVBAgMB01vbnRhbmExEDAOBgNVBAcMB0JvemVtYW4xETAPBgNVBAoMCFNh
d3Rvb3RoMRMwEQYDVQQLDApDb25zdWx0aW5nMRgwFgYDVQQDDA93d3cud29sZnNz
bC5jb20xHzAdBgkqhkiG9w0BCQEWEGluZm9Ad29sZnNzbC5jb20wHhcNMjIxMjE2
MjExNzUwWhcNMjUwOTExMjExNzUwWjCBoTELMAkGA1UEBhMCVVMxEzARBgNVBAgM
Cldhc2hpbmd0b24xEDAOBgNVBAcMB1NlYXR0bGUxFTATBgNVBAoMDHdvbGZTU0wg
SW5jLjEUMBIGA1UECwwLRW5naW5lZXJpbmcxHTAbBgNVBAMMFGNoYWluQS1JQ0Ex
LXBhdGhsZW4wMR8wHQYJKoZIhvcNAQkBFhBpbmZvQHdvbGZzc2wuY29tMIIBIjAN
BgkqhkiG9w0BAQEFAAOCAQ8AMIIBCgKCAQEAsiuhP77AWL06vA0ZrMp/uTvwjDD/
BLE0fiaGljZrUy5EHaH0vFF5VQXKu6CnnTMBk5YUZ+z0wy5mJ9FBaDSsjWRj2FWG
nWIkme23/8tNnUBU1eOqRaam2/5zQpRCwdAyXMQhrpyTALdKH56VpihtS9jAZeft
o23KGLP638lnGnUjYIOlA19hveXWjZ0FRyN+oI3Rf0JOOKzOcLy/ewVbD4ICsJqN
wBTK0EVelxDRoeEj2txpnM5TzGiJxkBNabyrT8cRXmKi3+KlNHw5NidnNBEELCqz
FtuO/dd7HZNfM8LKliIqQ4KKSEYHE/9sHLC6C/DNP0zcNBePInBpnSLXxwIDAQAB
o4IBGDCCARQwHQYDVR0OBBYEFKgQ6sjvTwDN43nD69/2yIadRGwmMIHUBgNVHSME
gcwwgcmAFCeOZxF0wyYdP+0zY7Ok2B0w5ejVoYGapIGXMIGUMQswCQYDVQQGEwJV
UzEQMA4GA1UECAwHTW9udGFuYTEQMA4GA1UEBwwHQm96ZW1hbjERMA8GA1UECgwI
U2F3dG9vdGgxEzARBgNVBAsMCkNvbnN1bHRpbmcxGDAWBgNVBAMMD3d3dy53b2xm
c3NsLmNvbTEfMB0GCSqGSIb3DQEJARYQaW5mb0B3b2xmc3NsLmNvbYIULIDO20ed
B2aSPWjXyqyQT8ppQUswDwYDVR0TBAgwBgEB/wIBADALBgNVHQ8EBAMCAQYwDQYJ
KoZIhvcNAQELBQADggEBACT4l1r/Q97k/gykjuSz+5cigfAcgzdW2H7q1al0P99J
AWpN3OyaCKcw7FuGv710xLceuuXwsFh1iiJJDsJsvS8l4aWiYXd6GY/Wh+89KzLR
byFZBAB2YMmue1dB1zGX2kw+48JJqBiAl90xl/Pmcu4pg5P2GQOEyOVHHdrPLNWV
yyODNEvqBt1GYPsP2g11YwxTNj4+A3nYccnul9YxilKY3t01WGSpfFCEw0Jj7HFE
9rHiB5DFTlgXXVGrqqTvqrNCkF78qtsfXg6R5xZaEc6YuIQ/8GF2c3YJz2MBunlT
NcXpdm4ZcPlGhYGOgRSExL/4G83M2e8b0k77GjbecDU=
-----END CERTIFICATE-----
