Certificate:
    Data:
        Version: 3 (0x2)
        Serial Number: 100 (0x64)
        Signature Algorithm: sha256WithRSAEncryption
        Issuer: C = US, ST = Washington, L = Seattle, O = wolfSSL Inc., OU = Engineering, CN = chainG-ICA5-pathlen20, emailAddress = info@wolfssl.com
        Validity
            Not Before: Dec 16 21:17:50 2022 GMT
            Not After : Sep 11 21:17:50 2025 GMT
        Subject: C = US, ST = Washington, L = Seattle, O = wolfSSL Inc., OU = Engineering, CN = chainG-ICA4-pathlen5, emailAddress = info@wolfssl.com
        Subject Public Key Info:
            Public Key Algorithm: rsaEncryption
                RSA Public-Key: (2048 bit)
                Modulus:
                    00:c9:4b:a0:77:b8:42:43:96:e1:f4:8d:1d:a6:2c:
                    d8:12:a2:40:49:11:eb:5f:fb:6c:1d:15:3e:af:dd:
                    3b:c7:fd:c9:61:43:99:8e:c7:bc:63:bc:5b:93:24:
                    f3:e5:66:c8:3e:3a:9c:7d:0e:1b:c1:6c:84:8c:90:
                    b0:11:aa:23:2d:78:99:17:3e:e9:6b:a0:8c:64:fd:
                    10:7b:66:ed:b4:3e:b0:96:ef:36:1f:2d:6d:c4:96:
                    3c:5a:dc:83:c2:e9:cd:64:d3:5f:c7:ea:db:84:2e:
                    24:0c:77:d1:fd:8c:cf:d7:78:af:5b:98:e9:c4:fd:
                    66:fa:76:1d:7a:c3:c3:64:32:ad:b9:8b:5a:4c:82:
                    ed:3a:fe:07:44:20:13:88:df:02:2c:d9:97:21:a4:
                    39:a6:f3:7e:8b:e2:c0:cc:86:6b:5a:25:30:d7:f9:
                    ba:29:ef:1b:2e:f6:3f:c1:7d:b1:0c:95:8e:c0:ce:
                    73:41:47:1c:ec:33:44:60:46:9d:b0:75:07:50:c8:
                    19:bf:1e:82:c8:c3:3d:d8:e2:19:1e:0b:36:9d:34:
                    95:87:ea:a0:1f:e8:80:60:a5:b1:94:42:1e:57:c8:
                    a0:e6:ad:f8:73:c8:82:e4:38:84:d3:97:fc:85:c4:
                    de:d2:c0:c5:6d:c7:1e:eb:1d:c1:f1:de:97:27:ca:
                    be:4b
                Exponent: 65537 (0x10001)
        X509v3 extensions:
            X509v3 Subject Key Identifier: 
                D4:92:AE:BD:3B:1C:66:4B:17:88:18:15:F8:27:AB:38:CC:07:5A:65
            X509v3 Authority Key Identifier: 
                keyid:1D:51:80:B6:9A:A7:AC:DD:80:7B:4B:A2:0B:62:BE:E4:87:30:C7:CA
                DirName:/C=US/ST=Washington/L=Seattle/O=wolfSSL Inc./OU=Engineering/CN=chainG-ICA6-pathlen10/emailAddress=info@wolfssl.com
                serial:64

            X509v3 Basic Constraints: 
                CA:TRUE, pathlen:5
            X509v3 Key Usage: 
                Certificate Sign, CRL Sign
    Signature Algorithm: sha256WithRSAEncryption
         04:f9:2d:12:27:73:f5:79:fd:73:35:ec:7c:dd:fb:fc:66:07:
         b6:ce:a6:2a:25:c2:12:6f:c7:9f:15:fa:b4:1f:3c:b9:c3:ea:
         9c:ee:85:02:d9:f3:66:19:10:e5:7f:57:76:e7:07:77:86:34:
         44:84:e8:89:a5:98:b8:b6:21:8f:f0:60:95:96:38:ce:be:ab:
         ee:a6:1d:47:dc:bf:37:c2:ca:d5:54:0c:8b:6f:11:e5:52:b6:
         52:36:95:d1:ef:e0:18:7f:b2:00:8d:b4:dd:94:69:41:fc:7d:
         d4:43:55:bd:e8:e3:5f:1a:71:9a:1a:fa:4a:d3:d7:bd:ce:ac:
         e6:83:6b:47:31:60:90:96:d8:4c:34:0e:ba:25:d7:f2:40:3a:
         37:bb:27:4c:de:40:9a:20:a5:0e:23:9b:ef:90:7f:1c:23:fd:
         62:c7:f5:c1:35:de:73:f4:09:e6:e6:a2:15:64:53:93:95:38:
         06:2b:64:59:7d:56:8c:88:3c:6f:f5:b7:8f:21:9c:a8:a7:46:
         da:66:5e:5c:e5:6a:4b:81:69:97:e3:5c:ed:7c:01:90:5e:bd:
         06:47:e7:48:db:e8:13:18:f9:2e:6b:a0:26:61:d7:49:83:b7:
         9d:b9:98:b7:c0:40:c7:0d:e8:5e:2a:f7:67:85:36:24:0e:68:
         8d:ca:8e:78
-----BEGIN CERTIFICATE-----
MIIE1TCCA72gAwIBAgIBZDANBgkqhkiG9w0BAQsFADCBojELMAkGA1UEBhMCVVMx
EzARBgNVBAgMCldhc2hpbmd0b24xEDAOBgNVBAcMB1NlYXR0bGUxFTATBgNVBAoM
DHdvbGZTU0wgSW5jLjEUMBIGA1UECwwLRW5naW5lZXJpbmcxHjAcBgNVBAMMFWNo
YWluRy1JQ0E1LXBhdGhsZW4yMDEfMB0GCSqGSIb3DQEJARYQaW5mb0B3b2xmc3Ns
LmNvbTAeFw0yMjEyMTYyMTE3NTBaFw0yNTA5MTEyMTE3NTBaMIGhMQswCQYDVQQG
EwJVUzETMBEGA1UECAwKV2FzaGluZ3RvbjEQMA4GA1UEBwwHU2VhdHRsZTEVMBMG
A1UECgwMd29sZlNTTCBJbmMuMRQwEgYDVQQLDAtFbmdpbmVlcmluZzEdMBsGA1UE
AwwUY2hhaW5HLUlDQTQtcGF0aGxlbjUxHzAdBgkqhkiG9w0BCQEWEGluZm9Ad29s
ZnNzbC5jb20wggEiMA0GCSqGSIb3DQEBAQUAA4IBDwAwggEKAoIBAQDJS6B3uEJD
luH0jR2mLNgSokBJEetf+2wdFT6v3TvH/clhQ5mOx7xjvFuTJPPlZsg+Opx9DhvB
bISMkLARqiMteJkXPulroIxk/RB7Zu20PrCW7zYfLW3Eljxa3IPC6c1k01/H6tuE
LiQMd9H9jM/XeK9bmOnE/Wb6dh16w8NkMq25i1pMgu06/gdEIBOI3wIs2ZchpDmm
836L4sDMhmtaJTDX+bop7xsu9j/BfbEMlY7AznNBRxzsM0RgRp2wdQdQyBm/HoLI
wz3Y4hkeCzadNJWH6qAf6IBgpbGUQh5XyKDmrfhzyILkOITTl/yFxN7SwMVtxx7r
HcHx3pcnyr5LAgMBAAGjggETMIIBDzAdBgNVHQ4EFgQU1JKuvTscZksXiBgV+Cer
OMwHWmUwgc8GA1UdIwSBxzCBxIAUHVGAtpqnrN2Ae0uiC2K+5Icwx8qhgaikgaUw
gaIxCzAJBgNVBAYTAlVTMRMwEQYDVQQIDApXYXNoaW5ndG9uMRAwDgYDVQQHDAdT
ZWF0dGxlMRUwEwYDVQQKDAx3b2xmU1NMIEluYy4xFDASBgNVBAsMC0VuZ2luZWVy
aW5nMR4wHAYDVQQDDBVjaGFpbkctSUNBNi1wYXRobGVuMTAxHzAdBgkqhkiG9w0B
CQEWEGluZm9Ad29sZnNzbC5jb22CAWQwDwYDVR0TBAgwBgEB/wIBBTALBgNVHQ8E
BAMCAQYwDQYJKoZIhvcNAQELBQADggEBAAT5LRInc/V5/XM17Hzd+/xmB7bOpiol
whJvx58V+rQfPLnD6pzuhQLZ82YZEOV/V3bnB3eGNESE6ImlmLi2IY/wYJWWOM6+
q+6mHUfcvzfCytVUDItvEeVStlI2ldHv4Bh/sgCNtN2UaUH8fdRDVb3o418acZoa
+krT173OrOaDa0cxYJCW2Ew0Drol1/JAOje7J0zeQJogpQ4jm++Qfxwj/WLH9cE1
3nP0CebmohVkU5OVOAYrZFl9VoyIPG/1t48hnKinRtpmXlzlakuBaZfjXO18AZBe
vQZH50jb6BMY+S5roCZh10mDt525mLfAQMcN6F4q92eFNiQOaI3Kjng=
-----END CERTIFICATE-----
