Certificate:
    Data:
        Version: 3 (0x2)
        Serial Number: 101 (0x65)
        Signature Algorithm: sha256WithRSAEncryption
        Issuer: C = US, ST = Washington, L = Seattle, O = wolfSSL Inc., OU = Engineering, CN = chainI-ICA1-no_pathlen, emailAddress = info@wolfssl.com
        Validity
            Not Before: Dec 16 21:17:50 2022 GMT
            Not After : Sep 11 21:17:50 2025 GMT
        Subject: C = US, ST = Washington, L = Seattle, O = wolfSSL Inc., OU = Engineering, CN = chainI-entity, emailAddress = info@wolfssl.com
        Subject Public Key Info:
            Public Key Algorithm: rsaEncryption
                RSA Public-Key: (2048 bit)
                Modulus:
                    00:f3:ac:32:8f:52:af:a9:cf:9e:23:a4:96:8e:e9:
                    e8:0a:3a:b7:6a:7b:ba:70:85:68:e2:52:f3:38:39:
                    cf:c8:f1:8a:f6:55:1e:59:fa:97:fe:e7:9b:07:2a:
                    b6:80:2a:92:d9:39:95:9e:0c:1f:d7:ad:1f:74:4d:
                    8e:61:6f:64:24:4c:d4:95:03:8f:d3:f2:3d:6e:d8:
                    d8:d5:aa:64:7d:82:ee:74:07:16:68:fa:95:17:9b:
                    35:8f:c3:6c:47:88:3e:40:de:93:36:ed:62:f4:cc:
                    67:45:ee:ea:45:9f:fc:f1:63:6d:b7:fa:f8:c3:e0:
                    6f:c7:4a:3e:04:49:04:37:8b:3a:99:e8:64:0a:86:
                    43:ab:5b:34:1e:6c:33:a2:a4:26:7c:c7:6c:48:99:
                    7d:85:f5:1f:c1:9c:a9:c7:8f:51:6b:8a:86:8d:1c:
                    b0:d2:82:ba:a4:a7:09:29:8b:0a:20:d1:7c:b1:67:
                    0c:61:cd:88:33:5e:38:ab:08:78:0b:80:0b:ce:63:
                    03:b9:40:7b:67:3e:a8:ac:4e:44:92:09:4c:3f:e0:
                    3d:55:cb:aa:5a:bc:17:9c:4e:9e:40:5c:82:fc:3b:
                    3a:54:40:90:f9:22:3c:f4:00:5f:95:13:72:49:29:
                    ae:5f:31:22:30:04:05:6a:7b:b5:0a:0a:a6:5e:72:
                    4d:5f
                Exponent: 65537 (0x10001)
        X509v3 extensions:
            X509v3 Subject Key Identifier: 
                EB:B5:A2:7B:24:95:03:11:6B:56:CB:13:3E:A8:B2:8F:B1:CF:5D:C4
            X509v3 Authority Key Identifier: 
                keyid:9E:54:B6:95:EA:89:07:A6:C9:E4:82:E8:D0:34:64:5D:08:CD:56:A0
                DirName:/C=US/ST=Washington/L=Seattle/O=wolfSSL Inc./OU=Engineering/CN=chainI-ICA2-no_pathlen/emailAddress=info@wolfssl.com
                serial:64

            X509v3 Basic Constraints: 
                CA:FALSE
    Signature Algorithm: sha256WithRSAEncryption
         7a:19:8d:a9:ab:4e:b7:89:d0:db:65:49:18:dc:23:9e:71:bf:
         28:c6:54:de:dd:e4:9a:bf:89:be:2b:3e:fb:1f:47:dc:1e:e9:
         8f:3d:b1:4e:7d:63:3b:48:12:8c:cc:c9:98:6f:35:c1:9f:26:
         ed:f6:e5:50:55:84:94:c0:8e:e3:78:49:8d:21:33:41:03:10:
         9a:16:27:0b:33:90:18:3a:f4:1e:59:75:3e:c2:9d:b8:58:fe:
         52:26:11:95:f1:14:f9:17:2f:f6:6a:a5:e3:03:af:94:a4:18:
         71:82:63:aa:ad:d0:55:08:48:bd:80:16:cf:36:8a:f2:69:2f:
         fd:e0:72:96:2e:b3:75:c5:8f:60:b9:46:a0:e0:ad:a2:54:2e:
         b9:f9:c0:ab:a5:e2:88:47:9a:ec:a7:c9:e3:74:22:90:57:a4:
         03:b4:2f:33:bf:e6:58:35:3f:75:b3:5f:b7:aa:f8:d5:2a:7f:
         4a:bd:55:4e:d6:e6:a4:25:67:aa:99:57:4b:ca:28:7a:d8:78:
         08:51:a2:95:53:e1:04:6a:48:3f:85:57:f0:81:53:9b:80:87:
         24:da:d9:7e:c0:6c:a8:f1:75:50:7f:d4:0c:ba:c6:9a:16:f1:
         00:5e:25:c5:99:7f:44:f1:39:c6:72:bd:e5:4a:ff:3a:89:15:
         25:3c:2e:28
-----BEGIN CERTIFICATE-----
MIIEvDCCA6SgAwIBAgIBZTANBgkqhkiG9w0BAQsFADCBozELMAkGA1UEBhMCVVMx
EzARBgNVBAgMCldhc2hpbmd0b24xEDAOBgNVBAcMB1NlYXR0bGUxFTATBgNVBAoM
DHdvbGZTU0wgSW5jLjEUMBIGA1UECwwLRW5naW5lZXJpbmcxHzAdBgNVBAMMFmNo
YWluSS1JQ0ExLW5vX3BhdGhsZW4xHzAdBgkqhkiG9w0BCQEWEGluZm9Ad29sZnNz
bC5jb20wHhcNMjIxMjE2MjExNzUwWhcNMjUwOTExMjExNzUwWjCBmjELMAkGA1UE
BhMCVVMxEzARBgNVBAgMCldhc2hpbmd0b24xEDAOBgNVBAcMB1NlYXR0bGUxFTAT
BgNVBAoMDHdvbGZTU0wgSW5jLjEUMBIGA1UECwwLRW5naW5lZXJpbmcxFjAUBgNV
BAMMDWNoYWluSS1lbnRpdHkxHzAdBgkqhkiG9w0BCQEWEGluZm9Ad29sZnNzbC5j
b20wggEiMA0GCSqGSIb3DQEBAQUAA4IBDwAwggEKAoIBAQDzrDKPUq+pz54jpJaO
6egKOrdqe7pwhWjiUvM4Oc/I8Yr2VR5Z+pf+55sHKraAKpLZOZWeDB/XrR90TY5h
b2QkTNSVA4/T8j1u2NjVqmR9gu50BxZo+pUXmzWPw2xHiD5A3pM27WL0zGdF7upF
n/zxY223+vjD4G/HSj4ESQQ3izqZ6GQKhkOrWzQebDOipCZ8x2xImX2F9R/BnKnH
j1FrioaNHLDSgrqkpwkpiwog0XyxZwxhzYgzXjirCHgLgAvOYwO5QHtnPqisTkSS
CUw/4D1Vy6pavBecTp5AXIL8OzpUQJD5Ijz0AF+VE3JJKa5fMSIwBAVqe7UKCqZe
ck1fAgMBAAGjggEAMIH9MB0GA1UdDgQWBBTrtaJ7JJUDEWtWyxM+qLKPsc9dxDCB
0AYDVR0jBIHIMIHFgBSeVLaV6okHpsnkgujQNGRdCM1WoKGBqaSBpjCBozELMAkG
A1UEBhMCVVMxEzARBgNVBAgMCldhc2hpbmd0b24xEDAOBgNVBAcMB1NlYXR0bGUx
FTATBgNVBAoMDHdvbGZTU0wgSW5jLjEUMBIGA1UECwwLRW5naW5lZXJpbmcxHzAd
BgNVBAMMFmNoYWluSS1JQ0EyLW5vX3BhdGhsZW4xHzAdBgkqhkiG9w0BCQEWEGlu
Zm9Ad29sZnNzbC5jb22CAWQwCQYDVR0TBAIwADANBgkqhkiG9w0BAQsFAAOCAQEA
ehmNqatOt4nQ22VJGNwjnnG/KMZU3t3kmr+Jvis++x9H3B7pjz2xTn1jO0gSjMzJ
mG81wZ8m7fblUFWElMCO43hJjSEzQQMQmhYnCzOQGDr0Hll1PsKduFj+UiYRlfEU
+Rcv9mql4wOvlKQYcYJjqq3QVQhIvYAWzzaK8mkv/eByli6zdcWPYLlGoOCtolQu
ufnAq6XiiEea7KfJ43QikFekA7QvM7/mWDU/dbNft6r41Sp/Sr1VTtbmpCVnqplX
S8ooeth4CFGilVPhBGpIP4VX8IFTm4CHJNrZfsBsqPF1UH/UDLrGmhbxAF4lxZl/
RPE5xnK95Ur/OokVJTwuKA==
-----END CERTIFICATE-----
Certificate:
    Data:
        Version: 3 (0x2)
        Serial Number: 100 (0x64)
        Signature Algorithm: sha256WithRSAEncryption
        Issuer: C = US, ST = Washington, L = Seattle, O = wolfSSL Inc., OU = Engineering, CN = chainI-ICA2-no_pathlen, emailAddress = info@wolfssl.com
        Validity
            Not Before: Dec 16 21:17:50 2022 GMT
            Not After : Sep 11 21:17:50 2025 GMT
        Subject: C = US, ST = Washington, L = Seattle, O = wolfSSL Inc., OU = Engineering, CN = chainI-ICA1-no_pathlen, emailAddress = info@wolfssl.com
        Subject Public Key Info:
            Public Key Algorithm: rsaEncryption
                RSA Public-Key: (2048 bit)
                Modulus:
                    00:bb:ba:06:ad:13:cf:da:fb:d1:cb:65:fe:26:58:
                    49:6a:01:14:a6:78:b2:2c:1d:ba:ba:d0:bd:27:38:
                    66:7c:a0:1b:28:08:3c:6a:fd:f8:87:be:49:a2:ed:
                    38:f2:4c:b0:8b:93:ff:d2:c5:3f:cd:03:c5:14:79:
                    e8:76:63:7a:aa:a7:54:1e:0e:27:bd:1b:be:e8:3f:
                    2b:55:40:f0:59:23:d8:3f:e8:05:1a:0b:71:f0:fd:
                    24:d9:f9:0b:99:25:da:af:96:34:ee:e1:91:cb:fc:
                    8f:a0:41:8f:9c:e1:4f:57:5f:b6:d6:55:69:6f:c3:
                    64:c3:11:a9:69:40:85:df:f3:9a:59:b5:ee:90:c0:
                    22:ee:72:28:2e:d3:da:65:27:3b:ba:42:c0:9e:73:
                    ba:a2:f2:45:13:7a:c5:1d:30:a5:b7:db:75:5d:6f:
                    cc:08:77:80:67:8d:18:2a:ca:02:8d:8e:d3:9c:2a:
                    fa:b7:8f:1b:7d:ef:62:77:a4:fa:b6:d8:5a:3e:66:
                    9c:3e:13:45:a8:cf:61:fb:ff:41:45:14:21:e2:63:
                    ac:81:4d:65:89:e3:d5:71:20:01:19:76:ec:a4:16:
                    a6:ef:3c:bc:f2:a2:56:2b:07:31:67:0d:e5:97:88:
                    e8:db:cb:4d:98:cb:99:e6:e0:bd:62:48:2b:b1:04:
                    12:07
                Exponent: 65537 (0x10001)
        X509v3 extensions:
            X509v3 Subject Key Identifier: 
                9E:54:B6:95:EA:89:07:A6:C9:E4:82:E8:D0:34:64:5D:08:CD:56:A0
            X509v3 Authority Key Identifier: 
                keyid:D1:BA:FB:FF:1D:29:41:8A:6A:5F:B2:F3:A7:41:05:47:09:1F:48:42
                DirName:/C=US/ST=Washington/L=Seattle/O=wolfSSL Inc./OU=Engineering/CN=chainI-ICA3-pathlen2/emailAddress=info@wolfssl.com
                serial:64

            X509v3 Basic Constraints: 
                CA:TRUE
            X509v3 Key Usage: 
                Certificate Sign, CRL Sign
    Signature Algorithm: sha256WithRSAEncryption
         78:50:73:20:80:87:ae:ad:44:08:3a:09:a3:82:03:3f:ea:21:
         c9:2f:e5:14:c1:7e:19:76:e8:f3:a8:a8:51:26:86:00:f0:a9:
         c4:e9:9b:12:ab:3e:4d:c4:1b:b6:87:39:69:77:cd:7b:d8:57:
         b9:7f:f4:07:32:bf:07:cb:22:c4:35:fd:1b:a6:83:d6:ab:a4:
         76:b8:1d:de:72:16:e4:21:d3:31:fa:99:bd:6b:0d:8e:1b:8c:
         5a:02:53:ad:3b:f3:c4:25:fd:c7:ca:64:28:f6:49:54:2a:d6:
         f8:85:bc:c1:a5:c1:aa:68:f5:00:a1:47:8f:c3:25:5b:e1:98:
         da:75:2f:bb:a0:c5:9b:65:d8:ca:1f:3c:87:ec:d0:82:75:11:
         57:9c:db:b0:3c:d5:80:87:4d:67:44:d9:39:af:f1:88:de:be:
         45:68:56:bb:97:d3:20:1b:5a:f5:fa:f1:bf:c0:51:f6:b9:a3:
         9f:1b:11:ec:c9:b3:1d:b3:8e:a8:b3:0d:2c:35:77:ad:07:46:
         17:4c:83:f3:e3:7b:91:fe:e7:d9:e5:9f:c3:45:d0:14:9b:a8:
         cb:5c:38:b0:d3:45:8a:e2:30:d6:71:6a:a0:16:26:69:d5:63:
         08:fa:69:bd:86:0d:67:31:f0:2d:c0:80:7c:14:c0:63:93:ac:
         c1:8c:5a:b5
-----BEGIN CERTIFICATE-----
MIIE1DCCA7ygAwIBAgIBZDANBgkqhkiG9w0BAQsFADCBozELMAkGA1UEBhMCVVMx
EzARBgNVBAgMCldhc2hpbmd0b24xEDAOBgNVBAcMB1NlYXR0bGUxFTATBgNVBAoM
DHdvbGZTU0wgSW5jLjEUMBIGA1UECwwLRW5naW5lZXJpbmcxHzAdBgNVBAMMFmNo
YWluSS1JQ0EyLW5vX3BhdGhsZW4xHzAdBgkqhkiG9w0BCQEWEGluZm9Ad29sZnNz
bC5jb20wHhcNMjIxMjE2MjExNzUwWhcNMjUwOTExMjExNzUwWjCBozELMAkGA1UE
BhMCVVMxEzARBgNVBAgMCldhc2hpbmd0b24xEDAOBgNVBAcMB1NlYXR0bGUxFTAT
BgNVBAoMDHdvbGZTU0wgSW5jLjEUMBIGA1UECwwLRW5naW5lZXJpbmcxHzAdBgNV
BAMMFmNoYWluSS1JQ0ExLW5vX3BhdGhsZW4xHzAdBgkqhkiG9w0BCQEWEGluZm9A
d29sZnNzbC5jb20wggEiMA0GCSqGSIb3DQEBAQUAA4IBDwAwggEKAoIBAQC7ugat
E8/a+9HLZf4mWElqARSmeLIsHbq60L0nOGZ8oBsoCDxq/fiHvkmi7TjyTLCLk//S
xT/NA8UUeeh2Y3qqp1QeDie9G77oPytVQPBZI9g/6AUaC3Hw/STZ+QuZJdqvljTu
4ZHL/I+gQY+c4U9XX7bWVWlvw2TDEalpQIXf85pZte6QwCLucigu09plJzu6QsCe
c7qi8kUTesUdMKW323Vdb8wId4BnjRgqygKNjtOcKvq3jxt972J3pPq22Fo+Zpw+
E0Woz2H7/0FFFCHiY6yBTWWJ49VxIAEZduykFqbvPLzyolYrBzFnDeWXiOjby02Y
y5nm4L1iSCuxBBIHAgMBAAGjggEPMIIBCzAdBgNVHQ4EFgQUnlS2leqJB6bJ5ILo
0DRkXQjNVqAwgc4GA1UdIwSBxjCBw4AU0br7/x0pQYpqX7Lzp0EFRwkfSEKhgaek
gaQwgaExCzAJBgNVBAYTAlVTMRMwEQYDVQQIDApXYXNoaW5ndG9uMRAwDgYDVQQH
DAdTZWF0dGxlMRUwEwYDVQQKDAx3b2xmU1NMIEluYy4xFDASBgNVBAsMC0VuZ2lu
ZWVyaW5nMR0wGwYDVQQDDBRjaGFpbkktSUNBMy1wYXRobGVuMjEfMB0GCSqGSIb3
DQEJARYQaW5mb0B3b2xmc3NsLmNvbYIBZDAMBgNVHRMEBTADAQH/MAsGA1UdDwQE
AwIBBjANBgkqhkiG9w0BAQsFAAOCAQEAeFBzIICHrq1ECDoJo4IDP+ohyS/lFMF+
GXbo86ioUSaGAPCpxOmbEqs+TcQbtoc5aXfNe9hXuX/0BzK/B8sixDX9G6aD1quk
drgd3nIW5CHTMfqZvWsNjhuMWgJTrTvzxCX9x8pkKPZJVCrW+IW8waXBqmj1AKFH
j8MlW+GY2nUvu6DFm2XYyh88h+zQgnURV5zbsDzVgIdNZ0TZOa/xiN6+RWhWu5fT
IBta9frxv8BR9rmjnxsR7MmzHbOOqLMNLDV3rQdGF0yD8+N7kf7n2eWfw0XQFJuo
y1w4sNNFiuIw1nFqoBYmadVjCPppvYYNZzHwLcCAfBTAY5OswYxatQ==
-----END CERTIFICATE-----
Certificate:
    Data:
        Version: 3 (0x2)
        Serial Number: 100 (0x64)
        Signature Algorithm: sha256WithRSAEncryption
        Issuer: C = US, ST = Washington, L = Seattle, O = wolfSSL Inc., OU = Engineering, CN = chainI-ICA3-pathlen2, emailAddress = info@wolfssl.com
        Validity
            Not Before: Dec 16 21:17:50 2022 GMT
            Not After : Sep 11 21:17:50 2025 GMT
        Subject: C = US, ST = Washington, L = Seattle, O = wolfSSL Inc., OU = Engineering, CN = chainI-ICA2-no_pathlen, emailAddress = info@wolfssl.com
        Subject Public Key Info:
            Public Key Algorithm: rsaEncryption
                RSA Public-Key: (2048 bit)
                Modulus:
                    00:de:1e:08:66:12:fe:20:07:10:1b:a1:27:0d:f9:
                    22:30:81:9b:ce:62:b1:a6:6d:49:d4:ed:b8:2d:4b:
                    97:77:1e:94:51:3d:73:2b:16:e9:05:e9:4c:1b:82:
                    ad:47:9d:33:30:53:b5:9b:d2:2d:e9:7b:d6:63:f3:
                    61:20:1b:23:6e:47:09:8b:c0:d5:09:85:a6:e2:e4:
                    3a:4d:b3:f9:dd:c6:7c:9a:42:07:22:d5:7b:67:18:
                    38:c4:fc:ea:8d:09:80:a0:b0:44:33:fd:c1:aa:8b:
                    9c:98:e3:95:c3:74:71:3b:71:b8:b3:80:bf:30:63:
                    85:09:27:8b:12:b5:86:b0:0b:99:ff:97:42:52:a0:
                    ac:b2:38:38:8d:13:96:d9:d6:fa:8f:c4:89:14:06:
                    9c:1f:0a:a3:3a:a2:f7:1f:83:d8:ae:41:44:9e:21:
                    b2:5b:b7:a2:19:e9:46:58:de:e5:a2:ab:07:7a:9a:
                    9a:60:bc:14:ed:cf:4d:42:fc:5c:28:ea:42:d1:ae:
                    cc:71:7e:52:5d:84:88:de:b6:7d:72:6e:ab:73:4b:
                    0d:ab:92:9f:11:b4:51:da:14:54:9a:0e:ec:ac:42:
                    fc:71:87:5b:54:38:09:2c:f0:5d:86:0c:34:b7:92:
                    33:5c:3e:19:b1:4d:a0:62:9b:b4:68:36:36:38:ec:
                    29:b3
                Exponent: 65537 (0x10001)
        X509v3 extensions:
            X509v3 Subject Key Identifier: 
                D1:BA:FB:FF:1D:29:41:8A:6A:5F:B2:F3:A7:41:05:47:09:1F:48:42
            X509v3 Authority Key Identifier: 
                keyid:EE:37:A6:F2:40:D0:EF:FD:22:C7:A3:B4:6C:57:47:40:B9:99:F9:8D
                DirName:/C=US/ST=Montana/L=Bozeman/O=Sawtooth/OU=Consulting/CN=www.wolfssl.com/emailAddress=info@wolfssl.com
                serial:64

            X509v3 Basic Constraints: 
                CA:TRUE
            X509v3 Key Usage: 
                Certificate Sign, CRL Sign
    Signature Algorithm: sha256WithRSAEncryption
         0b:80:62:fa:ce:ce:c0:cc:0c:ac:20:c7:15:4f:0f:64:b6:17:
         9b:e8:f1:aa:3d:db:b7:cc:18:10:63:24:86:f7:9b:40:d5:05:
         c8:9e:c3:0b:d5:1e:e3:dc:34:a7:66:2a:75:1e:bb:5d:31:ff:
         dd:79:f6:41:68:9a:5e:4d:9b:61:02:6b:c6:62:da:ca:46:3b:
         b2:ac:6a:74:bb:91:0e:a6:d2:7d:51:5e:c0:11:6e:7f:e3:da:
         58:48:58:ed:fa:70:8d:bd:c2:ef:9e:df:b1:51:4b:ee:c8:e8:
         e4:2c:e3:d3:96:0b:e9:ea:82:9d:e4:78:d6:cb:84:c0:b3:39:
         3f:dd:2f:e2:e8:9c:09:58:58:d3:f4:64:9c:35:b0:ee:bf:6e:
         f3:a2:f6:0e:31:7b:78:df:d6:d0:e6:29:1d:d1:af:fc:ee:c3:
         54:7b:9a:8c:8d:47:eb:40:01:4f:2b:08:bd:d7:17:b1:bc:ce:
         2c:de:db:1a:d4:6b:ad:c2:c2:42:86:5b:63:71:95:ec:88:f2:
         71:86:c9:b7:99:85:1f:06:dc:43:05:a2:37:17:c7:65:88:75:
         46:23:4c:ce:fa:1d:e6:29:ba:76:ba:42:ed:ea:5e:5c:7d:a2:
         2a:54:10:3a:72:ef:c0:52:2d:9f:a4:c7:2a:29:53:b7:a9:51:
         aa:51:0a:59
-----BEGIN CERTIFICATE-----
MIIExDCCA6ygAwIBAgIBZDANBgkqhkiG9w0BAQsFADCBoTELMAkGA1UEBhMCVVMx
EzARBgNVBAgMCldhc2hpbmd0b24xEDAOBgNVBAcMB1NlYXR0bGUxFTATBgNVBAoM
DHdvbGZTU0wgSW5jLjEUMBIGA1UECwwLRW5naW5lZXJpbmcxHTAbBgNVBAMMFGNo
YWluSS1JQ0EzLXBhdGhsZW4yMR8wHQYJKoZIhvcNAQkBFhBpbmZvQHdvbGZzc2wu
Y29tMB4XDTIyMTIxNjIxMTc1MFoXDTI1MDkxMTIxMTc1MFowgaMxCzAJBgNVBAYT
AlVTMRMwEQYDVQQIDApXYXNoaW5ndG9uMRAwDgYDVQQHDAdTZWF0dGxlMRUwEwYD
VQQKDAx3b2xmU1NMIEluYy4xFDASBgNVBAsMC0VuZ2luZWVyaW5nMR8wHQYDVQQD
DBZjaGFpbkktSUNBMi1ub19wYXRobGVuMR8wHQYJKoZIhvcNAQkBFhBpbmZvQHdv
bGZzc2wuY29tMIIBIjANBgkqhkiG9w0BAQEFAAOCAQ8AMIIBCgKCAQEA3h4IZhL+
IAcQG6EnDfkiMIGbzmKxpm1J1O24LUuXdx6UUT1zKxbpBelMG4KtR50zMFO1m9It
6XvWY/NhIBsjbkcJi8DVCYWm4uQ6TbP53cZ8mkIHItV7Zxg4xPzqjQmAoLBEM/3B
qoucmOOVw3RxO3G4s4C/MGOFCSeLErWGsAuZ/5dCUqCssjg4jROW2db6j8SJFAac
HwqjOqL3H4PYrkFEniGyW7eiGelGWN7loqsHepqaYLwU7c9NQvxcKOpC0a7McX5S
XYSI3rZ9cm6rc0sNq5KfEbRR2hRUmg7srEL8cYdbVDgJLPBdhgw0t5IzXD4ZsU2g
Ypu0aDY2OOwpswIDAQABo4IBATCB/jAdBgNVHQ4EFgQU0br7/x0pQYpqX7Lzp0EF
RwkfSEIwgcEGA1UdIwSBuTCBtoAU7jem8kDQ7/0ix6O0bFdHQLmZ+Y2hgZqkgZcw
gZQxCzAJBgNVBAYTAlVTMRAwDgYDVQQIDAdNb250YW5hMRAwDgYDVQQHDAdCb3pl
bWFuMREwDwYDVQQKDAhTYXd0b290aDETMBEGA1UECwwKQ29uc3VsdGluZzEYMBYG
A1UEAwwPd3d3LndvbGZzc2wuY29tMR8wHQYJKoZIhvcNAQkBFhBpbmZvQHdvbGZz
c2wuY29tggFkMAwGA1UdEwQFMAMBAf8wCwYDVR0PBAQDAgEGMA0GCSqGSIb3DQEB
CwUAA4IBAQALgGL6zs7AzAysIMcVTw9ktheb6PGqPdu3zBgQYySG95tA1QXInsML
1R7j3DSnZip1HrtdMf/defZBaJpeTZthAmvGYtrKRjuyrGp0u5EOptJ9UV7AEW5/
49pYSFjt+nCNvcLvnt+xUUvuyOjkLOPTlgvp6oKd5HjWy4TAszk/3S/i6JwJWFjT
9GScNbDuv27zovYOMXt439bQ5ikd0a/87sNUe5qMjUfrQAFPKwi91xexvM4s3tsa
1GutwsJChltjcZXsiPJxhsm3mYUfBtxDBaI3F8dliHVGI0zO+h3mKbp2ukLt6l5c
faIqVBA6cu/AUi2fpMcqKVO3qVGqUQpZ
-----END CERTIFICATE-----
Certificate:
    Data:
        Version: 3 (0x2)
        Serial Number: 100 (0x64)
        Signature Algorithm: sha256WithRSAEncryption
        Issuer: C = US, ST = Montana, L = Bozeman, O = Sawtooth, OU = Consulting, CN = www.wolfssl.com, emailAddress = info@wolfssl.com
        Validity
            Not Before: Dec 16 21:17:50 2022 GMT
            Not After : Sep 11 21:17:50 2025 GMT
        Subject: C = US, ST = Washington, L = Seattle, O = wolfSSL Inc., OU = Engineering, CN = chainI-ICA3-pathlen2, emailAddress = info@wolfssl.com
        Subject Public Key Info:
            Public Key Algorithm: rsaEncryption
                RSA Public-Key: (2048 bit)
                Modulus:
                    00:b8:36:0c:66:a9:06:ce:ac:e0:7c:86:a1:69:9d:
                    be:28:cf:a3:81:f3:b4:dc:5f:c8:92:9d:f2:07:c0:
                    5e:04:d3:e5:74:19:fc:cf:85:7f:f7:91:8c:d5:58:
                    7c:02:4c:88:f1:4d:43:e3:07:bd:2a:4e:df:51:87:
                    29:74:c5:24:67:1d:f1:6f:8b:07:75:39:89:70:2a:
                    9c:00:e0:2e:6c:7c:74:27:18:34:fd:29:98:43:83:
                    d6:e1:51:b3:13:41:1c:bc:29:dc:8b:2f:93:08:95:
                    8b:90:22:4b:e4:98:f5:d6:70:2a:9b:8b:64:e6:49:
                    06:62:a4:23:08:60:68:97:89:a9:b2:c0:94:8e:4f:
                    39:1c:25:3b:0f:e4:c5:1d:7d:89:89:5e:c6:02:69:
                    68:fc:13:55:b5:80:6b:77:f7:59:57:0b:1c:7e:c6:
                    ed:46:c6:70:fb:34:a1:28:1c:82:b1:c2:ab:a6:c1:
                    f0:13:1b:7d:0b:bc:1a:39:23:3c:e7:1d:ee:c8:ee:
                    2f:69:5f:a1:31:3f:1a:2f:98:5d:53:d7:42:93:db:
                    49:ac:d6:7a:12:2e:9d:0d:c9:b0:ef:40:d1:a4:02:
                    5e:52:e8:fb:d4:92:07:98:b1:76:d9:16:0f:e4:8b:
                    de:dc:88:65:e0:fd:52:1d:8b:e2:e3:ed:08:37:d0:
                    11:f7
                Exponent: 65537 (0x10001)
        X509v3 extensions:
            X509v3 Subject Key Identifier: 
                EE:37:A6:F2:40:D0:EF:FD:22:C7:A3:B4:6C:57:47:40:B9:99:F9:8D
            X509v3 Authority Key Identifier: 
                keyid:27:8E:67:11:74:C3:26:1D:3F:ED:33:63:B3:A4:D8:1D:30:E5:E8:D5
                DirName:/C=US/ST=Montana/L=Bozeman/O=Sawtooth/OU=Consulting/CN=www.wolfssl.com/emailAddress=info@wolfssl.com
                serial:2C:80:CE:DB:47:9D:07:66:92:3D:68:D7:CA:AC:90:4F:CA:69:41:4B

            X509v3 Basic Constraints: 
                CA:TRUE, pathlen:2
            X509v3 Key Usage: 
                Certificate Sign, CRL Sign
    Signature Algorithm: sha256WithRSAEncryption
         2f:e9:19:e4:18:04:44:46:80:ee:e5:9f:a0:48:72:75:2e:c5:
         dd:d1:6b:53:68:36:f3:2b:7c:78:2c:7f:1e:1b:2d:24:79:76:
         75:48:c6:4e:73:99:4b:a1:3b:40:e0:c8:7b:eb:b4:80:ae:49:
         65:4c:e1:13:39:a2:97:b6:e8:19:66:9c:34:31:d9:57:3f:ea:
         d0:9b:3e:f1:6b:ec:7d:86:cf:13:d4:f4:4e:d8:da:5c:17:6b:
         0a:10:c3:8c:89:de:b5:50:f3:3d:68:9e:36:47:09:44:b9:e5:
         6c:43:8c:16:f9:da:32:e7:2a:32:df:7a:55:94:33:10:fd:82:
         bb:94:c1:76:04:c8:0e:89:0b:ac:dd:a1:ce:61:02:a7:0d:81:
         c7:33:d8:98:4a:26:97:8b:e8:0f:24:ad:3e:32:73:10:02:23:
         77:52:ca:92:bf:16:de:cf:bc:87:bf:cc:6f:2b:28:f9:77:4e:
         32:02:82:a8:2e:3a:37:6f:b7:26:2c:84:d4:66:ea:da:27:37:
         ba:26:16:40:a0:4a:f6:31:c0:de:5f:e9:b1:79:94:44:4d:29:
         cb:3d:32:45:45:a4:e9:ef:a8:18:f5:b4:66:86:45:42:e2:59:
         6c:ae:38:09:81:23:4e:19:7c:f8:b7:71:eb:a8:33:28:7c:88:
         2c:0e:5e:ae
-----BEGIN CERTIFICATE-----
MIIEzDCCA7SgAwIBAgIBZDANBgkqhkiG9w0BAQsFADCBlDELMAkGA1UEBhMCVVMx
EDAOBgNVBAgMB01vbnRhbmExEDAOBgNVBAcMB0JvemVtYW4xETAPBgNVBAoMCFNh
d3Rvb3RoMRMwEQYDVQQLDApDb25zdWx0aW5nMRgwFgYDVQQDDA93d3cud29sZnNz
bC5jb20xHzAdBgkqhkiG9w0BCQEWEGluZm9Ad29sZnNzbC5jb20wHhcNMjIxMjE2
MjExNzUwWhcNMjUwOTExMjExNzUwWjCBoTELMAkGA1UEBhMCVVMxEzARBgNVBAgM
Cldhc2hpbmd0b24xEDAOBgNVBAcMB1NlYXR0bGUxFTATBgNVBAoMDHdvbGZTU0wg
SW5jLjEUMBIGA1UECwwLRW5naW5lZXJpbmcxHTAbBgNVBAMMFGNoYWluSS1JQ0Ez
LXBhdGhsZW4yMR8wHQYJKoZIhvcNAQkBFhBpbmZvQHdvbGZzc2wuY29tMIIBIjAN
BgkqhkiG9w0BAQEFAAOCAQ8AMIIBCgKCAQEAuDYMZqkGzqzgfIahaZ2+KM+jgfO0
3F/Ikp3yB8BeBNPldBn8z4V/95GM1Vh8AkyI8U1D4we9Kk7fUYcpdMUkZx3xb4sH
dTmJcCqcAOAubHx0Jxg0/SmYQ4PW4VGzE0EcvCnciy+TCJWLkCJL5Jj11nAqm4tk
5kkGYqQjCGBol4mpssCUjk85HCU7D+TFHX2JiV7GAmlo/BNVtYBrd/dZVwscfsbt
RsZw+zShKByCscKrpsHwExt9C7waOSM85x3uyO4vaV+hMT8aL5hdU9dCk9tJrNZ6
Ei6dDcmw70DRpAJeUuj71JIHmLF22RYP5Ive3Ihl4P1SHYvi4+0IN9AR9wIDAQAB
o4IBGDCCARQwHQYDVR0OBBYEFO43pvJA0O/9IsejtGxXR0C5mfmNMIHUBgNVHSME
gcwwgcmAFCeOZxF0wyYdP+0zY7Ok2B0w5ejVoYGapIGXMIGUMQswCQYDVQQGEwJV
UzEQMA4GA1UECAwHTW9udGFuYTEQMA4GA1UEBwwHQm96ZW1hbjERMA8GA1UECgwI
U2F3dG9vdGgxEzARBgNVBAsMCkNvbnN1bHRpbmcxGDAWBgNVBAMMD3d3dy53b2xm
c3NsLmNvbTEfMB0GCSqGSIb3DQEJARYQaW5mb0B3b2xmc3NsLmNvbYIULIDO20ed
B2aSPWjXyqyQT8ppQUswDwYDVR0TBAgwBgEB/wIBAjALBgNVHQ8EBAMCAQYwDQYJ
KoZIhvcNAQELBQADggEBAC/pGeQYBERGgO7ln6BIcnUuxd3Ra1NoNvMrfHgsfx4b
LSR5dnVIxk5zmUuhO0DgyHvrtICuSWVM4RM5ope26BlmnDQx2Vc/6tCbPvFr7H2G
zxPU9E7Y2lwXawoQw4yJ3rVQ8z1onjZHCUS55WxDjBb52jLnKjLfelWUMxD9gruU
wXYEyA6JC6zdoc5hAqcNgccz2JhKJpeL6A8krT4ycxACI3dSypK/Ft7PvIe/zG8r
KPl3TjICgqguOjdvtyYshNRm6tonN7omFkCgSvYxwN5f6bF5lERNKcs9MkVFpOnv
qBj1tGaGRULiWWyuOAmBI04ZfPi3ceuoMyh8iCwOXq4=
-----END CERTIFICATE-----
