Certificate:
    Data:
        Version: 3 (0x2)
        Serial Number: 100 (0x64)
        Signature Algorithm: sha256WithRSAEncryption
        Issuer: C = US, ST = Washington, L = Seattle, O = wolfSSL Inc., OU = Engineering, CN = chainG-ICA4-pathlen5, emailAddress = info@wolfssl.com
        Validity
            Not Before: Dec 16 21:17:50 2022 GMT
            Not After : Sep 11 21:17:50 2025 GMT
        Subject: C = US, ST = Washington, L = Seattle, O = wolfSSL Inc., OU = Engineering, CN = chainG-ICA3-pathlen99, emailAddress = info@wolfssl.com
        Subject Public Key Info:
            Public Key Algorithm: rsaEncryption
                RSA Public-Key: (2048 bit)
                Modulus:
                    00:ac:f1:39:65:f7:9c:9d:f6:f0:d2:b7:18:16:24:
                    81:32:b7:a5:29:d6:f7:4e:31:38:a7:54:d6:eb:07:
                    97:27:a1:92:e0:c1:3a:b5:93:06:17:ef:a7:74:f8:
                    9b:42:97:0c:d6:d3:d4:36:c9:61:ef:92:4c:3e:c4:
                    74:08:d6:19:2a:cd:9b:f1:6f:e8:c8:67:9f:28:54:
                    99:ce:63:1a:87:56:99:36:31:65:05:c5:d6:97:cf:
                    51:e4:2d:3d:74:14:31:d3:c3:05:fc:0e:7c:93:57:
                    cd:f7:c4:97:d7:5c:65:75:e7:35:85:81:27:eb:9a:
                    9f:d7:a2:bc:28:41:a8:ce:92:3a:10:b9:35:28:83:
                    dc:b0:27:cc:6e:20:03:60:13:23:22:b4:3c:25:58:
                    ae:a1:b2:24:d1:21:8b:b9:f0:28:84:ae:e6:00:cc:
                    cb:9b:78:8c:fa:4b:ed:73:7a:91:05:f9:fb:6e:34:
                    3b:7e:af:f9:45:9e:a0:d5:62:bb:d8:cd:95:9e:a2:
                    90:72:27:e0:3e:b9:b0:5e:0a:b2:e4:55:95:03:0c:
                    a6:66:44:65:db:0a:9f:90:5a:d3:81:c7:e2:3e:f2:
                    b0:9a:e0:05:1c:de:64:04:c2:7e:ca:7e:df:a1:f6:
                    18:e5:94:d3:74:fb:a5:1f:2d:77:cd:6e:5e:55:a3:
                    80:cb
                Exponent: 65537 (0x10001)
        X509v3 extensions:
            X509v3 Subject Key Identifier: 
                C1:CD:1F:81:13:82:24:3B:CF:64:51:7A:4C:E3:65:2E:75:1E:01:23
            X509v3 Authority Key Identifier: 
                keyid:D4:92:AE:BD:3B:1C:66:4B:17:88:18:15:F8:27:AB:38:CC:07:5A:65
                DirName:/C=US/ST=Washington/L=Seattle/O=wolfSSL Inc./OU=Engineering/CN=chainG-ICA5-pathlen20/emailAddress=info@wolfssl.com
                serial:64

            X509v3 Basic Constraints: 
                CA:TRUE, pathlen:99
            X509v3 Key Usage: 
                Certificate Sign, CRL Sign
    Signature Algorithm: sha256WithRSAEncryption
         7b:72:02:a6:a9:ab:c5:08:f6:39:85:63:df:3a:b6:25:6f:94:
         72:97:c9:64:e5:a8:c8:e9:e1:09:cd:ae:d2:95:7c:de:fb:8d:
         64:b4:51:a4:86:af:a9:5d:50:37:e8:41:87:3a:8e:0c:77:6b:
         35:0f:db:78:0e:92:bf:f9:ca:82:d5:d0:e9:27:71:6b:ac:02:
         34:86:e2:c2:0b:b2:42:06:91:d3:f6:02:55:23:71:33:57:a9:
         58:db:0d:1d:fe:d3:9b:ca:c4:c9:b8:6e:6f:32:cb:12:b8:9f:
         6d:44:2b:fd:22:cf:8f:c0:53:f9:5a:b5:3a:e9:48:37:f3:0d:
         d8:77:5b:cb:1d:97:5b:a9:3b:b3:b9:b5:5e:c2:c0:d6:8d:66:
         f0:19:e9:4a:ca:e3:f0:93:f3:82:93:e7:7d:7f:21:51:4e:ef:
         ce:82:d7:52:91:dd:5f:74:ff:84:fe:0a:d9:c3:3d:9a:62:da:
         f4:c9:5b:fc:f8:60:db:d3:69:08:7c:09:fd:04:10:7b:48:b8:
         9b:ed:eb:58:f1:1f:aa:87:a9:bf:60:f8:7a:df:96:b3:77:4b:
         4d:db:b6:6f:34:b3:8d:4d:e3:a4:cd:01:b4:15:0f:8c:12:06:
         96:e7:36:46:ac:7f:1f:ca:af:e4:2d:f8:90:ab:ce:6f:b1:b4:
         9e:2f:5a:2a
-----BEGIN CERTIFICATE-----
MIIE1TCCA72gAwIBAgIBZDANBgkqhkiG9w0BAQsFADCBoTELMAkGA1UEBhMCVVMx
EzARBgNVBAgMCldhc2hpbmd0b24xEDAOBgNVBAcMB1NlYXR0bGUxFTATBgNVBAoM
DHdvbGZTU0wgSW5jLjEUMBIGA1UECwwLRW5naW5lZXJpbmcxHTAbBgNVBAMMFGNo
YWluRy1JQ0E0LXBhdGhsZW41MR8wHQYJKoZIhvcNAQkBFhBpbmZvQHdvbGZzc2wu
Y29tMB4XDTIyMTIxNjIxMTc1MFoXDTI1MDkxMTIxMTc1MFowgaIxCzAJBgNVBAYT
AlVTMRMwEQYDVQQIDApXYXNoaW5ndG9uMRAwDgYDVQQHDAdTZWF0dGxlMRUwEwYD
VQQKDAx3b2xmU1NMIEluYy4xFDASBgNVBAsMC0VuZ2luZWVyaW5nMR4wHAYDVQQD
DBVjaGFpbkctSUNBMy1wYXRobGVuOTkxHzAdBgkqhkiG9w0BCQEWEGluZm9Ad29s
ZnNzbC5jb20wggEiMA0GCSqGSIb3DQEBAQUAA4IBDwAwggEKAoIBAQCs8Tll95yd
9vDStxgWJIEyt6Up1vdOMTinVNbrB5cnoZLgwTq1kwYX76d0+JtClwzW09Q2yWHv
kkw+xHQI1hkqzZvxb+jIZ58oVJnOYxqHVpk2MWUFxdaXz1HkLT10FDHTwwX8DnyT
V833xJfXXGV15zWFgSfrmp/XorwoQajOkjoQuTUog9ywJ8xuIANgEyMitDwlWK6h
siTRIYu58CiEruYAzMubeIz6S+1zepEF+ftuNDt+r/lFnqDVYrvYzZWeopByJ+A+
ubBeCrLkVZUDDKZmRGXbCp+QWtOBx+I+8rCa4AUc3mQEwn7Kft+h9hjllNN0+6Uf
LXfNbl5Vo4DLAgMBAAGjggETMIIBDzAdBgNVHQ4EFgQUwc0fgROCJDvPZFF6TONl
LnUeASMwgc8GA1UdIwSBxzCBxIAU1JKuvTscZksXiBgV+CerOMwHWmWhgaikgaUw
gaIxCzAJBgNVBAYTAlVTMRMwEQYDVQQIDApXYXNoaW5ndG9uMRAwDgYDVQQHDAdT
ZWF0dGxlMRUwEwYDVQQKDAx3b2xmU1NMIEluYy4xFDASBgNVBAsMC0VuZ2luZWVy
aW5nMR4wHAYDVQQDDBVjaGFpbkctSUNBNS1wYXRobGVuMjAxHzAdBgkqhkiG9w0B
CQEWEGluZm9Ad29sZnNzbC5jb22CAWQwDwYDVR0TBAgwBgEB/wIBYzALBgNVHQ8E
BAMCAQYwDQYJKoZIhvcNAQELBQADggEBAHtyAqapq8UI9jmFY986tiVvlHKXyWTl
qMjp4QnNrtKVfN77jWS0UaSGr6ldUDfoQYc6jgx3azUP23gOkr/5yoLV0OkncWus
AjSG4sILskIGkdP2AlUjcTNXqVjbDR3+05vKxMm4bm8yyxK4n21EK/0iz4/AU/la
tTrpSDfzDdh3W8sdl1upO7O5tV7CwNaNZvAZ6UrK4/CT84KT531/IVFO786C11KR
3V90/4T+CtnDPZpi2vTJW/z4YNvTaQh8Cf0EEHtIuJvt61jxH6qHqb9g+HrflrN3
S03btm80s41N46TNAbQVD4wSBpbnNkasfx/Kr+Qt+JCrzm+xtJ4vWio=
-----END CERTIFICATE-----
