Certificate:
    Data:
        Version: 3 (0x2)
        Serial Number: 100 (0x64)
        Signature Algorithm: sha256WithRSAEncryption
        Issuer: C = US, ST = Montana, L = Bozeman, O = Sawtooth, OU = Consulting, CN = www.wolfssl.com, emailAddress = info@wolfssl.com
        Validity
            Not Before: Dec 16 21:17:50 2022 GMT
            Not After : Sep 11 21:17:50 2025 GMT
        Subject: C = US, ST = Washington, L = Seattle, O = wolfSSL Inc., OU = Engineering, CN = chainF-ICA2-pathlen0, emailAddress = info@wolfssl.com
        Subject Public Key Info:
            Public Key Algorithm: rsaEncryption
                RSA Public-Key: (2048 bit)
                Modulus:
                    00:da:3a:22:65:f8:6d:1c:b7:1c:87:dd:27:f4:d7:
                    75:aa:7c:1c:37:31:b4:d6:a5:34:4b:36:40:ea:55:
                    08:72:a0:ff:58:e2:5d:26:11:f5:b8:6e:de:d7:c3:
                    bb:26:51:c8:d0:36:14:00:76:42:4d:03:73:ef:88:
                    b9:37:f4:e8:9d:61:45:96:e1:8e:6c:78:58:e1:f6:
                    cf:46:8a:d6:a5:79:4d:47:88:ca:6c:69:4e:28:d4:
                    8d:84:a8:e1:6c:1d:d3:36:7e:23:e3:64:d5:0a:a3:
                    fc:36:89:90:0a:ff:7e:8b:fa:2e:66:fb:c7:33:44:
                    92:df:0f:43:b2:eb:24:7e:2b:ae:b0:43:a9:ad:53:
                    82:f8:de:17:19:26:5f:ca:8c:ac:0c:1f:24:bd:15:
                    ed:4f:5d:82:ea:10:eb:05:70:4f:03:60:d9:23:6d:
                    21:07:4d:12:9c:f3:64:ee:76:fb:9d:f9:c3:d8:1a:
                    3b:6e:a9:82:7b:2d:2e:b0:74:b7:13:d6:65:8a:06:
                    f2:25:74:c2:26:e9:71:66:54:61:fe:2a:34:27:07:
                    c9:8d:ef:a0:a2:86:93:41:47:73:08:01:07:cc:4d:
                    ec:fe:80:88:93:fb:ae:b4:91:16:fa:83:96:84:66:
                    53:cd:f3:52:da:d4:25:e1:09:15:20:e2:10:ea:dd:
                    39:ef
                Exponent: 65537 (0x10001)
        X509v3 extensions:
            X509v3 Subject Key Identifier: 
                4A:53:4A:B7:30:78:35:91:B4:CB:DD:C8:22:74:89:AF:80:0F:7F:68
            X509v3 Authority Key Identifier: 
                keyid:27:8E:67:11:74:C3:26:1D:3F:ED:33:63:B3:A4:D8:1D:30:E5:E8:D5
                DirName:/C=US/ST=Montana/L=Bozeman/O=Sawtooth/OU=Consulting/CN=www.wolfssl.com/emailAddress=info@wolfssl.com
                serial:2C:80:CE:DB:47:9D:07:66:92:3D:68:D7:CA:AC:90:4F:CA:69:41:4B

            X509v3 Basic Constraints: 
                CA:TRUE, pathlen:0
            X509v3 Key Usage: 
                Certificate Sign, CRL Sign
    Signature Algorithm: sha256WithRSAEncryption
         0d:51:ba:f9:87:88:e3:72:cd:79:15:4e:21:bb:c7:cd:6a:fd:
         f3:1c:be:00:22:69:72:27:15:2a:43:ee:7b:3e:db:80:6b:61:
         de:65:74:30:07:73:fd:82:ea:b8:b8:d1:66:08:ed:c6:87:0f:
         46:14:a9:57:dc:26:7b:cb:da:9b:bb:a2:0d:30:d8:94:ca:b8:
         ae:9d:2b:e6:14:dc:63:9f:fb:6c:be:69:d9:2e:84:a0:05:1c:
         b8:55:60:25:34:fb:ac:1e:3b:f5:55:14:8f:dc:65:79:51:b6:
         8f:61:08:6c:90:bf:39:a2:51:b2:43:27:db:8b:4e:9a:7b:a1:
         31:16:70:32:b9:c5:02:fe:8a:de:4c:76:5b:f9:50:0a:05:e2:
         02:b6:dd:3a:2c:6d:d3:f9:81:1b:0e:7d:e4:41:6a:b3:81:80:
         9c:f0:1e:f0:e3:d9:30:11:c8:23:79:b0:d7:c1:05:be:36:90:
         08:78:c9:08:cd:63:b0:ec:df:4b:81:50:ab:42:c8:ee:86:d6:
         be:5b:ec:30:a6:60:d1:8d:0a:a5:d0:23:54:e6:c4:05:59:0e:
         74:2f:1e:d5:3c:8f:da:8f:d2:00:20:12:b5:cf:f9:d9:11:18:
         64:5d:6a:6e:37:48:58:cd:d7:48:f9:5d:6f:bb:33:d9:6f:fd:
         10:1a:18:31
-----BEGIN CERTIFICATE-----
MIIEzDCCA7SgAwIBAgIBZDANBgkqhkiG9w0BAQsFADCBlDELMAkGA1UEBhMCVVMx
EDAOBgNVBAgMB01vbnRhbmExEDAOBgNVBAcMB0JvemVtYW4xETAPBgNVBAoMCFNh
d3Rvb3RoMRMwEQYDVQQLDApDb25zdWx0aW5nMRgwFgYDVQQDDA93d3cud29sZnNz
bC5jb20xHzAdBgkqhkiG9w0BCQEWEGluZm9Ad29sZnNzbC5jb20wHhcNMjIxMjE2
MjExNzUwWhcNMjUwOTExMjExNzUwWjCBoTELMAkGA1UEBhMCVVMxEzARBgNVBAgM
Cldhc2hpbmd0b24xEDAOBgNVBAcMB1NlYXR0bGUxFTATBgNVBAoMDHdvbGZTU0wg
SW5jLjEUMBIGA1UECwwLRW5naW5lZXJpbmcxHTAbBgNVBAMMFGNoYWluRi1JQ0Ey
LXBhdGhsZW4wMR8wHQYJKoZIhvcNAQkBFhBpbmZvQHdvbGZzc2wuY29tMIIBIjAN
BgkqhkiG9w0BAQEFAAOCAQ8AMIIBCgKCAQEA2joiZfhtHLcch90n9Nd1qnwcNzG0
1qU0SzZA6lUIcqD/WOJdJhH1uG7e18O7JlHI0DYUAHZCTQNz74i5N/TonWFFluGO
bHhY4fbPRorWpXlNR4jKbGlOKNSNhKjhbB3TNn4j42TVCqP8NomQCv9+i/ouZvvH
M0SS3w9DsuskfiuusEOprVOC+N4XGSZfyoysDB8kvRXtT12C6hDrBXBPA2DZI20h
B00SnPNk7nb7nfnD2Bo7bqmCey0usHS3E9ZligbyJXTCJulxZlRh/io0JwfJje+g
ooaTQUdzCAEHzE3s/oCIk/uutJEW+oOWhGZTzfNS2tQl4QkVIOIQ6t057wIDAQAB
o4IBGDCCARQwHQYDVR0OBBYEFEpTSrcweDWRtMvdyCJ0ia+AD39oMIHUBgNVHSME
gcwwgcmAFCeOZxF0wyYdP+0zY7Ok2B0w5ejVoYGapIGXMIGUMQswCQYDVQQGEwJV
UzEQMA4GA1UECAwHTW9udGFuYTEQMA4GA1UEBwwHQm96ZW1hbjERMA8GA1UECgwI
U2F3dG9vdGgxEzARBgNVBAsMCkNvbnN1bHRpbmcxGDAWBgNVBAMMD3d3dy53b2xm
c3NsLmNvbTEfMB0GCSqGSIb3DQEJARYQaW5mb0B3b2xmc3NsLmNvbYIULIDO20ed
B2aSPWjXyqyQT8ppQUswDwYDVR0TBAgwBgEB/wIBADALBgNVHQ8EBAMCAQYwDQYJ
KoZIhvcNAQELBQADggEBAA1RuvmHiONyzXkVTiG7x81q/fMcvgAiaXInFSpD7ns+
24BrYd5ldDAHc/2C6ri40WYI7caHD0YUqVfcJnvL2pu7og0w2JTKuK6dK+YU3GOf
+2y+adkuhKAFHLhVYCU0+6weO/VVFI/cZXlRto9hCGyQvzmiUbJDJ9uLTpp7oTEW
cDK5xQL+it5Mdlv5UAoF4gK23TosbdP5gRsOfeRBarOBgJzwHvDj2TARyCN5sNfB
Bb42kAh4yQjNY7Ds30uBUKtCyO6G1r5b7DCmYNGNCqXQI1TmxAVZDnQvHtU8j9qP
0gAgErXP+dkRGGRdam43SFjN10j5XW+7M9lv/RAaGDE=
-----END CERTIFICATE-----
