Certificate:
    Data:
        Version: 3 (0x2)
        Serial Number: 101 (0x65)
        Signature Algorithm: sha256WithRSAEncryption
        Issuer: C = US, ST = Washington, L = Seattle, O = wolfSSL Inc., OU = Engineering, CN = chainH-ICA1-pathlen0, emailAddress = info@wolfssl.com
        Validity
            Not Before: Dec 16 21:17:50 2022 GMT
            Not After : Sep 11 21:17:50 2025 GMT
        Subject: C = US, ST = Washington, L = Seattle, O = wolfSSL Inc., OU = Engineering, CN = chainH-entity, emailAddress = info@wolfssl.com
        Subject Public Key Info:
            Public Key Algorithm: rsaEncryption
                RSA Public-Key: (2048 bit)
                Modulus:
                    00:ba:ed:ab:c0:0d:92:6c:10:e4:50:9f:7c:98:cc:
                    87:fd:28:34:77:c0:58:28:52:2c:28:97:80:ec:78:
                    02:4f:f4:ca:60:f8:1d:e7:6a:04:52:2e:75:85:42:
                    74:76:00:e4:70:84:b8:51:8e:29:2e:7f:b6:ad:df:
                    6d:09:b4:4f:11:54:1e:88:16:e2:0e:af:30:f0:3d:
                    a7:da:9f:4e:0d:94:5b:05:51:9c:cc:05:65:8d:6b:
                    1e:3c:79:5b:26:7e:cb:ae:e9:9a:71:69:92:41:9b:
                    1a:cd:b4:53:0b:fb:2e:40:c4:e3:b1:5e:b8:8b:f8:
                    cf:0a:ec:5f:07:10:18:54:f8:8a:7d:35:97:7a:7a:
                    98:ea:93:2d:1b:e6:44:16:3f:cc:a7:4c:b9:cf:b5:
                    0b:09:47:b3:b8:8e:02:1a:56:69:37:b7:49:a4:59:
                    90:a3:20:88:f3:87:77:e8:39:0d:39:36:a5:56:b3:
                    ec:4b:f3:5e:8b:c2:cd:47:0c:d9:56:ce:32:f7:71:
                    33:db:7f:7d:c6:1e:7e:71:c1:01:06:98:9e:52:98:
                    9d:d7:9d:4a:32:94:3c:5a:42:66:00:ca:e2:a3:35:
                    db:b7:f3:27:0b:9c:fa:1b:99:4b:51:fa:6c:25:90:
                    f5:76:8c:d9:0d:80:8c:ac:61:eb:4d:92:12:6d:5f:
                    12:e5
                Exponent: 65537 (0x10001)
        X509v3 extensions:
            X509v3 Subject Key Identifier: 
                ED:62:FB:8F:91:CB:DE:B0:C8:89:CE:BA:B5:80:A8:47:F1:72:16:05
            X509v3 Authority Key Identifier: 
                keyid:48:80:87:28:EF:E6:28:0F:03:9B:DF:33:48:10:A0:E5:20:B3:69:50
                DirName:/C=US/ST=Washington/L=Seattle/O=wolfSSL Inc./OU=Engineering/CN=chainH-ICA2-pathlen2/emailAddress=info@wolfssl.com
                serial:64

            X509v3 Basic Constraints: 
                CA:FALSE
    Signature Algorithm: sha256WithRSAEncryption
         8c:b5:c8:f8:28:8c:cc:27:7c:21:36:75:2a:bc:af:5e:d6:7a:
         d1:22:d5:1b:7a:a2:1a:5e:30:b5:38:64:2e:71:09:1c:db:a0:
         99:44:5c:e8:c2:b5:06:ac:c1:ec:d8:30:74:65:62:f5:db:c2:
         03:fa:54:e0:0f:c9:8a:d8:02:11:d3:58:a6:bc:7f:54:07:3b:
         f7:6d:7d:db:18:d9:2a:01:57:38:fc:d4:18:86:84:38:8b:d0:
         5c:8c:d7:47:2e:76:d3:92:c3:75:61:93:03:56:93:74:60:ff:
         16:84:4a:70:f0:cc:0c:ed:d3:53:f9:fc:f7:b8:34:6a:5c:25:
         78:ab:27:3f:ad:04:8f:c6:01:29:a8:b7:61:09:b0:7b:51:9b:
         ca:6c:23:5b:0c:18:f3:63:ea:96:56:b9:1a:0f:ec:80:cd:29:
         f6:fb:d1:df:65:34:e8:1f:62:c8:95:fa:be:27:cb:40:e7:26:
         7f:18:7e:cc:5d:7d:19:9e:12:90:0b:d7:32:12:0d:cb:97:8e:
         e8:3e:c3:1b:f6:a3:3c:e8:d0:35:63:de:66:89:5a:a3:ef:64:
         3a:8f:e3:5f:d2:e6:64:82:7b:2f:2e:26:78:13:34:39:ed:9c:
         f8:ad:f5:d6:75:d1:60:48:aa:19:41:98:1f:4e:ce:01:76:9d:
         af:0f:6b:8d
-----BEGIN CERTIFICATE-----
MIIEtzCCA5+gAwIBAgIBZTANBgkqhkiG9w0BAQsFADCBoTELMAkGA1UEBhMCVVMx
EzARBgNVBAgMCldhc2hpbmd0b24xEDAOBgNVBAcMB1NlYXR0bGUxFTATBgNVBAoM
DHdvbGZTU0wgSW5jLjEUMBIGA1UECwwLRW5naW5lZXJpbmcxHTAbBgNVBAMMFGNo
YWluSC1JQ0ExLXBhdGhsZW4wMR8wHQYJKoZIhvcNAQkBFhBpbmZvQHdvbGZzc2wu
Y29tMB4XDTIyMTIxNjIxMTc1MFoXDTI1MDkxMTIxMTc1MFowgZoxCzAJBgNVBAYT
AlVTMRMwEQYDVQQIDApXYXNoaW5ndG9uMRAwDgYDVQQHDAdTZWF0dGxlMRUwEwYD
VQQKDAx3b2xmU1NMIEluYy4xFDASBgNVBAsMC0VuZ2luZWVyaW5nMRYwFAYDVQQD
DA1jaGFpbkgtZW50aXR5MR8wHQYJKoZIhvcNAQkBFhBpbmZvQHdvbGZzc2wuY29t
MIIBIjANBgkqhkiG9w0BAQEFAAOCAQ8AMIIBCgKCAQEAuu2rwA2SbBDkUJ98mMyH
/Sg0d8BYKFIsKJeA7HgCT/TKYPgd52oEUi51hUJ0dgDkcIS4UY4pLn+2rd9tCbRP
EVQeiBbiDq8w8D2n2p9ODZRbBVGczAVljWsePHlbJn7LrumacWmSQZsazbRTC/su
QMTjsV64i/jPCuxfBxAYVPiKfTWXenqY6pMtG+ZEFj/Mp0y5z7ULCUezuI4CGlZp
N7dJpFmQoyCI84d36DkNOTalVrPsS/Nei8LNRwzZVs4y93Ez2399xh5+ccEBBpie
Upid151KMpQ8WkJmAMriozXbt/MnC5z6G5lLUfpsJZD1dozZDYCMrGHrTZISbV8S
5QIDAQABo4H+MIH7MB0GA1UdDgQWBBTtYvuPkcvesMiJzrq1gKhH8XIWBTCBzgYD
VR0jBIHGMIHDgBRIgIco7+YoDwOb3zNIEKDlILNpUKGBp6SBpDCBoTELMAkGA1UE
BhMCVVMxEzARBgNVBAgMCldhc2hpbmd0b24xEDAOBgNVBAcMB1NlYXR0bGUxFTAT
BgNVBAoMDHdvbGZTU0wgSW5jLjEUMBIGA1UECwwLRW5naW5lZXJpbmcxHTAbBgNV
BAMMFGNoYWluSC1JQ0EyLXBhdGhsZW4yMR8wHQYJKoZIhvcNAQkBFhBpbmZvQHdv
bGZzc2wuY29tggFkMAkGA1UdEwQCMAAwDQYJKoZIhvcNAQELBQADggEBAIy1yPgo
jMwnfCE2dSq8r17WetEi1Rt6ohpeMLU4ZC5xCRzboJlEXOjCtQaswezYMHRlYvXb
wgP6VOAPyYrYAhHTWKa8f1QHO/dtfdsY2SoBVzj81BiGhDiL0FyM10cudtOSw3Vh
kwNWk3Rg/xaESnDwzAzt01P5/Pe4NGpcJXirJz+tBI/GASmot2EJsHtRm8psI1sM
GPNj6pZWuRoP7IDNKfb70d9lNOgfYsiV+r4ny0DnJn8YfsxdfRmeEpAL1zISDcuX
jug+wxv2ozzo0DVj3maJWqPvZDqP41/S5mSCey8uJngTNDntnPit9dZ10WBIqhlB
mB9OzgF2na8Pa40=
-----END CERTIFICATE-----
