Certificate:
    Data:
        Version: 3 (0x2)
        Serial Number: 100 (0x64)
        Signature Algorithm: sha256WithRSAEncryption
        Issuer: C = US, ST = Washington, L = Seattle, O = wolfSSL Inc., OU = Engineering, CN = chainH-ICA4-pathlen2, emailAddress = info@wolfssl.com
        Validity
            Not Before: Dec 16 21:17:50 2022 GMT
            Not After : Sep 11 21:17:50 2025 GMT
        Subject: C = US, ST = Washington, L = Seattle, O = wolfSSL Inc., OU = Engineering, CN = chainH-ICA3-pathlen2, emailAddress = info@wolfssl.com
        Subject Public Key Info:
            Public Key Algorithm: rsaEncryption
                RSA Public-Key: (2048 bit)
                Modulus:
                    00:b7:b3:1a:1b:4a:80:1b:a2:e5:95:14:bc:55:e4:
                    77:dc:f3:7b:8a:9f:34:7c:93:db:c9:c9:d0:8b:b8:
                    87:45:65:d3:a1:7d:46:f3:70:92:a9:d7:66:ef:3b:
                    b4:a8:16:b0:f0:be:67:70:aa:45:7b:09:bc:ca:77:
                    db:57:a4:24:54:0b:1a:da:5f:ad:64:a3:f1:49:83:
                    bc:9f:5d:c4:b4:da:43:04:aa:cc:c3:b0:4d:c2:f1:
                    73:c9:38:0d:4c:c9:ab:db:df:09:b3:5c:15:0b:66:
                    79:ad:6c:63:d1:38:cc:a6:2d:46:83:ce:19:1d:c1:
                    0b:6e:fc:38:b7:d8:8c:a2:6f:29:87:9b:21:cd:b0:
                    6b:e0:f8:1f:03:db:82:1d:8d:98:63:16:b6:74:47:
                    43:20:f2:a1:4b:16:8b:67:fd:bc:73:78:9b:f9:dd:
                    ba:49:d9:60:a9:b7:85:66:7f:a4:2a:05:c8:2d:93:
                    a0:9b:aa:bf:a6:31:e1:f2:c8:d3:1b:7b:79:d1:b6:
                    6c:ae:3b:6b:00:2e:6e:ae:10:dc:6c:88:dc:1b:93:
                    e8:56:99:8d:46:7e:49:3a:87:a0:b3:00:cc:2e:3b:
                    83:e1:6b:39:16:71:47:47:30:6d:6b:6c:9c:9f:e6:
                    ce:ec:20:2f:8f:c1:5d:ef:d3:84:32:6c:a5:cc:78:
                    fe:a1
                Exponent: 65537 (0x10001)
        X509v3 extensions:
            X509v3 Subject Key Identifier: 
                56:54:36:BE:23:2F:20:89:6D:A6:BA:9A:45:A4:88:0E:40:35:FD:F5
            X509v3 Authority Key Identifier: 
                keyid:18:6D:44:83:EE:1F:EC:B4:22:F0:9C:EB:54:1E:4A:15:58:01:AA:13
                DirName:/C=US/ST=Montana/L=Bozeman/O=Sawtooth/OU=Consulting/CN=www.wolfssl.com/emailAddress=info@wolfssl.com
                serial:64

            X509v3 Basic Constraints: 
                CA:TRUE, pathlen:2
            X509v3 Key Usage: 
                Certificate Sign, CRL Sign
    Signature Algorithm: sha256WithRSAEncryption
         7a:d0:31:91:2e:bb:e2:77:ba:ae:e1:66:18:43:51:d5:28:ad:
         63:41:4d:35:9a:98:ea:c0:87:5d:71:f0:1f:d2:3f:56:d0:1f:
         82:04:d2:c1:72:ec:3f:93:6d:b4:36:5a:db:0c:9f:70:d9:65:
         81:6e:12:31:f9:24:e1:c7:2e:32:5a:e4:96:fd:53:ec:6b:1f:
         6d:2c:dc:04:1c:1a:dc:8a:5d:04:1b:16:fc:15:8a:7c:8c:e9:
         c1:dd:c6:dc:71:8d:72:6f:b1:c9:93:f7:ca:a3:14:54:93:44:
         92:58:41:a4:8a:fc:55:fd:63:42:1d:0f:5f:72:aa:38:b6:02:
         cb:e1:b1:e3:57:e7:87:a1:05:c8:9c:9b:49:73:0e:58:9d:30:
         b5:fb:75:0c:8c:44:86:e0:c2:bc:90:60:ce:2c:ea:0a:39:fc:
         7c:e4:d1:44:55:34:e8:ce:04:a4:19:ad:00:2c:05:f1:65:24:
         6b:c7:d1:76:37:dd:33:91:86:3c:ad:b7:bc:53:4d:4a:50:ff:
         d0:9c:89:4b:19:aa:40:d0:45:80:e8:d4:96:82:5b:54:68:ac:
         d5:6c:77:46:b2:8d:82:ff:b5:81:71:90:84:6e:94:4b:e2:02:
         9f:c5:24:97:8e:0a:2e:71:57:8f:03:19:cb:a2:39:c0:1d:14:
         e0:52:04:af
-----BEGIN CERTIFICATE-----
MIIExjCCA66gAwIBAgIBZDANBgkqhkiG9w0BAQsFADCBoTELMAkGA1UEBhMCVVMx
EzARBgNVBAgMCldhc2hpbmd0b24xEDAOBgNVBAcMB1NlYXR0bGUxFTATBgNVBAoM
DHdvbGZTU0wgSW5jLjEUMBIGA1UECwwLRW5naW5lZXJpbmcxHTAbBgNVBAMMFGNo
YWluSC1JQ0E0LXBhdGhsZW4yMR8wHQYJKoZIhvcNAQkBFhBpbmZvQHdvbGZzc2wu
Y29tMB4XDTIyMTIxNjIxMTc1MFoXDTI1MDkxMTIxMTc1MFowgaExCzAJBgNVBAYT
AlVTMRMwEQYDVQQIDApXYXNoaW5ndG9uMRAwDgYDVQQHDAdTZWF0dGxlMRUwEwYD
VQQKDAx3b2xmU1NMIEluYy4xFDASBgNVBAsMC0VuZ2luZWVyaW5nMR0wGwYDVQQD
DBRjaGFpbkgtSUNBMy1wYXRobGVuMjEfMB0GCSqGSIb3DQEJARYQaW5mb0B3b2xm
c3NsLmNvbTCCASIwDQYJKoZIhvcNAQEBBQADggEPADCCAQoCggEBALezGhtKgBui
5ZUUvFXkd9zze4qfNHyT28nJ0Iu4h0Vl06F9RvNwkqnXZu87tKgWsPC+Z3CqRXsJ
vMp321ekJFQLGtpfrWSj8UmDvJ9dxLTaQwSqzMOwTcLxc8k4DUzJq9vfCbNcFQtm
ea1sY9E4zKYtRoPOGR3BC278OLfYjKJvKYebIc2wa+D4HwPbgh2NmGMWtnRHQyDy
oUsWi2f9vHN4m/nduknZYKm3hWZ/pCoFyC2ToJuqv6Yx4fLI0xt7edG2bK47awAu
bq4Q3GyI3BuT6FaZjUZ+STqHoLMAzC47g+FrORZxR0cwbWtsnJ/mzuwgL4/BXe/T
hDJspcx4/qECAwEAAaOCAQUwggEBMB0GA1UdDgQWBBRWVDa+Iy8giW2muppFpIgO
QDX99TCBwQYDVR0jBIG5MIG2gBQYbUSD7h/stCLwnOtUHkoVWAGqE6GBmqSBlzCB
lDELMAkGA1UEBhMCVVMxEDAOBgNVBAgMB01vbnRhbmExEDAOBgNVBAcMB0JvemVt
YW4xETAPBgNVBAoMCFNhd3Rvb3RoMRMwEQYDVQQLDApDb25zdWx0aW5nMRgwFgYD
VQQDDA93d3cud29sZnNzbC5jb20xHzAdBgkqhkiG9w0BCQEWEGluZm9Ad29sZnNz
bC5jb22CAWQwDwYDVR0TBAgwBgEB/wIBAjALBgNVHQ8EBAMCAQYwDQYJKoZIhvcN
AQELBQADggEBAHrQMZEuu+J3uq7hZhhDUdUorWNBTTWamOrAh11x8B/SP1bQH4IE
0sFy7D+TbbQ2WtsMn3DZZYFuEjH5JOHHLjJa5Jb9U+xrH20s3AQcGtyKXQQbFvwV
inyM6cHdxtxxjXJvscmT98qjFFSTRJJYQaSK/FX9Y0IdD19yqji2AsvhseNX54eh
Bcicm0lzDlidMLX7dQyMRIbgwryQYM4s6go5/Hzk0URVNOjOBKQZrQAsBfFlJGvH
0XY33TORhjytt7xTTUpQ/9CciUsZqkDQRYDo1JaCW1RorNVsd0ayjYL/tYFxkIRu
lEviAp/FJJeOCi5xV48DGcuiOcAdFOBSBK8=
-----END CERTIFICATE-----
