Certificate:
    Data:
        Version: 3 (0x2)
        Serial Number: 100 (0x64)
        Signature Algorithm: sha256WithRSAEncryption
        Issuer: C = US, ST = Washington, L = Seattle, O = wolfSSL Inc., OU = Engineering, CN = chainJ-ICA2-no_pathlen, emailAddress = info@wolfssl.com
        Validity
            Not Before: Dec 16 21:17:50 2022 GMT
            Not After : Sep 11 21:17:50 2025 GMT
        Subject: C = US, ST = Washington, L = Seattle, O = wolfSSL Inc., OU = Engineering, CN = chainJ-ICA1-no_pathlen, emailAddress = info@wolfssl.com
        Subject Public Key Info:
            Public Key Algorithm: rsaEncryption
                RSA Public-Key: (2048 bit)
                Modulus:
                    00:a7:6f:44:c2:11:cc:2c:f4:2a:a5:a8:08:53:4b:
                    0e:cd:96:23:bb:15:4a:2a:dd:f9:a7:19:2b:91:28:
                    e8:73:a3:57:b4:49:3a:37:82:8f:15:38:5a:aa:af:
                    ad:72:26:2e:84:c2:0d:de:fc:f0:be:3b:a2:11:a9:
                    12:20:d4:3d:de:62:85:85:91:08:60:db:c0:4a:bb:
                    89:b6:f4:91:1e:51:a3:b2:f7:08:99:df:48:4a:59:
                    84:d1:aa:09:36:0d:cd:68:a5:ae:41:c8:d7:1a:d8:
                    ea:49:87:20:22:27:f9:45:54:3e:c7:c8:00:44:7e:
                    34:72:aa:8d:2d:4d:6a:3e:75:89:e2:d4:17:57:f9:
                    cd:2b:d0:b7:14:6a:54:1b:61:af:9b:68:22:b1:16:
                    73:eb:05:6c:41:ea:ed:10:4e:bc:83:04:68:c8:3a:
                    e1:03:12:ad:28:5c:24:4c:19:a1:7e:d8:ef:1b:80:
                    e4:0e:49:0c:69:86:f6:1e:e7:01:fb:2a:6f:56:1b:
                    6d:0a:ad:e9:29:3f:31:bb:48:28:40:79:2b:b5:f3:
                    aa:ec:e9:09:4c:82:fc:97:28:19:a3:3a:c0:d2:5e:
                    a3:8a:98:c8:8a:b7:d2:c4:90:bc:ff:cc:47:13:90:
                    ad:00:ab:8a:ec:f7:94:35:09:60:10:35:9f:32:c5:
                    00:1b
                Exponent: 65537 (0x10001)
        X509v3 extensions:
            X509v3 Subject Key Identifier: 
                9C:7B:3A:10:B3:08:99:05:00:AF:3E:E0:A4:5D:D9:AF:82:BC:4D:C0
            X509v3 Authority Key Identifier: 
                keyid:A3:F5:71:8A:60:80:3C:93:64:17:D9:2E:B5:C0:CE:A9:C1:14:17:C4
                DirName:/C=US/ST=Washington/L=Seattle/O=wolfSSL Inc./OU=Engineering/CN=chainJ-ICA3-no_pathlen/emailAddress=info@wolfssl.com
                serial:64

            X509v3 Basic Constraints: 
                CA:TRUE
            X509v3 Key Usage: 
                Certificate Sign, CRL Sign
    Signature Algorithm: sha256WithRSAEncryption
         8a:c2:bd:e8:d2:53:df:a2:01:71:2d:bd:24:c0:ce:3a:41:bc:
         86:24:51:4a:66:06:9e:1f:1f:c7:45:e2:db:ab:60:e8:89:ba:
         97:77:fe:d0:16:80:19:af:00:d0:2c:43:c3:b9:8c:6e:ff:5c:
         08:01:4a:a1:2c:ba:ba:db:96:f8:a1:d9:e7:65:2a:ee:d9:6d:
         73:7a:19:67:ed:67:69:30:13:fe:63:67:ec:e4:8c:89:37:11:
         82:c8:d5:3e:7b:bb:26:02:a0:10:44:72:51:d6:ea:33:9e:54:
         01:1a:5b:ed:0e:be:43:8f:a0:5b:dc:26:fa:e9:7c:20:e4:9a:
         6d:5b:87:c9:95:e5:7a:5b:2d:9a:9a:ab:65:37:9f:88:79:2c:
         10:83:82:32:76:1d:4f:f9:bf:8d:fd:2f:16:a7:d7:bb:64:41:
         6a:6d:02:9d:f5:f5:31:44:c5:64:56:9a:b8:a4:dd:88:ed:79:
         3b:f4:23:d7:0f:8a:2a:f3:f4:92:47:f5:f6:0f:19:e9:7c:6a:
         fe:f0:62:c3:43:45:a2:6c:f5:2e:0b:c3:c5:8b:21:70:68:fc:
         58:63:91:1d:a4:35:eb:5b:4c:67:df:1d:4a:a3:a3:9e:16:a5:
         6b:e3:05:66:00:1e:03:aa:3f:0d:f8:2f:f7:f6:78:08:e0:b6:
         1f:20:0e:3d
-----BEGIN CERTIFICATE-----
MIIE1jCCA76gAwIBAgIBZDANBgkqhkiG9w0BAQsFADCBozELMAkGA1UEBhMCVVMx
EzARBgNVBAgMCldhc2hpbmd0b24xEDAOBgNVBAcMB1NlYXR0bGUxFTATBgNVBAoM
DHdvbGZTU0wgSW5jLjEUMBIGA1UECwwLRW5naW5lZXJpbmcxHzAdBgNVBAMMFmNo
YWluSi1JQ0EyLW5vX3BhdGhsZW4xHzAdBgkqhkiG9w0BCQEWEGluZm9Ad29sZnNz
bC5jb20wHhcNMjIxMjE2MjExNzUwWhcNMjUwOTExMjExNzUwWjCBozELMAkGA1UE
BhMCVVMxEzARBgNVBAgMCldhc2hpbmd0b24xEDAOBgNVBAcMB1NlYXR0bGUxFTAT
BgNVBAoMDHdvbGZTU0wgSW5jLjEUMBIGA1UECwwLRW5naW5lZXJpbmcxHzAdBgNV
BAMMFmNoYWluSi1JQ0ExLW5vX3BhdGhsZW4xHzAdBgkqhkiG9w0BCQEWEGluZm9A
d29sZnNzbC5jb20wggEiMA0GCSqGSIb3DQEBAQUAA4IBDwAwggEKAoIBAQCnb0TC
Ecws9CqlqAhTSw7NliO7FUoq3fmnGSuRKOhzo1e0STo3go8VOFqqr61yJi6Ewg3e
/PC+O6IRqRIg1D3eYoWFkQhg28BKu4m29JEeUaOy9wiZ30hKWYTRqgk2Dc1opa5B
yNca2OpJhyAiJ/lFVD7HyABEfjRyqo0tTWo+dYni1BdX+c0r0LcUalQbYa+baCKx
FnPrBWxB6u0QTryDBGjIOuEDEq0oXCRMGaF+2O8bgOQOSQxphvYe5wH7Km9WG20K
rekpPzG7SChAeSu186rs6QlMgvyXKBmjOsDSXqOKmMiKt9LEkLz/zEcTkK0Aq4rs
95Q1CWAQNZ8yxQAbAgMBAAGjggERMIIBDTAdBgNVHQ4EFgQUnHs6ELMImQUArz7g
pF3Zr4K8TcAwgdAGA1UdIwSByDCBxYAUo/VximCAPJNkF9kutcDOqcEUF8Shgamk
gaYwgaMxCzAJBgNVBAYTAlVTMRMwEQYDVQQIDApXYXNoaW5ndG9uMRAwDgYDVQQH
DAdTZWF0dGxlMRUwEwYDVQQKDAx3b2xmU1NMIEluYy4xFDASBgNVBAsMC0VuZ2lu
ZWVyaW5nMR8wHQYDVQQDDBZjaGFpbkotSUNBMy1ub19wYXRobGVuMR8wHQYJKoZI
hvcNAQkBFhBpbmZvQHdvbGZzc2wuY29tggFkMAwGA1UdEwQFMAMBAf8wCwYDVR0P
BAQDAgEGMA0GCSqGSIb3DQEBCwUAA4IBAQCKwr3o0lPfogFxLb0kwM46QbyGJFFK
ZgaeHx/HReLbq2DoibqXd/7QFoAZrwDQLEPDuYxu/1wIAUqhLLq625b4odnnZSru
2W1zehln7WdpMBP+Y2fs5IyJNxGCyNU+e7smAqAQRHJR1uoznlQBGlvtDr5Dj6Bb
3Cb66Xwg5JptW4fJleV6Wy2amqtlN5+IeSwQg4Iydh1P+b+N/S8Wp9e7ZEFqbQKd
9fUxRMVkVpq4pN2I7Xk79CPXD4oq8/SSR/X2DxnpfGr+8GLDQ0WibPUuC8PFiyFw
aPxYY5EdpDXrW0xn3x1Ko6OeFqVr4wVmAB4Dqj8N+C/39ngI4LYfIA49
-----END CERTIFICATE-----
