Certificate:
    Data:
        Version: 3 (0x2)
        Serial Number: 100 (0x64)
        Signature Algorithm: sha256WithRSAEncryption
        Issuer: C = US, ST = Washington, L = Seattle, O = wolfSSL Inc., OU = Engineering, CN = chainG-ICA6-pathlen10, emailAddress = info@wolfssl.com
        Validity
            Not Before: Dec 16 21:17:50 2022 GMT
            Not After : Sep 11 21:17:50 2025 GMT
        Subject: C = US, ST = Washington, L = Seattle, O = wolfSSL Inc., OU = Engineering, CN = chainG-ICA5-pathlen20, emailAddress = info@wolfssl.com
        Subject Public Key Info:
            Public Key Algorithm: rsaEncryption
                RSA Public-Key: (2048 bit)
                Modulus:
                    00:be:9d:98:a2:41:ca:64:1f:a2:34:dc:51:7d:49:
                    2b:f7:f8:7a:fc:1a:22:8d:3a:17:8e:00:9c:74:06:
                    18:0f:26:d1:e8:1d:55:4b:3e:bb:6e:98:6d:65:cb:
                    6f:be:c5:98:40:65:1d:e1:1d:af:ad:bc:7c:b0:fa:
                    b6:2a:cb:af:df:d5:52:98:e6:01:01:31:01:3f:c7:
                    16:06:44:92:55:43:6f:dd:49:be:aa:52:d2:80:ca:
                    3a:d0:72:f3:0a:7e:59:cb:2c:74:7c:5b:19:3d:75:
                    9d:3e:da:35:45:49:8b:0d:36:84:80:41:b7:ce:70:
                    fc:a8:d0:4d:0b:d4:f3:4e:73:87:db:2e:18:20:45:
                    70:f3:5a:d1:cf:4f:f8:78:ad:7c:4b:97:3c:f1:0f:
                    8a:f6:6c:8f:7a:3a:c9:79:82:2d:bf:ae:80:f8:8b:
                    1d:79:17:9b:76:34:97:b1:79:5d:79:fa:30:73:78:
                    fc:9c:ee:eb:62:20:95:f1:a8:af:1e:4a:91:cc:1e:
                    34:90:c7:89:21:41:41:90:09:10:52:dd:21:75:15:
                    11:aa:cf:d8:e4:6c:7d:96:c8:d6:cd:90:eb:fa:df:
                    86:e7:3d:36:73:18:f3:86:c5:99:0e:0e:f7:e4:09:
                    8f:8c:29:f1:ad:15:e9:82:c9:6c:87:fc:00:7b:4b:
                    2e:f1
                Exponent: 65537 (0x10001)
        X509v3 extensions:
            X509v3 Subject Key Identifier: 
                1D:51:80:B6:9A:A7:AC:DD:80:7B:4B:A2:0B:62:BE:E4:87:30:C7:CA
            X509v3 Authority Key Identifier: 
                keyid:14:07:E8:A7:3A:A2:9C:DD:4C:30:B0:4D:F0:00:C4:88:C4:39:DF:73
                DirName:/C=US/ST=Washington/L=Seattle/O=wolfSSL Inc./OU=Engineering/CN=chainG-ICA7-pathlen100/emailAddress=info@wolfssl.com
                serial:64

            X509v3 Basic Constraints: 
                CA:TRUE, pathlen:20
            X509v3 Key Usage: 
                Certificate Sign, CRL Sign
    Signature Algorithm: sha256WithRSAEncryption
         0f:b1:e3:0e:db:7f:2c:93:25:66:ef:c4:84:a6:65:86:54:58:
         ff:59:ba:07:80:0f:56:cd:ae:15:39:64:8c:3d:05:c2:dc:3d:
         e2:9e:e8:b9:ec:55:15:c8:4f:0c:e0:41:65:8a:86:ff:f4:7f:
         a4:e0:aa:ea:a6:54:0c:3d:a2:82:d9:5c:c1:82:aa:d8:48:32:
         84:ca:96:a5:21:b5:36:de:97:50:3b:9e:00:78:2a:af:30:09:
         f4:b7:6b:56:d7:38:a0:1c:b1:8b:d7:db:71:eb:46:b2:e2:c7:
         42:d2:02:6d:03:dc:9d:83:ba:aa:be:23:62:73:98:16:74:3b:
         8a:89:00:e8:b0:04:21:31:4c:0f:df:ef:3b:1e:fd:28:c5:07:
         6b:b3:87:d1:78:4a:4b:97:8f:5b:09:39:b4:09:d5:62:c0:72:
         31:0b:fa:7d:81:5f:dd:2f:3a:e1:61:d2:c0:b4:54:eb:01:e4:
         94:90:30:8d:fa:8f:94:04:b2:9f:ca:3a:b1:c1:b9:72:24:f1:
         0c:f9:09:1e:a0:5b:d9:28:a6:d4:ee:aa:bf:37:ea:ee:4d:85:
         8a:f8:b0:6c:98:7e:a4:17:0d:01:03:46:7d:82:80:2a:48:17:
         a9:d6:4b:57:38:f1:53:54:54:00:5a:83:d6:96:b6:fe:c6:dc:
         65:40:60:c9
-----BEGIN CERTIFICATE-----
MIIE1zCCA7+gAwIBAgIBZDANBgkqhkiG9w0BAQsFADCBojELMAkGA1UEBhMCVVMx
EzARBgNVBAgMCldhc2hpbmd0b24xEDAOBgNVBAcMB1NlYXR0bGUxFTATBgNVBAoM
DHdvbGZTU0wgSW5jLjEUMBIGA1UECwwLRW5naW5lZXJpbmcxHjAcBgNVBAMMFWNo
YWluRy1JQ0E2LXBhdGhsZW4xMDEfMB0GCSqGSIb3DQEJARYQaW5mb0B3b2xmc3Ns
LmNvbTAeFw0yMjEyMTYyMTE3NTBaFw0yNTA5MTEyMTE3NTBaMIGiMQswCQYDVQQG
EwJVUzETMBEGA1UECAwKV2FzaGluZ3RvbjEQMA4GA1UEBwwHU2VhdHRsZTEVMBMG
A1UECgwMd29sZlNTTCBJbmMuMRQwEgYDVQQLDAtFbmdpbmVlcmluZzEeMBwGA1UE
AwwVY2hhaW5HLUlDQTUtcGF0aGxlbjIwMR8wHQYJKoZIhvcNAQkBFhBpbmZvQHdv
bGZzc2wuY29tMIIBIjANBgkqhkiG9w0BAQEFAAOCAQ8AMIIBCgKCAQEAvp2YokHK
ZB+iNNxRfUkr9/h6/BoijToXjgCcdAYYDybR6B1VSz67bphtZctvvsWYQGUd4R2v
rbx8sPq2Ksuv39VSmOYBATEBP8cWBkSSVUNv3Um+qlLSgMo60HLzCn5Zyyx0fFsZ
PXWdPto1RUmLDTaEgEG3znD8qNBNC9TzTnOH2y4YIEVw81rRz0/4eK18S5c88Q+K
9myPejrJeYItv66A+IsdeRebdjSXsXldefowc3j8nO7rYiCV8aivHkqRzB40kMeJ
IUFBkAkQUt0hdRURqs/Y5Gx9lsjWzZDr+t+G5z02cxjzhsWZDg735AmPjCnxrRXp
gslsh/wAe0su8QIDAQABo4IBFDCCARAwHQYDVR0OBBYEFB1RgLaap6zdgHtLogti
vuSHMMfKMIHQBgNVHSMEgcgwgcWAFBQH6Kc6opzdTDCwTfAAxIjEOd9zoYGppIGm
MIGjMQswCQYDVQQGEwJVUzETMBEGA1UECAwKV2FzaGluZ3RvbjEQMA4GA1UEBwwH
U2VhdHRsZTEVMBMGA1UECgwMd29sZlNTTCBJbmMuMRQwEgYDVQQLDAtFbmdpbmVl
cmluZzEfMB0GA1UEAwwWY2hhaW5HLUlDQTctcGF0aGxlbjEwMDEfMB0GCSqGSIb3
DQEJARYQaW5mb0B3b2xmc3NsLmNvbYIBZDAPBgNVHRMECDAGAQH/AgEUMAsGA1Ud
DwQEAwIBBjANBgkqhkiG9w0BAQsFAAOCAQEAD7HjDtt/LJMlZu/EhKZlhlRY/1m6
B4APVs2uFTlkjD0Fwtw94p7ouexVFchPDOBBZYqG//R/pOCq6qZUDD2igtlcwYKq
2EgyhMqWpSG1Nt6XUDueAHgqrzAJ9LdrVtc4oByxi9fbcetGsuLHQtICbQPcnYO6
qr4jYnOYFnQ7iokA6LAEITFMD9/vOx79KMUHa7OH0XhKS5ePWwk5tAnVYsByMQv6
fYFf3S864WHSwLRU6wHklJAwjfqPlASyn8o6scG5ciTxDPkJHqBb2Sim1O6qvzfq
7k2FiviwbJh+pBcNAQNGfYKAKkgXqdZLVzjxU1RUAFqD1pa2/sbcZUBgyQ==
-----END CERTIFICATE-----
