Certificate:
    Data:
        Version: 3 (0x2)
        Serial Number: 101 (0x65)
        Signature Algorithm: sha256WithRSAEncryption
        Issuer: C = US, ST = Washington, L = Seattle, O = wolfSSL Inc., OU = Engineering, CN = chainJ-ICA1-no_pathlen, emailAddress = info@wolfssl.com
        Validity
            Not Before: Dec 16 21:17:50 2022 GMT
            Not After : Sep 11 21:17:50 2025 GMT
        Subject: C = US, ST = Washington, L = Seattle, O = wolfSSL Inc., OU = Engineering, CN = chainJ-entity, emailAddress = info@wolfssl.com
        Subject Public Key Info:
            Public Key Algorithm: rsaEncryption
                RSA Public-Key: (2048 bit)
                Modulus:
                    00:b3:fb:51:a0:ac:69:8b:35:06:bf:7a:ee:b4:a1:
                    8a:7e:ae:31:75:ad:e7:45:7b:e6:d9:bb:7c:e9:73:
                    0e:de:cf:05:74:df:37:a4:37:33:a6:6f:59:06:c8:
                    9f:19:35:c3:94:f7:05:ba:52:eb:3e:92:29:61:48:
                    88:fa:6d:42:b4:30:de:ce:df:94:ed:92:88:60:c8:
                    55:36:50:ee:36:b5:ed:35:6f:95:01:f4:88:4b:7b:
                    3e:fe:b5:9c:64:c0:72:be:8c:74:6a:8c:f5:e4:65:
                    66:87:52:9d:7b:b0:20:f6:d8:c3:de:76:b9:70:7c:
                    01:82:6e:fc:fa:1b:e7:c4:c1:5f:38:ce:50:dc:3a:
                    22:87:bc:19:9a:45:d5:8a:7a:93:f9:78:59:c7:0a:
                    f9:8f:eb:c3:79:eb:b5:ee:36:f0:5e:5d:2f:8f:46:
                    e8:63:c2:31:82:fc:fb:5d:8c:ca:01:b1:bb:72:2b:
                    e7:2f:82:3c:a6:24:a6:3f:58:7e:69:5b:4a:00:b4:
                    25:b3:b3:c3:b3:b0:c2:3f:a3:d7:ee:04:12:1d:ab:
                    0b:bb:02:b0:6c:0b:36:64:56:a9:5d:37:e5:0a:28:
                    44:5e:15:e4:f5:ab:73:98:0a:b3:28:90:1d:30:f2:
                    8c:e7:db:13:6a:0f:b4:cb:8d:06:15:86:ce:35:12:
                    e3:a9
                Exponent: 65537 (0x10001)
        X509v3 extensions:
            X509v3 Subject Key Identifier: 
                13:92:E0:30:5E:36:4F:BF:D5:E3:0D:5D:40:0B:64:95:EC:8E:77:4E
            X509v3 Authority Key Identifier: 
                keyid:9C:7B:3A:10:B3:08:99:05:00:AF:3E:E0:A4:5D:D9:AF:82:BC:4D:C0
                DirName:/C=US/ST=Washington/L=Seattle/O=wolfSSL Inc./OU=Engineering/CN=chainJ-ICA2-no_pathlen/emailAddress=info@wolfssl.com
                serial:64

            X509v3 Basic Constraints: 
                CA:FALSE
    Signature Algorithm: sha256WithRSAEncryption
         80:3e:0c:a6:77:8f:f3:d3:e5:b8:d9:7e:73:95:f7:c1:1b:6d:
         00:2b:51:a8:02:2e:11:47:1e:b7:c8:ed:04:e4:63:fc:93:6a:
         a5:7c:78:b5:4c:38:36:9e:5c:60:44:92:d0:0c:e1:af:0e:7d:
         14:f6:2a:9d:13:97:92:5e:13:e6:e9:d2:88:cd:89:a2:90:58:
         2b:5d:ef:33:3e:99:19:11:f1:f5:53:17:11:ed:4c:ec:10:c6:
         7f:eb:af:81:47:d4:45:dd:40:4c:34:a4:62:ab:0d:d8:2e:fe:
         eb:81:3c:7d:8d:75:81:b1:47:64:0f:87:c6:7b:c4:13:a4:40:
         8f:b9:da:be:c8:1c:15:18:58:b6:a3:f6:81:6e:0f:f3:c0:4c:
         d2:77:d5:4d:ed:9f:43:58:9d:e2:f7:e7:d6:a0:dd:f3:c5:5f:
         7e:54:12:ac:4f:53:8a:60:45:d7:fc:22:df:79:1e:a3:26:78:
         c6:6e:b9:f5:44:9c:71:40:16:41:18:d4:d2:79:7a:13:d7:2d:
         e0:a8:25:55:67:92:66:dd:18:bf:46:40:5b:fb:be:d1:fb:ed:
         db:3c:b1:c5:0f:ff:89:95:0a:a5:1e:cb:18:4d:2c:ba:ac:e9:
         d3:28:af:82:21:ff:78:d5:a8:a0:3a:ce:f3:21:9a:b6:d6:61:
         4b:bd:73:14
-----BEGIN CERTIFICATE-----
MIIEvDCCA6SgAwIBAgIBZTANBgkqhkiG9w0BAQsFADCBozELMAkGA1UEBhMCVVMx
EzARBgNVBAgMCldhc2hpbmd0b24xEDAOBgNVBAcMB1NlYXR0bGUxFTATBgNVBAoM
DHdvbGZTU0wgSW5jLjEUMBIGA1UECwwLRW5naW5lZXJpbmcxHzAdBgNVBAMMFmNo
YWluSi1JQ0ExLW5vX3BhdGhsZW4xHzAdBgkqhkiG9w0BCQEWEGluZm9Ad29sZnNz
bC5jb20wHhcNMjIxMjE2MjExNzUwWhcNMjUwOTExMjExNzUwWjCBmjELMAkGA1UE
BhMCVVMxEzARBgNVBAgMCldhc2hpbmd0b24xEDAOBgNVBAcMB1NlYXR0bGUxFTAT
BgNVBAoMDHdvbGZTU0wgSW5jLjEUMBIGA1UECwwLRW5naW5lZXJpbmcxFjAUBgNV
BAMMDWNoYWluSi1lbnRpdHkxHzAdBgkqhkiG9w0BCQEWEGluZm9Ad29sZnNzbC5j
b20wggEiMA0GCSqGSIb3DQEBAQUAA4IBDwAwggEKAoIBAQCz+1GgrGmLNQa/eu60
oYp+rjF1redFe+bZu3zpcw7ezwV03zekNzOmb1kGyJ8ZNcOU9wW6Uus+kilhSIj6
bUK0MN7O35TtkohgyFU2UO42te01b5UB9IhLez7+tZxkwHK+jHRqjPXkZWaHUp17
sCD22MPedrlwfAGCbvz6G+fEwV84zlDcOiKHvBmaRdWKepP5eFnHCvmP68N567Xu
NvBeXS+PRuhjwjGC/PtdjMoBsbtyK+cvgjymJKY/WH5pW0oAtCWzs8OzsMI/o9fu
BBIdqwu7ArBsCzZkVqldN+UKKEReFeT1q3OYCrMokB0w8ozn2xNqD7TLjQYVhs41
EuOpAgMBAAGjggEAMIH9MB0GA1UdDgQWBBQTkuAwXjZPv9XjDV1AC2SV7I53TjCB
0AYDVR0jBIHIMIHFgBScezoQswiZBQCvPuCkXdmvgrxNwKGBqaSBpjCBozELMAkG
A1UEBhMCVVMxEzARBgNVBAgMCldhc2hpbmd0b24xEDAOBgNVBAcMB1NlYXR0bGUx
FTATBgNVBAoMDHdvbGZTU0wgSW5jLjEUMBIGA1UECwwLRW5naW5lZXJpbmcxHzAd
BgNVBAMMFmNoYWluSi1JQ0EyLW5vX3BhdGhsZW4xHzAdBgkqhkiG9w0BCQEWEGlu
Zm9Ad29sZnNzbC5jb22CAWQwCQYDVR0TBAIwADANBgkqhkiG9w0BAQsFAAOCAQEA
gD4MpneP89PluNl+c5X3wRttACtRqAIuEUcet8jtBORj/JNqpXx4tUw4Np5cYESS
0Azhrw59FPYqnROXkl4T5unSiM2JopBYK13vMz6ZGRHx9VMXEe1M7BDGf+uvgUfU
Rd1ATDSkYqsN2C7+64E8fY11gbFHZA+HxnvEE6RAj7navsgcFRhYtqP2gW4P88BM
0nfVTe2fQ1id4vfn1qDd88VfflQSrE9TimBF1/wi33keoyZ4xm659USccUAWQRjU
0nl6E9ct4KglVWeSZt0Yv0ZAW/u+0fvt2zyxxQ//iZUKpR7LGE0suqzp0yivgiH/
eNWooDrO8yGattZhS71zFA==
-----END CERTIFICATE-----
Certificate:
    Data:
        Version: 3 (0x2)
        Serial Number: 100 (0x64)
        Signature Algorithm: sha256WithRSAEncryption
        Issuer: C = US, ST = Washington, L = Seattle, O = wolfSSL Inc., OU = Engineering, CN = chainJ-ICA2-no_pathlen, emailAddress = info@wolfssl.com
        Validity
            Not Before: Dec 16 21:17:50 2022 GMT
            Not After : Sep 11 21:17:50 2025 GMT
        Subject: C = US, ST = Washington, L = Seattle, O = wolfSSL Inc., OU = Engineering, CN = chainJ-ICA1-no_pathlen, emailAddress = info@wolfssl.com
        Subject Public Key Info:
            Public Key Algorithm: rsaEncryption
                RSA Public-Key: (2048 bit)
                Modulus:
                    00:a7:6f:44:c2:11:cc:2c:f4:2a:a5:a8:08:53:4b:
                    0e:cd:96:23:bb:15:4a:2a:dd:f9:a7:19:2b:91:28:
                    e8:73:a3:57:b4:49:3a:37:82:8f:15:38:5a:aa:af:
                    ad:72:26:2e:84:c2:0d:de:fc:f0:be:3b:a2:11:a9:
                    12:20:d4:3d:de:62:85:85:91:08:60:db:c0:4a:bb:
                    89:b6:f4:91:1e:51:a3:b2:f7:08:99:df:48:4a:59:
                    84:d1:aa:09:36:0d:cd:68:a5:ae:41:c8:d7:1a:d8:
                    ea:49:87:20:22:27:f9:45:54:3e:c7:c8:00:44:7e:
                    34:72:aa:8d:2d:4d:6a:3e:75:89:e2:d4:17:57:f9:
                    cd:2b:d0:b7:14:6a:54:1b:61:af:9b:68:22:b1:16:
                    73:eb:05:6c:41:ea:ed:10:4e:bc:83:04:68:c8:3a:
                    e1:03:12:ad:28:5c:24:4c:19:a1:7e:d8:ef:1b:80:
                    e4:0e:49:0c:69:86:f6:1e:e7:01:fb:2a:6f:56:1b:
                    6d:0a:ad:e9:29:3f:31:bb:48:28:40:79:2b:b5:f3:
                    aa:ec:e9:09:4c:82:fc:97:28:19:a3:3a:c0:d2:5e:
                    a3:8a:98:c8:8a:b7:d2:c4:90:bc:ff:cc:47:13:90:
                    ad:00:ab:8a:ec:f7:94:35:09:60:10:35:9f:32:c5:
                    00:1b
                Exponent: 65537 (0x10001)
        X509v3 extensions:
            X509v3 Subject Key Identifier: 
                9C:7B:3A:10:B3:08:99:05:00:AF:3E:E0:A4:5D:D9:AF:82:BC:4D:C0
            X509v3 Authority Key Identifier: 
                keyid:A3:F5:71:8A:60:80:3C:93:64:17:D9:2E:B5:C0:CE:A9:C1:14:17:C4
                DirName:/C=US/ST=Washington/L=Seattle/O=wolfSSL Inc./OU=Engineering/CN=chainJ-ICA3-no_pathlen/emailAddress=info@wolfssl.com
                serial:64

            X509v3 Basic Constraints: 
                CA:TRUE
            X509v3 Key Usage: 
                Certificate Sign, CRL Sign
    Signature Algorithm: sha256WithRSAEncryption
         8a:c2:bd:e8:d2:53:df:a2:01:71:2d:bd:24:c0:ce:3a:41:bc:
         86:24:51:4a:66:06:9e:1f:1f:c7:45:e2:db:ab:60:e8:89:ba:
         97:77:fe:d0:16:80:19:af:00:d0:2c:43:c3:b9:8c:6e:ff:5c:
         08:01:4a:a1:2c:ba:ba:db:96:f8:a1:d9:e7:65:2a:ee:d9:6d:
         73:7a:19:67:ed:67:69:30:13:fe:63:67:ec:e4:8c:89:37:11:
         82:c8:d5:3e:7b:bb:26:02:a0:10:44:72:51:d6:ea:33:9e:54:
         01:1a:5b:ed:0e:be:43:8f:a0:5b:dc:26:fa:e9:7c:20:e4:9a:
         6d:5b:87:c9:95:e5:7a:5b:2d:9a:9a:ab:65:37:9f:88:79:2c:
         10:83:82:32:76:1d:4f:f9:bf:8d:fd:2f:16:a7:d7:bb:64:41:
         6a:6d:02:9d:f5:f5:31:44:c5:64:56:9a:b8:a4:dd:88:ed:79:
         3b:f4:23:d7:0f:8a:2a:f3:f4:92:47:f5:f6:0f:19:e9:7c:6a:
         fe:f0:62:c3:43:45:a2:6c:f5:2e:0b:c3:c5:8b:21:70:68:fc:
         58:63:91:1d:a4:35:eb:5b:4c:67:df:1d:4a:a3:a3:9e:16:a5:
         6b:e3:05:66:00:1e:03:aa:3f:0d:f8:2f:f7:f6:78:08:e0:b6:
         1f:20:0e:3d
-----BEGIN CERTIFICATE-----
MIIE1jCCA76gAwIBAgIBZDANBgkqhkiG9w0BAQsFADCBozELMAkGA1UEBhMCVVMx
EzARBgNVBAgMCldhc2hpbmd0b24xEDAOBgNVBAcMB1NlYXR0bGUxFTATBgNVBAoM
DHdvbGZTU0wgSW5jLjEUMBIGA1UECwwLRW5naW5lZXJpbmcxHzAdBgNVBAMMFmNo
YWluSi1JQ0EyLW5vX3BhdGhsZW4xHzAdBgkqhkiG9w0BCQEWEGluZm9Ad29sZnNz
bC5jb20wHhcNMjIxMjE2MjExNzUwWhcNMjUwOTExMjExNzUwWjCBozELMAkGA1UE
BhMCVVMxEzARBgNVBAgMCldhc2hpbmd0b24xEDAOBgNVBAcMB1NlYXR0bGUxFTAT
BgNVBAoMDHdvbGZTU0wgSW5jLjEUMBIGA1UECwwLRW5naW5lZXJpbmcxHzAdBgNV
BAMMFmNoYWluSi1JQ0ExLW5vX3BhdGhsZW4xHzAdBgkqhkiG9w0BCQEWEGluZm9A
d29sZnNzbC5jb20wggEiMA0GCSqGSIb3DQEBAQUAA4IBDwAwggEKAoIBAQCnb0TC
Ecws9CqlqAhTSw7NliO7FUoq3fmnGSuRKOhzo1e0STo3go8VOFqqr61yJi6Ewg3e
/PC+O6IRqRIg1D3eYoWFkQhg28BKu4m29JEeUaOy9wiZ30hKWYTRqgk2Dc1opa5B
yNca2OpJhyAiJ/lFVD7HyABEfjRyqo0tTWo+dYni1BdX+c0r0LcUalQbYa+baCKx
FnPrBWxB6u0QTryDBGjIOuEDEq0oXCRMGaF+2O8bgOQOSQxphvYe5wH7Km9WG20K
rekpPzG7SChAeSu186rs6QlMgvyXKBmjOsDSXqOKmMiKt9LEkLz/zEcTkK0Aq4rs
95Q1CWAQNZ8yxQAbAgMBAAGjggERMIIBDTAdBgNVHQ4EFgQUnHs6ELMImQUArz7g
pF3Zr4K8TcAwgdAGA1UdIwSByDCBxYAUo/VximCAPJNkF9kutcDOqcEUF8Shgamk
gaYwgaMxCzAJBgNVBAYTAlVTMRMwEQYDVQQIDApXYXNoaW5ndG9uMRAwDgYDVQQH
DAdTZWF0dGxlMRUwEwYDVQQKDAx3b2xmU1NMIEluYy4xFDASBgNVBAsMC0VuZ2lu
ZWVyaW5nMR8wHQYDVQQDDBZjaGFpbkotSUNBMy1ub19wYXRobGVuMR8wHQYJKoZI
hvcNAQkBFhBpbmZvQHdvbGZzc2wuY29tggFkMAwGA1UdEwQFMAMBAf8wCwYDVR0P
BAQDAgEGMA0GCSqGSIb3DQEBCwUAA4IBAQCKwr3o0lPfogFxLb0kwM46QbyGJFFK
ZgaeHx/HReLbq2DoibqXd/7QFoAZrwDQLEPDuYxu/1wIAUqhLLq625b4odnnZSru
2W1zehln7WdpMBP+Y2fs5IyJNxGCyNU+e7smAqAQRHJR1uoznlQBGlvtDr5Dj6Bb
3Cb66Xwg5JptW4fJleV6Wy2amqtlN5+IeSwQg4Iydh1P+b+N/S8Wp9e7ZEFqbQKd
9fUxRMVkVpq4pN2I7Xk79CPXD4oq8/SSR/X2DxnpfGr+8GLDQ0WibPUuC8PFiyFw
aPxYY5EdpDXrW0xn3x1Ko6OeFqVr4wVmAB4Dqj8N+C/39ngI4LYfIA49
-----END CERTIFICATE-----
Certificate:
    Data:
        Version: 3 (0x2)
        Serial Number: 100 (0x64)
        Signature Algorithm: sha256WithRSAEncryption
        Issuer: C = US, ST = Washington, L = Seattle, O = wolfSSL Inc., OU = Engineering, CN = chainJ-ICA3-no_pathlen, emailAddress = info@wolfssl.com
        Validity
            Not Before: Dec 16 21:17:50 2022 GMT
            Not After : Sep 11 21:17:50 2025 GMT
        Subject: C = US, ST = Washington, L = Seattle, O = wolfSSL Inc., OU = Engineering, CN = chainJ-ICA2-no_pathlen, emailAddress = info@wolfssl.com
        Subject Public Key Info:
            Public Key Algorithm: rsaEncryption
                RSA Public-Key: (2048 bit)
                Modulus:
                    00:bb:29:fd:89:aa:82:e0:1d:04:78:69:ec:61:58:
                    51:52:84:7e:6b:55:69:2c:f4:23:d6:1f:d8:ed:ab:
                    19:96:38:7b:c6:88:d7:7d:85:93:00:35:40:0b:c0:
                    a9:ff:66:0f:9e:a1:1d:88:6e:a9:8a:f1:ad:47:b4:
                    71:c9:15:50:c6:0f:35:9e:95:4a:66:d3:bd:1b:38:
                    7b:dc:67:85:97:1b:b3:63:c9:72:d6:43:5a:f1:5e:
                    35:f6:05:96:c7:40:bc:23:ab:94:34:82:59:02:b2:
                    33:d0:e6:7f:19:57:65:68:3c:04:61:50:ef:22:95:
                    4f:ef:18:bf:15:b1:4d:8e:cd:a7:a0:98:22:f5:1c:
                    05:01:6b:4b:35:bf:88:c3:47:c3:24:29:b4:45:cb:
                    95:a1:ac:16:1d:dd:b8:68:ac:51:39:24:27:6a:be:
                    31:f1:ec:06:10:55:be:44:02:4f:e8:12:7b:d6:fe:
                    32:c9:48:37:6b:20:68:cb:53:f5:49:3a:ae:4a:c7:
                    43:c1:af:e6:53:11:d9:f8:71:1a:a2:d6:37:c7:2b:
                    45:50:49:51:4f:55:6c:3f:1e:69:7b:58:12:3a:7e:
                    59:a0:57:9d:28:9c:8a:6d:82:e7:13:15:3b:04:8f:
                    e2:82:0f:2f:cf:d9:25:d9:65:a3:3c:03:c0:cd:b6:
                    51:d5
                Exponent: 65537 (0x10001)
        X509v3 extensions:
            X509v3 Subject Key Identifier: 
                A3:F5:71:8A:60:80:3C:93:64:17:D9:2E:B5:C0:CE:A9:C1:14:17:C4
            X509v3 Authority Key Identifier: 
                keyid:CD:97:49:78:F7:31:61:ED:2F:71:1A:68:E9:45:2C:40:78:51:93:5B
                DirName:/C=US/ST=Washington/L=Seattle/O=wolfSSL Inc./OU=Engineering/CN=chainJ-ICA4-pathlen2/emailAddress=info@wolfssl.com
                serial:64

            X509v3 Basic Constraints: 
                CA:TRUE
            X509v3 Key Usage: 
                Certificate Sign, CRL Sign
    Signature Algorithm: sha256WithRSAEncryption
         64:05:b5:78:b4:eb:f3:d5:be:5f:ec:27:6e:7d:ad:74:6c:da:
         c4:2c:cf:fc:b9:4f:52:7f:b1:78:3a:de:f6:9a:97:f5:aa:a4:
         ce:b0:2a:84:b5:33:5f:b4:55:b9:f9:03:58:ba:7a:86:8d:b7:
         ff:e5:dd:69:b9:e8:40:76:cf:5b:8e:9c:a5:0b:df:35:da:d6:
         8c:72:b5:a6:92:d5:e5:7b:75:10:6c:89:33:0a:34:2d:ef:bb:
         72:6d:be:89:b0:b3:71:b4:50:a1:00:b7:01:d8:31:bf:db:40:
         df:d1:1f:a8:16:e6:4b:2e:04:98:66:8c:73:43:50:95:73:80:
         0b:84:8f:2d:be:cb:6b:1b:1b:a1:78:d4:bd:b0:a5:b9:34:a9:
         3f:56:b0:0b:b2:dc:34:0f:e6:5f:42:8e:be:57:9d:40:49:6b:
         1d:f8:4d:03:30:4c:e4:d9:25:ad:3f:96:8c:3e:ac:e1:8f:34:
         ee:65:50:a0:79:b0:1e:2c:85:0c:11:6d:02:d8:be:1c:d9:0a:
         c5:01:4f:8b:a8:b3:91:0a:76:3a:a2:b0:cd:24:10:6e:e1:7f:
         0e:35:71:97:56:18:15:61:11:e1:4d:90:ff:67:2b:52:54:e9:
         44:27:2c:4f:fc:59:0f:e0:87:69:44:92:8d:d0:b6:db:8a:e2:
         70:0d:12:05
-----BEGIN CERTIFICATE-----
MIIE1DCCA7ygAwIBAgIBZDANBgkqhkiG9w0BAQsFADCBozELMAkGA1UEBhMCVVMx
EzARBgNVBAgMCldhc2hpbmd0b24xEDAOBgNVBAcMB1NlYXR0bGUxFTATBgNVBAoM
DHdvbGZTU0wgSW5jLjEUMBIGA1UECwwLRW5naW5lZXJpbmcxHzAdBgNVBAMMFmNo
YWluSi1JQ0EzLW5vX3BhdGhsZW4xHzAdBgkqhkiG9w0BCQEWEGluZm9Ad29sZnNz
bC5jb20wHhcNMjIxMjE2MjExNzUwWhcNMjUwOTExMjExNzUwWjCBozELMAkGA1UE
BhMCVVMxEzARBgNVBAgMCldhc2hpbmd0b24xEDAOBgNVBAcMB1NlYXR0bGUxFTAT
BgNVBAoMDHdvbGZTU0wgSW5jLjEUMBIGA1UECwwLRW5naW5lZXJpbmcxHzAdBgNV
BAMMFmNoYWluSi1JQ0EyLW5vX3BhdGhsZW4xHzAdBgkqhkiG9w0BCQEWEGluZm9A
d29sZnNzbC5jb20wggEiMA0GCSqGSIb3DQEBAQUAA4IBDwAwggEKAoIBAQC7Kf2J
qoLgHQR4aexhWFFShH5rVWks9CPWH9jtqxmWOHvGiNd9hZMANUALwKn/Zg+eoR2I
bqmK8a1HtHHJFVDGDzWelUpm070bOHvcZ4WXG7NjyXLWQ1rxXjX2BZbHQLwjq5Q0
glkCsjPQ5n8ZV2VoPARhUO8ilU/vGL8VsU2OzaegmCL1HAUBa0s1v4jDR8MkKbRF
y5WhrBYd3bhorFE5JCdqvjHx7AYQVb5EAk/oEnvW/jLJSDdrIGjLU/VJOq5Kx0PB
r+ZTEdn4cRqi1jfHK0VQSVFPVWw/Hml7WBI6flmgV50onIptgucTFTsEj+KCDy/P
2SXZZaM8A8DNtlHVAgMBAAGjggEPMIIBCzAdBgNVHQ4EFgQUo/VximCAPJNkF9ku
tcDOqcEUF8Qwgc4GA1UdIwSBxjCBw4AUzZdJePcxYe0vcRpo6UUsQHhRk1uhgaek
gaQwgaExCzAJBgNVBAYTAlVTMRMwEQYDVQQIDApXYXNoaW5ndG9uMRAwDgYDVQQH
DAdTZWF0dGxlMRUwEwYDVQQKDAx3b2xmU1NMIEluYy4xFDASBgNVBAsMC0VuZ2lu
ZWVyaW5nMR0wGwYDVQQDDBRjaGFpbkotSUNBNC1wYXRobGVuMjEfMB0GCSqGSIb3
DQEJARYQaW5mb0B3b2xmc3NsLmNvbYIBZDAMBgNVHRMEBTADAQH/MAsGA1UdDwQE
AwIBBjANBgkqhkiG9w0BAQsFAAOCAQEAZAW1eLTr89W+X+wnbn2tdGzaxCzP/LlP
Un+xeDre9pqX9aqkzrAqhLUzX7RVufkDWLp6ho23/+XdabnoQHbPW46cpQvfNdrW
jHK1ppLV5Xt1EGyJMwo0Le+7cm2+ibCzcbRQoQC3Adgxv9tA39EfqBbmSy4EmGaM
c0NQlXOAC4SPLb7LaxsboXjUvbCluTSpP1awC7LcNA/mX0KOvledQElrHfhNAzBM
5NklrT+WjD6s4Y807mVQoHmwHiyFDBFtAti+HNkKxQFPi6izkQp2OqKwzSQQbuF/
DjVxl1YYFWER4U2Q/2crUlTpRCcsT/xZD+CHaUSSjdC224ricA0SBQ==
-----END CERTIFICATE-----
Certificate:
    Data:
        Version: 3 (0x2)
        Serial Number: 100 (0x64)
        Signature Algorithm: sha256WithRSAEncryption
        Issuer: C = US, ST = Washington, L = Seattle, O = wolfSSL Inc., OU = Engineering, CN = chainJ-ICA4-pathlen2, emailAddress = info@wolfssl.com
        Validity
            Not Before: Dec 16 21:17:50 2022 GMT
            Not After : Sep 11 21:17:50 2025 GMT
        Subject: C = US, ST = Washington, L = Seattle, O = wolfSSL Inc., OU = Engineering, CN = chainJ-ICA3-no_pathlen, emailAddress = info@wolfssl.com
        Subject Public Key Info:
            Public Key Algorithm: rsaEncryption
                RSA Public-Key: (2048 bit)
                Modulus:
                    00:d8:aa:f6:05:95:70:5a:53:c7:66:10:aa:90:79:
                    3b:cb:78:2a:ef:5f:43:22:71:7c:6d:47:99:a7:8b:
                    39:e1:e7:4e:48:29:48:25:e1:b5:f5:25:df:64:7b:
                    ea:ed:aa:1f:8b:0d:e7:eb:f5:2f:ae:2a:5a:3d:50:
                    c7:fb:ef:0b:8b:44:0b:63:94:be:c6:d7:63:45:2e:
                    85:96:00:5c:be:7e:10:09:b3:d0:aa:7c:de:20:f8:
                    75:39:23:85:ee:84:13:88:54:2a:96:f5:16:27:9f:
                    8b:b0:a6:2a:f4:9d:13:8c:71:1c:0c:a6:59:53:ec:
                    f9:0b:2b:c9:45:13:d6:12:ef:39:d1:8e:9c:9e:ae:
                    3c:bb:b6:d8:10:ac:b7:59:49:5b:73:00:be:af:92:
                    21:14:54:a3:fa:b6:17:ae:b6:dc:b1:f1:61:f0:75:
                    07:43:5e:48:fa:e7:80:56:cf:df:ad:46:52:85:42:
                    fb:a7:70:53:14:c6:b7:51:fa:23:f0:f5:4b:d1:bb:
                    3f:9b:fc:35:ca:d2:85:f1:a0:77:02:06:7c:79:99:
                    13:b5:68:b4:16:47:42:88:f7:bc:eb:78:b2:e8:11:
                    2f:62:f6:da:f9:ef:1b:e0:9f:b5:d5:32:65:b5:4e:
                    e4:be:36:6b:65:65:1a:96:a2:47:b5:3e:9f:b0:0d:
                    63:41
                Exponent: 65537 (0x10001)
        X509v3 extensions:
            X509v3 Subject Key Identifier: 
                CD:97:49:78:F7:31:61:ED:2F:71:1A:68:E9:45:2C:40:78:51:93:5B
            X509v3 Authority Key Identifier: 
                keyid:FC:18:13:52:BB:33:4A:DB:1C:5B:D1:80:98:3E:40:86:95:58:72:F9
                DirName:/C=US/ST=Montana/L=Bozeman/O=Sawtooth/OU=Consulting/CN=www.wolfssl.com/emailAddress=info@wolfssl.com
                serial:64

            X509v3 Basic Constraints: 
                CA:TRUE
            X509v3 Key Usage: 
                Certificate Sign, CRL Sign
    Signature Algorithm: sha256WithRSAEncryption
         6c:4e:a1:bd:fd:0a:46:ac:b3:94:e7:4b:20:99:1f:3e:4a:10:
         95:1d:21:f9:71:da:f6:4a:c9:dc:78:14:a9:5e:01:6b:40:8f:
         18:40:6e:6d:a5:82:91:19:79:0a:d1:5e:15:16:46:c0:05:5a:
         67:56:8a:14:8e:9c:09:61:bc:11:f8:4d:f8:66:8d:84:c5:7d:
         e3:28:3d:ff:db:37:c4:08:48:4e:ce:0c:89:49:a6:a8:fc:d5:
         14:6f:e4:ae:cf:64:f4:21:3a:a9:58:fe:50:b2:5b:c2:14:a8:
         0f:3b:c7:c7:ae:ef:40:48:8c:35:cc:09:87:2d:6b:b3:95:a8:
         ff:e9:c1:3a:88:48:a2:64:6c:2a:1c:a4:19:34:69:76:0d:e4:
         71:fc:46:f0:2f:17:fa:17:ed:c8:d4:af:d8:cc:d2:97:f1:93:
         5e:4c:37:a7:06:b0:c3:9e:a7:e3:f9:1d:ca:bf:e0:3d:8e:b1:
         30:8c:bc:4e:94:8c:0e:fa:41:29:e5:21:ba:77:f2:74:31:58:
         fe:7c:c1:03:f5:28:2a:68:2b:ab:ba:87:61:b9:85:54:21:4d:
         c0:22:35:4d:18:c2:a1:f3:70:56:e9:4b:a2:95:86:f5:c4:da:
         70:d6:bc:17:67:c8:f2:3d:1f:80:0f:78:85:52:30:5b:6e:eb:
         6f:b7:bb:a2
-----BEGIN CERTIFICATE-----
MIIExDCCA6ygAwIBAgIBZDANBgkqhkiG9w0BAQsFADCBoTELMAkGA1UEBhMCVVMx
EzARBgNVBAgMCldhc2hpbmd0b24xEDAOBgNVBAcMB1NlYXR0bGUxFTATBgNVBAoM
DHdvbGZTU0wgSW5jLjEUMBIGA1UECwwLRW5naW5lZXJpbmcxHTAbBgNVBAMMFGNo
YWluSi1JQ0E0LXBhdGhsZW4yMR8wHQYJKoZIhvcNAQkBFhBpbmZvQHdvbGZzc2wu
Y29tMB4XDTIyMTIxNjIxMTc1MFoXDTI1MDkxMTIxMTc1MFowgaMxCzAJBgNVBAYT
AlVTMRMwEQYDVQQIDApXYXNoaW5ndG9uMRAwDgYDVQQHDAdTZWF0dGxlMRUwEwYD
VQQKDAx3b2xmU1NMIEluYy4xFDASBgNVBAsMC0VuZ2luZWVyaW5nMR8wHQYDVQQD
DBZjaGFpbkotSUNBMy1ub19wYXRobGVuMR8wHQYJKoZIhvcNAQkBFhBpbmZvQHdv
bGZzc2wuY29tMIIBIjANBgkqhkiG9w0BAQEFAAOCAQ8AMIIBCgKCAQEA2Kr2BZVw
WlPHZhCqkHk7y3gq719DInF8bUeZp4s54edOSClIJeG19SXfZHvq7aofiw3n6/Uv
ripaPVDH++8Li0QLY5S+xtdjRS6FlgBcvn4QCbPQqnzeIPh1OSOF7oQTiFQqlvUW
J5+LsKYq9J0TjHEcDKZZU+z5CyvJRRPWEu850Y6cnq48u7bYEKy3WUlbcwC+r5Ih
FFSj+rYXrrbcsfFh8HUHQ15I+ueAVs/frUZShUL7p3BTFMa3Ufoj8PVL0bs/m/w1
ytKF8aB3AgZ8eZkTtWi0FkdCiPe863iy6BEvYvba+e8b4J+11TJltU7kvjZrZWUa
lqJHtT6fsA1jQQIDAQABo4IBATCB/jAdBgNVHQ4EFgQUzZdJePcxYe0vcRpo6UUs
QHhRk1swgcEGA1UdIwSBuTCBtoAU/BgTUrszStscW9GAmD5AhpVYcvmhgZqkgZcw
gZQxCzAJBgNVBAYTAlVTMRAwDgYDVQQIDAdNb250YW5hMRAwDgYDVQQHDAdCb3pl
bWFuMREwDwYDVQQKDAhTYXd0b290aDETMBEGA1UECwwKQ29uc3VsdGluZzEYMBYG
A1UEAwwPd3d3LndvbGZzc2wuY29tMR8wHQYJKoZIhvcNAQkBFhBpbmZvQHdvbGZz
c2wuY29tggFkMAwGA1UdEwQFMAMBAf8wCwYDVR0PBAQDAgEGMA0GCSqGSIb3DQEB
CwUAA4IBAQBsTqG9/QpGrLOU50sgmR8+ShCVHSH5cdr2SsnceBSpXgFrQI8YQG5t
pYKRGXkK0V4VFkbABVpnVooUjpwJYbwR+E34Zo2ExX3jKD3/2zfECEhOzgyJSaao
/NUUb+Suz2T0ITqpWP5QslvCFKgPO8fHru9ASIw1zAmHLWuzlaj/6cE6iEiiZGwq
HKQZNGl2DeRx/EbwLxf6F+3I1K/YzNKX8ZNeTDenBrDDnqfj+R3Kv+A9jrEwjLxO
lIwO+kEp5SG6d/J0MVj+fMED9SgqaCuruodhuYVUIU3AIjVNGMKh83BW6UuilYb1
xNpw1rwXZ8jyPR+AD3iFUjBbbutvt7ui
-----END CERTIFICATE-----
Certificate:
    Data:
        Version: 3 (0x2)
        Serial Number: 100 (0x64)
        Signature Algorithm: sha256WithRSAEncryption
        Issuer: C = US, ST = Montana, L = Bozeman, O = Sawtooth, OU = Consulting, CN = www.wolfssl.com, emailAddress = info@wolfssl.com
        Validity
            Not Before: Dec 16 21:17:50 2022 GMT
            Not After : Sep 11 21:17:50 2025 GMT
        Subject: C = US, ST = Washington, L = Seattle, O = wolfSSL Inc., OU = Engineering, CN = chainJ-ICA4-pathlen2, emailAddress = info@wolfssl.com
        Subject Public Key Info:
            Public Key Algorithm: rsaEncryption
                RSA Public-Key: (2048 bit)
                Modulus:
                    00:9d:4a:ee:6b:ff:b6:ec:88:21:23:84:03:b6:88:
                    bb:3e:5a:1b:95:03:2f:24:53:2d:57:3f:11:38:5d:
                    12:1d:40:6b:10:db:c2:d3:e4:dd:80:77:74:7b:88:
                    44:65:e0:cf:52:c5:8a:42:e5:6e:b7:6a:ab:50:a0:
                    2e:29:c2:fe:ba:d5:c7:da:6b:91:26:8f:fc:1e:06:
                    17:f0:de:58:87:ef:1e:a6:91:12:39:68:a5:05:f3:
                    8c:67:c9:e5:99:18:a4:fc:90:3f:bd:a6:ca:f2:a6:
                    dd:b5:e6:93:cb:14:89:83:3c:88:5a:31:ab:e3:66:
                    2a:1b:87:c5:85:03:45:b0:ce:e1:0f:c1:0f:92:70:
                    d7:ac:65:ea:a8:09:c1:fe:1d:db:b7:e7:dd:98:d3:
                    c6:b1:16:b4:54:58:c1:aa:ba:a1:cf:19:14:a7:e4:
                    55:a6:da:bb:1f:9e:d1:85:00:e0:8d:4a:c4:d2:86:
                    08:75:fd:d8:1e:85:21:6c:27:8f:18:d5:44:73:58:
                    ab:94:75:4a:36:3d:8d:4d:c6:7a:86:9d:00:db:c5:
                    ba:be:70:02:83:bf:6e:d8:31:89:b3:f2:16:98:be:
                    27:f6:14:5a:e9:d4:72:67:8d:a9:df:76:27:bf:19:
                    ac:20:59:28:5b:1b:42:d9:d5:5b:6d:fb:6e:a2:5e:
                    d3:e9
                Exponent: 65537 (0x10001)
        X509v3 extensions:
            X509v3 Subject Key Identifier: 
                FC:18:13:52:BB:33:4A:DB:1C:5B:D1:80:98:3E:40:86:95:58:72:F9
            X509v3 Authority Key Identifier: 
                keyid:27:8E:67:11:74:C3:26:1D:3F:ED:33:63:B3:A4:D8:1D:30:E5:E8:D5
                DirName:/C=US/ST=Montana/L=Bozeman/O=Sawtooth/OU=Consulting/CN=www.wolfssl.com/emailAddress=info@wolfssl.com
                serial:2C:80:CE:DB:47:9D:07:66:92:3D:68:D7:CA:AC:90:4F:CA:69:41:4B

            X509v3 Basic Constraints: 
                CA:TRUE, pathlen:2
            X509v3 Key Usage: 
                Certificate Sign, CRL Sign
    Signature Algorithm: sha256WithRSAEncryption
         3b:8b:b7:2b:1d:58:68:22:70:84:71:02:0f:80:9e:f8:04:7a:
         0c:aa:ab:60:ce:d0:ef:a5:0d:1f:6f:be:cf:06:8d:a2:52:3b:
         3f:3d:22:6c:6a:37:a3:2e:be:b2:6c:c6:5f:95:7b:68:df:22:
         9a:31:6e:eb:c1:5d:80:0c:2c:34:44:b4:3a:6a:f9:1c:8c:68:
         39:1d:52:05:47:b9:a3:23:87:72:19:d4:d3:87:59:df:eb:b8:
         ef:19:b3:15:e0:c4:65:5a:9b:b2:42:67:f9:01:5a:2d:a1:73:
         8c:2e:02:f9:56:20:57:23:03:3f:f9:13:ec:14:51:d0:9e:d4:
         49:ec:9e:f1:47:b2:19:19:03:59:cc:3f:f0:ef:d1:3d:8a:06:
         37:f2:3c:70:f4:c4:c8:b0:57:4c:c1:18:4d:a1:c0:c6:3e:c7:
         b3:1f:66:50:39:3f:f7:12:cf:b1:ff:26:ad:59:86:d6:18:d3:
         24:b7:6f:75:b7:8d:60:c4:63:e2:22:52:ff:b3:ea:03:b8:eb:
         b9:a2:2b:38:97:70:e9:5c:0d:a4:88:d0:85:b0:2b:b2:f7:75:
         3c:7d:2b:15:56:b4:78:ce:66:71:bc:62:60:24:72:3b:37:07:
         8f:75:ba:29:6e:25:9d:80:66:7b:41:f7:8a:e0:ce:8a:41:3c:
         24:1e:fc:34
-----BEGIN CERTIFICATE-----
MIIEzDCCA7SgAwIBAgIBZDANBgkqhkiG9w0BAQsFADCBlDELMAkGA1UEBhMCVVMx
EDAOBgNVBAgMB01vbnRhbmExEDAOBgNVBAcMB0JvemVtYW4xETAPBgNVBAoMCFNh
d3Rvb3RoMRMwEQYDVQQLDApDb25zdWx0aW5nMRgwFgYDVQQDDA93d3cud29sZnNz
bC5jb20xHzAdBgkqhkiG9w0BCQEWEGluZm9Ad29sZnNzbC5jb20wHhcNMjIxMjE2
MjExNzUwWhcNMjUwOTExMjExNzUwWjCBoTELMAkGA1UEBhMCVVMxEzARBgNVBAgM
Cldhc2hpbmd0b24xEDAOBgNVBAcMB1NlYXR0bGUxFTATBgNVBAoMDHdvbGZTU0wg
SW5jLjEUMBIGA1UECwwLRW5naW5lZXJpbmcxHTAbBgNVBAMMFGNoYWluSi1JQ0E0
LXBhdGhsZW4yMR8wHQYJKoZIhvcNAQkBFhBpbmZvQHdvbGZzc2wuY29tMIIBIjAN
BgkqhkiG9w0BAQEFAAOCAQ8AMIIBCgKCAQEAnUrua/+27IghI4QDtoi7PloblQMv
JFMtVz8ROF0SHUBrENvC0+TdgHd0e4hEZeDPUsWKQuVut2qrUKAuKcL+utXH2muR
Jo/8HgYX8N5Yh+8eppESOWilBfOMZ8nlmRik/JA/vabK8qbdteaTyxSJgzyIWjGr
42YqG4fFhQNFsM7hD8EPknDXrGXqqAnB/h3bt+fdmNPGsRa0VFjBqrqhzxkUp+RV
ptq7H57RhQDgjUrE0oYIdf3YHoUhbCePGNVEc1irlHVKNj2NTcZ6hp0A28W6vnAC
g79u2DGJs/IWmL4n9hRa6dRyZ42p33YnvxmsIFkoWxtC2dVbbftuol7T6QIDAQAB
o4IBGDCCARQwHQYDVR0OBBYEFPwYE1K7M0rbHFvRgJg+QIaVWHL5MIHUBgNVHSME
gcwwgcmAFCeOZxF0wyYdP+0zY7Ok2B0w5ejVoYGapIGXMIGUMQswCQYDVQQGEwJV
UzEQMA4GA1UECAwHTW9udGFuYTEQMA4GA1UEBwwHQm96ZW1hbjERMA8GA1UECgwI
U2F3dG9vdGgxEzARBgNVBAsMCkNvbnN1bHRpbmcxGDAWBgNVBAMMD3d3dy53b2xm
c3NsLmNvbTEfMB0GCSqGSIb3DQEJARYQaW5mb0B3b2xmc3NsLmNvbYIULIDO20ed
B2aSPWjXyqyQT8ppQUswDwYDVR0TBAgwBgEB/wIBAjALBgNVHQ8EBAMCAQYwDQYJ
KoZIhvcNAQELBQADggEBADuLtysdWGgicIRxAg+AnvgEegyqq2DO0O+lDR9vvs8G
jaJSOz89ImxqN6MuvrJsxl+Ve2jfIpoxbuvBXYAMLDREtDpq+RyMaDkdUgVHuaMj
h3IZ1NOHWd/ruO8ZsxXgxGVam7JCZ/kBWi2hc4wuAvlWIFcjAz/5E+wUUdCe1Ens
nvFHshkZA1nMP/Dv0T2KBjfyPHD0xMiwV0zBGE2hwMY+x7MfZlA5P/cSz7H/Jq1Z
htYY0yS3b3W3jWDEY+IiUv+z6gO467miKziXcOlcDaSI0IWwK7L3dTx9KxVWtHjO
ZnG8YmAkcjs3B491uiluJZ2AZntB94rgzopBPCQe/DQ=
-----END CERTIFICATE-----
