Certificate:
    Data:
        Version: 3 (0x2)
        Serial Number: 9 (0x9)
        Signature Algorithm: sha256WithRSAEncryption
        Issuer: C = US, ST = Washington, L = Seattle, O = wolfSSL, OU = Engineering, CN = wolfSSL REVOKED intermediate CA, emailAddress = info@wolfssl.com
        Validity
            Not Before: Dec 16 21:17:50 2022 GMT
            Not After : Sep 11 21:17:50 2025 GMT
        Subject: C = US, ST = Washington, L = Seattle, O = wolfSSL, OU = Engineering, CN = www5.wolfssl.com, emailAddress = info@wolfssl.com
        Subject Public Key Info:
            Public Key Algorithm: rsaEncryption
                RSA Public-Key: (2048 bit)
                Modulus:
                    00:ac:73:6d:e9:fa:8c:36:72:3e:89:3b:52:29:bd:
                    14:70:a2:00:b4:08:58:b6:c6:c0:bf:80:6a:1f:a5:
                    f0:15:fc:f4:19:a2:67:f9:6a:5d:22:69:2e:9c:29:
                    53:1e:5a:4a:d1:27:d5:b8:3b:65:37:8a:a2:eb:1b:
                    d4:5d:90:11:35:11:af:e3:d1:8c:24:5b:b5:90:c0:
                    bf:de:cb:7a:05:71:1b:ef:76:d7:9d:43:47:85:dc:
                    24:b8:b8:54:fc:53:bf:c3:fd:e1:12:c6:fc:1b:6f:
                    95:aa:cf:bb:8e:22:af:83:bd:4e:6b:66:fe:7e:7e:
                    98:6f:b1:b9:fc:f9:8a:8a:18:92:9a:4c:27:5d:78:
                    6b:e9:d0:14:1c:ed:69:6d:29:4c:4e:52:e6:92:24:
                    53:b0:2e:c3:a4:94:8f:20:1c:29:5c:97:70:1a:32:
                    85:90:71:f7:d7:a5:99:4f:48:c7:3d:fc:3d:a7:e1:
                    f9:96:ea:c1:6b:ea:31:e0:9b:fb:68:3e:4b:ad:a4:
                    2b:06:90:c2:b4:27:ea:f3:a3:3e:6e:32:75:aa:70:
                    6a:e3:33:29:fb:42:09:94:79:a5:eb:3c:4e:89:02:
                    77:08:fd:da:ba:fc:14:c6:8e:c1:5e:db:6d:d0:07:
                    4f:02:79:60:e7:95:c3:c8:f4:54:83:21:12:79:03:
                    7f:e1
                Exponent: 65537 (0x10001)
        X509v3 extensions:
            X509v3 Basic Constraints: 
                CA:FALSE
            X509v3 Subject Key Identifier: 
                2A:48:B6:8B:00:F0:4B:35:73:94:07:87:52:A3:69:5E:E6:D8:42:87
            X509v3 Authority Key Identifier: 
                keyid:BB:15:9E:32:4D:E0:F8:AA:8A:B0:2E:0C:17:2B:5A:41:74:4B:06:45
                DirName:/C=US/ST=Washington/L=Seattle/O=wolfSSL/OU=Engineering/CN=wolfSSL root CA/emailAddress=info@wolfssl.com
                serial:03

            X509v3 Key Usage: 
                Digital Signature, Non Repudiation, Key Encipherment
            Authority Information Access: 
                OCSP - URI:http://127.0.0.1:22223

    Signature Algorithm: sha256WithRSAEncryption
         0f:48:1f:2c:44:58:6e:56:07:19:c2:7e:5e:80:60:c6:b8:df:
         fb:71:6e:ae:e9:a4:1d:2a:4c:6a:ef:41:78:20:df:15:3b:82:
         7c:5c:c3:00:51:f5:27:41:58:50:dc:bb:a8:71:0a:d6:3e:d8:
         9b:27:03:70:39:01:08:7a:06:59:e2:51:1d:b4:74:c4:e3:ae:
         1b:0e:1f:9c:d2:95:df:79:51:4c:a5:d2:48:8d:9a:ed:1e:21:
         fd:59:e4:45:b4:bd:ac:d7:1a:1a:e7:9f:c6:ac:17:4f:2c:0d:
         e6:39:fd:c3:68:37:c7:c8:42:ca:da:83:42:73:76:ae:64:20:
         f7:99:46:7c:d8:a4:1c:f6:27:3b:06:e2:25:7b:e7:98:83:8c:
         d0:8a:0c:69:ce:7a:c7:19:a7:5b:25:52:bd:4e:d6:2d:2e:1b:
         02:29:17:c9:d9:5a:d2:f8:4c:ff:98:1a:50:d5:08:78:45:af:
         ad:6b:a6:92:b5:fc:d4:5f:34:48:b7:9d:6a:f9:22:bd:b0:23:
         99:6b:f1:63:00:ac:68:59:63:88:01:ba:1b:00:81:1c:cd:3a:
         b2:77:95:e6:65:d4:06:a8:95:22:a4:81:9b:8c:0f:44:94:73:
         1c:ee:2a:89:38:f1:c9:bd:9f:24:b4:f8:b8:71:cc:1a:f4:d0:
         d6:f4:d5:2a
-----BEGIN CERTIFICATE-----
MIIE9DCCA9ygAwIBAgIBCTANBgkqhkiG9w0BAQsFADCBpzELMAkGA1UEBhMCVVMx
EzARBgNVBAgMCldhc2hpbmd0b24xEDAOBgNVBAcMB1NlYXR0bGUxEDAOBgNVBAoM
B3dvbGZTU0wxFDASBgNVBAsMC0VuZ2luZWVyaW5nMSgwJgYDVQQDDB93b2xmU1NM
IFJFVk9LRUQgaW50ZXJtZWRpYXRlIENBMR8wHQYJKoZIhvcNAQkBFhBpbmZvQHdv
bGZzc2wuY29tMB4XDTIyMTIxNjIxMTc1MFoXDTI1MDkxMTIxMTc1MFowgZgxCzAJ
BgNVBAYTAlVTMRMwEQYDVQQIDApXYXNoaW5ndG9uMRAwDgYDVQQHDAdTZWF0dGxl
MRAwDgYDVQQKDAd3b2xmU1NMMRQwEgYDVQQLDAtFbmdpbmVlcmluZzEZMBcGA1UE
AwwQd3d3NS53b2xmc3NsLmNvbTEfMB0GCSqGSIb3DQEJARYQaW5mb0B3b2xmc3Ns
LmNvbTCCASIwDQYJKoZIhvcNAQEBBQADggEPADCCAQoCggEBAKxzben6jDZyPok7
Uim9FHCiALQIWLbGwL+Aah+l8BX89BmiZ/lqXSJpLpwpUx5aStEn1bg7ZTeKousb
1F2QETURr+PRjCRbtZDAv97LegVxG+92151DR4XcJLi4VPxTv8P94RLG/BtvlarP
u44ir4O9Tmtm/n5+mG+xufz5iooYkppMJ114a+nQFBztaW0pTE5S5pIkU7Auw6SU
jyAcKVyXcBoyhZBx99elmU9Ixz38Pafh+ZbqwWvqMeCb+2g+S62kKwaQwrQn6vOj
Pm4ydapwauMzKftCCZR5pes8TokCdwj92rr8FMaOwV7bbdAHTwJ5YOeVw8j0VIMh
EnkDf+ECAwEAAaOCATYwggEyMAkGA1UdEwQCMAAwHQYDVR0OBBYEFCpItosA8Es1
c5QHh1KjaV7m2EKHMIHEBgNVHSMEgbwwgbmAFLsVnjJN4PiqirAuDBcrWkF0SwZF
oYGdpIGaMIGXMQswCQYDVQQGEwJVUzETMBEGA1UECAwKV2FzaGluZ3RvbjEQMA4G
A1UEBwwHU2VhdHRsZTEQMA4GA1UECgwHd29sZlNTTDEUMBIGA1UECwwLRW5naW5l
ZXJpbmcxGDAWBgNVBAMMD3dvbGZTU0wgcm9vdCBDQTEfMB0GCSqGSIb3DQEJARYQ
aW5mb0B3b2xmc3NsLmNvbYIBAzALBgNVHQ8EBAMCBeAwMgYIKwYBBQUHAQEEJjAk
MCIGCCsGAQUFBzABhhZodHRwOi8vMTI3LjAuMC4xOjIyMjIzMA0GCSqGSIb3DQEB
CwUAA4IBAQAPSB8sRFhuVgcZwn5egGDGuN/7cW6u6aQdKkxq70F4IN8VO4J8XMMA
UfUnQVhQ3LuocQrWPtibJwNwOQEIegZZ4lEdtHTE464bDh+c0pXfeVFMpdJIjZrt
HiH9WeRFtL2s1xoa55/GrBdPLA3mOf3DaDfHyELK2oNCc3auZCD3mUZ82KQc9ic7
BuIle+eYg4zQigxpznrHGadbJVK9TtYtLhsCKRfJ2VrS+Ez/mBpQ1Qh4Ra+ta6aS
tfzUXzRIt51q+SK9sCOZa/FjAKxoWWOIAbobAIEczTqyd5XmZdQGqJUipIGbjA9E
lHMc7iqJOPHJvZ8ktPi4ccwa9NDW9NUq
-----END CERTIFICATE-----
Certificate:
    Data:
        Version: 3 (0x2)
        Serial Number: 3 (0x3)
        Signature Algorithm: sha256WithRSAEncryption
        Issuer: C = US, ST = Washington, L = Seattle, O = wolfSSL, OU = Engineering, CN = wolfSSL root CA, emailAddress = info@wolfssl.com
        Validity
            Not Before: Dec 16 21:17:50 2022 GMT
            Not After : Sep 11 21:17:50 2025 GMT
        Subject: C = US, ST = Washington, L = Seattle, O = wolfSSL, OU = Engineering, CN = wolfSSL REVOKED intermediate CA, emailAddress = info@wolfssl.com
        Subject Public Key Info:
            Public Key Algorithm: rsaEncryption
                RSA Public-Key: (2048 bit)
                Modulus:
                    00:de:c5:04:10:7d:c2:21:e9:12:45:da:d5:ba:28:
                    fd:a6:f4:30:44:a0:df:f9:70:5e:17:26:97:59:5c:
                    31:eb:13:70:ea:4a:dd:58:3e:4f:33:14:66:59:69:
                    7a:aa:90:e0:7c:c4:b2:36:c1:0a:f4:df:3e:34:6c:
                    1a:e9:2b:f1:a5:92:7e:a9:68:70:ba:a4:68:88:f3:
                    ec:10:40:64:a5:64:7d:d9:1e:51:49:9d:7f:c8:cc:
                    2b:6d:71:2a:06:ff:e6:1f:84:28:8a:c1:ed:a8:52:
                    f4:89:a5:c0:77:d8:13:66:c2:65:a5:63:03:98:b0:
                    4b:05:4f:0c:84:a0:f4:2d:72:73:6b:fa:0d:e1:cf:
                    45:27:ed:a3:8c:02:d7:ee:99:e2:a1:f0:e3:a0:ad:
                    69:ed:59:e4:27:41:8f:ef:fa:83:73:8f:5f:2b:68:
                    89:13:46:26:dc:f6:28:6b:3b:b2:b8:9b:52:2a:17:
                    1b:dc:72:45:73:da:75:24:35:8b:00:5e:23:37:64:
                    6a:16:74:b8:ee:fe:b7:11:71:be:0a:73:c8:54:c2:
                    d9:04:d2:1b:f5:53:ac:8d:2a:4f:fe:33:79:e6:5e:
                    e7:f3:86:d3:dc:bb:4b:d7:39:7f:5b:3c:67:fe:5e:
                    88:51:05:96:f2:b4:9a:45:09:4c:51:f0:6a:4d:88:
                    2a:17
                Exponent: 65537 (0x10001)
        X509v3 extensions:
            X509v3 Basic Constraints: 
                CA:TRUE
            X509v3 Subject Key Identifier: 
                BB:15:9E:32:4D:E0:F8:AA:8A:B0:2E:0C:17:2B:5A:41:74:4B:06:45
            X509v3 Authority Key Identifier: 
                keyid:73:B0:1C:A4:2F:82:CB:CF:47:A5:38:D7:B0:04:82:3A:7E:72:15:21
                DirName:/C=US/ST=Washington/L=Seattle/O=wolfSSL/OU=Engineering/CN=wolfSSL root CA/emailAddress=info@wolfssl.com
                serial:63

            X509v3 Key Usage: 
                Certificate Sign, CRL Sign
            Authority Information Access: 
                OCSP - URI:http://127.0.0.1:22220

    Signature Algorithm: sha256WithRSAEncryption
         a4:9b:e4:ec:56:45:77:92:36:91:66:cc:25:11:1a:1d:48:d5:
         f8:4a:32:04:6f:ea:76:c7:0c:27:8a:8c:f1:ef:08:d4:47:60:
         66:5e:3f:61:76:fc:a2:84:c1:42:01:89:b6:17:d9:eb:14:e6:
         61:7e:8e:18:2e:64:be:14:ef:2d:ce:63:10:d6:b3:00:ec:f3:
         fc:4f:a0:1b:6f:e7:75:18:fe:ca:ef:47:12:dc:c8:ae:f9:05:
         2b:84:14:d5:ad:df:58:84:81:33:51:90:5d:29:b8:ff:48:6b:
         f5:bb:e9:c7:be:6f:e1:6a:ca:71:47:1f:97:7f:1d:00:56:9a:
         59:f6:78:4e:95:6c:e8:51:73:8e:9d:f3:62:00:f7:65:bd:09:
         d7:e4:ae:7e:04:ee:1e:eb:f3:83:3f:2a:44:f4:98:f8:ef:31:
         ed:06:77:60:e3:f2:6b:b6:dd:3e:ed:45:aa:07:a9:7f:99:f5:
         2d:9b:ce:10:16:3a:cd:96:fb:40:1b:18:f4:eb:6f:f0:dc:ee:
         e8:aa:30:13:3c:d6:1e:46:7d:55:1f:0b:86:5c:13:f9:2f:83:
         b8:65:55:8d:3e:56:8b:d9:b7:e1:1b:2d:ab:f2:e7:3a:c4:6f:
         2a:c9:f0:f9:96:82:93:ac:a7:06:1c:0e:bb:2a:ff:6a:be:eb:
         91:b0:8c:dc
-----BEGIN CERTIFICATE-----
MIIE9jCCA96gAwIBAgIBAzANBgkqhkiG9w0BAQsFADCBlzELMAkGA1UEBhMCVVMx
EzARBgNVBAgMCldhc2hpbmd0b24xEDAOBgNVBAcMB1NlYXR0bGUxEDAOBgNVBAoM
B3dvbGZTU0wxFDASBgNVBAsMC0VuZ2luZWVyaW5nMRgwFgYDVQQDDA93b2xmU1NM
IHJvb3QgQ0ExHzAdBgkqhkiG9w0BCQEWEGluZm9Ad29sZnNzbC5jb20wHhcNMjIx
MjE2MjExNzUwWhcNMjUwOTExMjExNzUwWjCBpzELMAkGA1UEBhMCVVMxEzARBgNV
BAgMCldhc2hpbmd0b24xEDAOBgNVBAcMB1NlYXR0bGUxEDAOBgNVBAoMB3dvbGZT
U0wxFDASBgNVBAsMC0VuZ2luZWVyaW5nMSgwJgYDVQQDDB93b2xmU1NMIFJFVk9L
RUQgaW50ZXJtZWRpYXRlIENBMR8wHQYJKoZIhvcNAQkBFhBpbmZvQHdvbGZzc2wu
Y29tMIIBIjANBgkqhkiG9w0BAQEFAAOCAQ8AMIIBCgKCAQEA3sUEEH3CIekSRdrV
uij9pvQwRKDf+XBeFyaXWVwx6xNw6krdWD5PMxRmWWl6qpDgfMSyNsEK9N8+NGwa
6SvxpZJ+qWhwuqRoiPPsEEBkpWR92R5RSZ1/yMwrbXEqBv/mH4QoisHtqFL0iaXA
d9gTZsJlpWMDmLBLBU8MhKD0LXJza/oN4c9FJ+2jjALX7pniofDjoK1p7VnkJ0GP
7/qDc49fK2iJE0Ym3PYoazuyuJtSKhcb3HJFc9p1JDWLAF4jN2RqFnS47v63EXG+
CnPIVMLZBNIb9VOsjSpP/jN55l7n84bT3LtL1zl/Wzxn/l6IUQWW8rSaRQlMUfBq
TYgqFwIDAQABo4IBOTCCATUwDAYDVR0TBAUwAwEB/zAdBgNVHQ4EFgQUuxWeMk3g
+KqKsC4MFytaQXRLBkUwgcQGA1UdIwSBvDCBuYAUc7AcpC+Cy89HpTjXsASCOn5y
FSGhgZ2kgZowgZcxCzAJBgNVBAYTAlVTMRMwEQYDVQQIDApXYXNoaW5ndG9uMRAw
DgYDVQQHDAdTZWF0dGxlMRAwDgYDVQQKDAd3b2xmU1NMMRQwEgYDVQQLDAtFbmdp
bmVlcmluZzEYMBYGA1UEAwwPd29sZlNTTCByb290IENBMR8wHQYJKoZIhvcNAQkB
FhBpbmZvQHdvbGZzc2wuY29tggFjMAsGA1UdDwQEAwIBBjAyBggrBgEFBQcBAQQm
MCQwIgYIKwYBBQUHMAGGFmh0dHA6Ly8xMjcuMC4wLjE6MjIyMjAwDQYJKoZIhvcN
AQELBQADggEBAKSb5OxWRXeSNpFmzCURGh1I1fhKMgRv6nbHDCeKjPHvCNRHYGZe
P2F2/KKEwUIBibYX2esU5mF+jhguZL4U7y3OYxDWswDs8/xPoBtv53UY/srvRxLc
yK75BSuEFNWt31iEgTNRkF0puP9Ia/W76ce+b+FqynFHH5d/HQBWmln2eE6VbOhR
c46d82IA92W9Cdfkrn4E7h7r84M/KkT0mPjvMe0Gd2Dj8mu23T7tRaoHqX+Z9S2b
zhAWOs2W+0AbGPTrb/Dc7uiqMBM81h5GfVUfC4ZcE/kvg7hlVY0+VovZt+EbLavy
5zrEbyrJ8PmWgpOspwYcDrsq/2q+65GwjNw=
-----END CERTIFICATE-----
Certificate:
    Data:
        Version: 3 (0x2)
        Serial Number: 99 (0x63)
        Signature Algorithm: sha256WithRSAEncryption
        Issuer: C = US, ST = Washington, L = Seattle, O = wolfSSL, OU = Engineering, CN = wolfSSL root CA, emailAddress = info@wolfssl.com
        Validity
            Not Before: Dec 16 21:17:50 2022 GMT
            Not After : Sep 11 21:17:50 2025 GMT
        Subject: C = US, ST = Washington, L = Seattle, O = wolfSSL, OU = Engineering, CN = wolfSSL root CA, emailAddress = info@wolfssl.com
        Subject Public Key Info:
            Public Key Algorithm: rsaEncryption
                RSA Public-Key: (2048 bit)
                Modulus:
                    00:ab:2c:b4:2f:1d:06:09:ef:4e:29:86:84:7e:cc:
                    bf:a6:79:7c:f0:c0:c1:64:25:8c:75:b7:10:05:ca:
                    48:27:0c:0e:32:1c:b0:fe:99:85:39:b6:b9:a2:f7:
                    27:ff:6d:3c:8c:16:73:29:21:7f:8b:a6:54:71:90:
                    ad:cc:05:b9:9f:15:c7:0a:3f:5f:69:f4:0a:5f:8c:
                    71:b5:2c:bf:66:e2:03:9a:32:f4:d2:ec:2a:89:4b:
                    f9:35:88:14:33:47:4e:2e:05:79:01:ed:64:36:76:
                    b9:f8:85:cd:01:88:ac:c5:b2:b1:59:b8:cd:5a:f4:
                    09:09:38:9b:da:5a:cf:ce:78:99:1f:49:3d:41:d6:
                    06:7c:52:99:c8:97:d1:b3:80:3a:a2:4f:36:c4:c5:
                    96:30:77:31:38:c8:70:cc:e1:67:06:b3:2b:2f:93:
                    b5:69:cf:83:7e:88:53:9b:0f:46:21:4c:d6:05:36:
                    44:99:60:68:47:e5:32:01:12:d4:10:73:ae:9a:34:
                    94:fa:6e:b8:58:4f:7b:5b:8a:92:97:ad:fd:97:b9:
                    75:ca:c2:d4:45:7d:17:6b:cd:2f:f3:63:7a:0e:30:
                    b5:0b:a9:d9:a6:7c:74:60:9d:cc:09:03:43:f1:0f:
                    90:d3:b7:fe:6c:9f:d9:cd:78:4b:15:ae:8c:5b:f9:
                    99:81
                Exponent: 65537 (0x10001)
        X509v3 extensions:
            X509v3 Basic Constraints: 
                CA:TRUE
            X509v3 Subject Key Identifier: 
                73:B0:1C:A4:2F:82:CB:CF:47:A5:38:D7:B0:04:82:3A:7E:72:15:21
            X509v3 Authority Key Identifier: 
                keyid:73:B0:1C:A4:2F:82:CB:CF:47:A5:38:D7:B0:04:82:3A:7E:72:15:21
                DirName:/C=US/ST=Washington/L=Seattle/O=wolfSSL/OU=Engineering/CN=wolfSSL root CA/emailAddress=info@wolfssl.com
                serial:63

            X509v3 Key Usage: 
                Certificate Sign, CRL Sign
            Authority Information Access: 
                OCSP - URI:http://127.0.0.1:22220

    Signature Algorithm: sha256WithRSAEncryption
         61:fc:6f:3d:f5:07:35:f4:3c:55:de:78:74:83:96:b8:3d:11:
         05:a4:d6:9a:c1:24:89:6f:9d:d5:0c:04:37:b5:97:06:b8:4f:
         87:d1:01:9c:17:2b:20:c7:5a:7e:55:1b:5a:aa:e7:d2:2a:c7:
         ad:6d:de:17:cb:4c:4b:b0:64:3e:71:9f:03:18:c8:b4:79:62:
         95:63:67:23:ee:68:5b:68:48:3f:44:75:a2:ae:ee:90:df:fb:
         0d:c1:96:0b:e3:4f:4a:16:b4:1c:26:9b:66:a0:32:35:e3:68:
         81:e6:a3:1e:0a:7b:6c:8e:4e:3f:73:bf:96:6c:f0:ca:89:d1:
         d2:f8:6b:cb:5a:2f:73:ed:e9:25:2f:2d:24:24:82:b4:0f:b9:
         84:f5:98:ce:8e:87:da:cc:2a:ae:61:d8:fb:3e:c0:b7:6d:30:
         f3:7a:9b:d5:65:81:e8:3e:07:a5:e0:14:cd:32:1f:d1:68:43:
         81:92:e3:94:0f:55:34:04:5a:c4:6d:e8:c1:7b:d3:27:32:52:
         90:3b:10:6b:83:9d:9f:87:6f:49:f4:85:eb:d7:da:9a:2b:a4:
         85:f1:48:ba:9d:84:ea:7c:4c:d5:e4:ec:c2:9f:da:e7:a9:82:
         e3:3f:7a:2d:48:37:dd:ef:61:9e:f7:d2:8b:3d:9e:e8:b1:5c:
         25:f7:16:61
-----BEGIN CERTIFICATE-----
MIIE5jCCA86gAwIBAgIBYzANBgkqhkiG9w0BAQsFADCBlzELMAkGA1UEBhMCVVMx
EzARBgNVBAgMCldhc2hpbmd0b24xEDAOBgNVBAcMB1NlYXR0bGUxEDAOBgNVBAoM
B3dvbGZTU0wxFDASBgNVBAsMC0VuZ2luZWVyaW5nMRgwFgYDVQQDDA93b2xmU1NM
IHJvb3QgQ0ExHzAdBgkqhkiG9w0BCQEWEGluZm9Ad29sZnNzbC5jb20wHhcNMjIx
MjE2MjExNzUwWhcNMjUwOTExMjExNzUwWjCBlzELMAkGA1UEBhMCVVMxEzARBgNV
BAgMCldhc2hpbmd0b24xEDAOBgNVBAcMB1NlYXR0bGUxEDAOBgNVBAoMB3dvbGZT
U0wxFDASBgNVBAsMC0VuZ2luZWVyaW5nMRgwFgYDVQQDDA93b2xmU1NMIHJvb3Qg
Q0ExHzAdBgkqhkiG9w0BCQEWEGluZm9Ad29sZnNzbC5jb20wggEiMA0GCSqGSIb3
DQEBAQUAA4IBDwAwggEKAoIBAQCrLLQvHQYJ704phoR+zL+meXzwwMFkJYx1txAF
ykgnDA4yHLD+mYU5trmi9yf/bTyMFnMpIX+LplRxkK3MBbmfFccKP19p9ApfjHG1
LL9m4gOaMvTS7CqJS/k1iBQzR04uBXkB7WQ2drn4hc0BiKzFsrFZuM1a9AkJOJva
Ws/OeJkfST1B1gZ8UpnIl9GzgDqiTzbExZYwdzE4yHDM4WcGsysvk7Vpz4N+iFOb
D0YhTNYFNkSZYGhH5TIBEtQQc66aNJT6brhYT3tbipKXrf2XuXXKwtRFfRdrzS/z
Y3oOMLULqdmmfHRgncwJA0PxD5DTt/5sn9nNeEsVroxb+ZmBAgMBAAGjggE5MIIB
NTAMBgNVHRMEBTADAQH/MB0GA1UdDgQWBBRzsBykL4LLz0elONewBII6fnIVITCB
xAYDVR0jBIG8MIG5gBRzsBykL4LLz0elONewBII6fnIVIaGBnaSBmjCBlzELMAkG
A1UEBhMCVVMxEzARBgNVBAgMCldhc2hpbmd0b24xEDAOBgNVBAcMB1NlYXR0bGUx
EDAOBgNVBAoMB3dvbGZTU0wxFDASBgNVBAsMC0VuZ2luZWVyaW5nMRgwFgYDVQQD
DA93b2xmU1NMIHJvb3QgQ0ExHzAdBgkqhkiG9w0BCQEWEGluZm9Ad29sZnNzbC5j
b22CAWMwCwYDVR0PBAQDAgEGMDIGCCsGAQUFBwEBBCYwJDAiBggrBgEFBQcwAYYW
aHR0cDovLzEyNy4wLjAuMToyMjIyMDANBgkqhkiG9w0BAQsFAAOCAQEAYfxvPfUH
NfQ8Vd54dIOWuD0RBaTWmsEkiW+d1QwEN7WXBrhPh9EBnBcrIMdaflUbWqrn0irH
rW3eF8tMS7BkPnGfAxjItHlilWNnI+5oW2hIP0R1oq7ukN/7DcGWC+NPSha0HCab
ZqAyNeNogeajHgp7bI5OP3O/lmzwyonR0vhry1ovc+3pJS8tJCSCtA+5hPWYzo6H
2swqrmHY+z7At20w83qb1WWB6D4HpeAUzTIf0WhDgZLjlA9VNARaxG3owXvTJzJS
kDsQa4Odn4dvSfSF69famiukhfFIup2E6nxM1eTswp/a56mC4z96LUg33e9hnvfS
iz2e6LFcJfcWYQ==
-----END CERTIFICATE-----
