Certificate:
    Data:
        Version: 3 (0x2)
        Serial Number:
            e3:81:4b:48:a5:70:61:70
        Signature Algorithm: ecdsa-with-SHA1
        Issuer: C = US, ST = Washington, L = Seattle, O = Foofarah, OU = Arglebargle, CN = foobarbaz, emailAddress = info@worlss.com
        Validity
            Not Before: Dec 16 21:17:49 2022 GMT
            Not After : Sep 11 21:17:49 2025 GMT
        Subject: C = US, ST = Washington, L = Seattle, O = Foofarah, OU = Arglebargle, CN = foobarbaz, emailAddress = info@worlss.com
        Subject Public Key Info:
            Public Key Algorithm: id-ecPublicKey
                Public-Key: (256 bit)
                pub:
                    04:bb:33:ac:4c:27:50:4a:c6:4a:a5:04:c3:3c:de:
                    9f:36:db:72:2d:ce:94:ea:2b:fa:cb:20:09:39:2c:
                    16:e8:61:02:e9:af:4d:d3:02:93:9a:31:5b:97:92:
                    21:7f:f0:cf:18:da:91:11:02:34:86:e8:20:58:33:
                    0b:80:34:89:d8
                ASN1 OID: prime256v1
                NIST CURVE: P-256
        X509v3 extensions:
            X509v3 Subject Key Identifier: 
                5D:5D:26:EF:AC:7E:36:F9:9B:76:15:2B:4A:25:02:23:EF:B2:89:30
            X509v3 Authority Key Identifier: 
                keyid:5D:5D:26:EF:AC:7E:36:F9:9B:76:15:2B:4A:25:02:23:EF:B2:89:30
                DirName:/C=US/ST=Washington/L=Seattle/O=Foofarah/OU=Arglebargle/CN=foobarbaz/emailAddress=info@worlss.com
                serial:E3:81:4B:48:A5:70:61:70

            X509v3 Basic Constraints: critical
                CA:TRUE
            X509v3 Key Usage: critical
                Non Repudiation, Key Encipherment
    Signature Algorithm: ecdsa-with-SHA1
         30:45:02:21:00:f7:23:e6:81:bf:37:d5:81:fb:78:c5:90:dd:
         23:c4:54:5c:b3:71:c7:25:79:19:d5:46:b7:a5:bf:04:b7:4d:
         b6:02:20:1f:ad:51:3d:b9:49:82:71:ad:f6:a9:de:17:f4:c3:
         d5:c9:4c:7e:16:58:cb:92:42:21:61:bb:f4:96:b2:78:9f
-----BEGIN CERTIFICATE-----
MIIDKDCCAs+gAwIBAgIJAOOBS0ilcGFwMAkGByqGSM49BAEwgZExCzAJBgNVBAYT
AlVTMRMwEQYDVQQIDApXYXNoaW5ndG9uMRAwDgYDVQQHDAdTZWF0dGxlMREwDwYD
VQQKDAhGb29mYXJhaDEUMBIGA1UECwwLQXJnbGViYXJnbGUxEjAQBgNVBAMMCWZv
b2JhcmJhejEeMBwGCSqGSIb3DQEJARYPaW5mb0B3b3Jsc3MuY29tMB4XDTIyMTIx
NjIxMTc0OVoXDTI1MDkxMTIxMTc0OVowgZExCzAJBgNVBAYTAlVTMRMwEQYDVQQI
DApXYXNoaW5ndG9uMRAwDgYDVQQHDAdTZWF0dGxlMREwDwYDVQQKDAhGb29mYXJh
aDEUMBIGA1UECwwLQXJnbGViYXJnbGUxEjAQBgNVBAMMCWZvb2JhcmJhejEeMBwG
CSqGSIb3DQEJARYPaW5mb0B3b3Jsc3MuY29tMFkwEwYHKoZIzj0CAQYIKoZIzj0D
AQcDQgAEuzOsTCdQSsZKpQTDPN6fNttyLc6U6iv6yyAJOSwW6GEC6a9N0wKTmjFb
l5Ihf/DPGNqREQI0huggWDMLgDSJ2KOCAQ0wggEJMB0GA1UdDgQWBBRdXSbvrH42
+Zt2FStKJQIj77KJMDCBxgYDVR0jBIG+MIG7gBRdXSbvrH42+Zt2FStKJQIj77KJ
MKGBl6SBlDCBkTELMAkGA1UEBhMCVVMxEzARBgNVBAgMCldhc2hpbmd0b24xEDAO
BgNVBAcMB1NlYXR0bGUxETAPBgNVBAoMCEZvb2ZhcmFoMRQwEgYDVQQLDAtBcmds
ZWJhcmdsZTESMBAGA1UEAwwJZm9vYmFyYmF6MR4wHAYJKoZIhvcNAQkBFg9pbmZv
QHdvcmxzcy5jb22CCQDjgUtIpXBhcDAPBgNVHRMBAf8EBTADAQH/MA4GA1UdDwEB
/wQEAwIFYDAJBgcqhkjOPQQBA0gAMEUCIQD3I+aBvzfVgft4xZDdI8RUXLNxxyV5
GdVGt6W/BLdNtgIgH61RPblJgnGt9qneF/TD1clMfhZYy5JCIWG79JayeJ8=
-----END CERTIFICATE-----
