Certificate:
    Data:
        Version: 3 (0x2)
        Serial Number:
            66:fe:3c:b9:70:bf:2e:6a:7d:8d:9f:94:e5:06:e5:26:ae:c0:51:ba
        Signature Algorithm: sha256WithRSAEncryption
        Issuer: C = US, ST = Montana, L = Bozeman, OU = Engineering, CN = localhost, emailAddress = info@wolfssl.com
        Validity
            Not Before: Dec 16 21:17:50 2022 GMT
            Not After : Sep 11 21:17:50 2025 GMT
        Subject: C = US, ST = Montana, L = Bozeman, OU = Engineering, CN = localhost, emailAddress = info@wolfssl.com
        Subject Public Key Info:
            Public Key Algorithm: rsaEncryption
                RSA Public-Key: (2048 bit)
                Modulus:
                    00:c0:95:08:e1:57:41:f2:71:6d:b7:d2:45:41:27:
                    01:65:c6:45:ae:f2:bc:24:30:b8:95:ce:2f:4e:d6:
                    f6:1c:88:bc:7c:9f:fb:a8:67:7f:fe:5c:9c:51:75:
                    f7:8a:ca:07:e7:35:2f:8f:e1:bd:7b:c0:2f:7c:ab:
                    64:a8:17:fc:ca:5d:7b:ba:e0:21:e5:72:2e:6f:2e:
                    86:d8:95:73:da:ac:1b:53:b9:5f:3f:d7:19:0d:25:
                    4f:e1:63:63:51:8b:0b:64:3f:ad:43:b8:a5:1c:5c:
                    34:b3:ae:00:a0:63:c5:f6:7f:0b:59:68:78:73:a6:
                    8c:18:a9:02:6d:af:c3:19:01:2e:b8:10:e3:c6:cc:
                    40:b4:69:a3:46:33:69:87:6e:c4:bb:17:a6:f3:e8:
                    dd:ad:73:bc:7b:2f:21:b5:fd:66:51:0c:bd:54:b3:
                    e1:6d:5f:1c:bc:23:73:d1:09:03:89:14:d2:10:b9:
                    64:c3:2a:d0:a1:96:4a:bc:e1:d4:1a:5b:c7:a0:c0:
                    c1:63:78:0f:44:37:30:32:96:80:32:23:95:a1:77:
                    ba:13:d2:97:73:e2:5d:25:c9:6a:0d:c3:39:60:a4:
                    b4:b0:69:42:42:09:e9:d8:08:bc:33:20:b3:58:22:
                    a7:aa:eb:c4:e1:e6:61:83:c5:d2:96:df:d9:d0:4f:
                    ad:d7
                Exponent: 65537 (0x10001)
    Signature Algorithm: sha256WithRSAEncryption
         45:91:94:ae:af:8c:15:13:c7:65:03:3d:d3:18:9b:68:aa:11:
         0c:d5:b9:e1:7c:a2:24:39:ee:d8:79:d5:be:5f:f4:b2:bf:2b:
         c1:fe:9d:e9:8f:e2:cb:89:1d:8b:56:71:a6:1e:16:a9:e7:f9:
         f8:e5:2e:36:fc:af:07:1f:63:89:b1:75:6e:b0:4a:91:5a:f2:
         fa:e9:81:c5:c2:9b:50:cd:97:a0:4d:57:79:53:e4:17:03:dd:
         bf:f0:e1:57:46:16:19:71:2f:c7:ab:d2:1e:d1:f1:7d:44:32:
         88:49:e5:a5:ac:5c:80:de:96:aa:cc:05:6f:0a:6c:98:cc:0f:
         8e:c8:50:f3:13:a8:9f:e2:16:98:e1:33:60:bf:7d:5a:18:8f:
         6e:d8:19:cb:3c:ea:d0:3c:65:a5:1a:4a:ee:9b:b9:46:59:78:
         c9:18:55:a4:4e:74:65:fe:de:97:e9:6e:7f:8c:e0:6e:4b:8c:
         b8:b8:37:cb:ed:f4:25:a8:1d:90:28:86:6e:1a:be:70:3a:cd:
         56:d9:74:27:d3:5d:9d:94:65:0f:a3:79:64:0c:b9:49:b3:eb:
         f3:f5:26:f2:54:ba:ed:b2:5f:6a:21:77:53:08:30:10:47:bb:
         58:e7:60:33:cb:3a:45:a9:98:ab:e2:84:5b:4e:d4:ba:60:01:
         7d:cc:40:88
-----BEGIN CERTIFICATE-----
MIIDhDCCAmygAwIBAgIUZv48uXC/Lmp9jZ+U5QblJq7AUbowDQYJKoZIhvcNAQEL
BQAwfDELMAkGA1UEBhMCVVMxEDAOBgNVBAgMB01vbnRhbmExEDAOBgNVBAcMB0Jv
emVtYW4xFDASBgNVBAsMC0VuZ2luZWVyaW5nMRIwEAYDVQQDDAlsb2NhbGhvc3Qx
HzAdBgkqhkiG9w0BCQEWEGluZm9Ad29sZnNzbC5jb20wHhcNMjIxMjE2MjExNzUw
WhcNMjUwOTExMjExNzUwWjB8MQswCQYDVQQGEwJVUzEQMA4GA1UECAwHTW9udGFu
YTEQMA4GA1UEBwwHQm96ZW1hbjEUMBIGA1UECwwLRW5naW5lZXJpbmcxEjAQBgNV
BAMMCWxvY2FsaG9zdDEfMB0GCSqGSIb3DQEJARYQaW5mb0B3b2xmc3NsLmNvbTCC
ASIwDQYJKoZIhvcNAQEBBQADggEPADCCAQoCggEBAMCVCOFXQfJxbbfSRUEnAWXG
Ra7yvCQwuJXOL07W9hyIvHyf+6hnf/5cnFF194rKB+c1L4/hvXvAL3yrZKgX/Mpd
e7rgIeVyLm8uhtiVc9qsG1O5Xz/XGQ0lT+FjY1GLC2Q/rUO4pRxcNLOuAKBjxfZ/
C1loeHOmjBipAm2vwxkBLrgQ48bMQLRpo0YzaYduxLsXpvPo3a1zvHsvIbX9ZlEM
vVSz4W1fHLwjc9EJA4kU0hC5ZMMq0KGWSrzh1Bpbx6DAwWN4D0Q3MDKWgDIjlaF3
uhPSl3PiXSXJag3DOWCktLBpQkIJ6dgIvDMgs1gip6rrxOHmYYPF0pbf2dBPrdcC
AwEAATANBgkqhkiG9w0BAQsFAAOCAQEARZGUrq+MFRPHZQM90xibaKoRDNW54Xyi
JDnu2HnVvl/0sr8rwf6d6Y/iy4kdi1Zxph4Wqef5+OUuNvyvBx9jibF1brBKkVry
+umBxcKbUM2XoE1XeVPkFwPdv/DhV0YWGXEvx6vSHtHxfUQyiEnlpaxcgN6WqswF
bwpsmMwPjshQ8xOon+IWmOEzYL99WhiPbtgZyzzq0DxlpRpK7pu5Rll4yRhVpE50
Zf7el+luf4zgbkuMuLg3y+30JagdkCiGbhq+cDrNVtl0J9NdnZRlD6N5ZAy5SbPr
8/Um8lS67bJfaiF3UwgwEEe7WOdgM8s6RamYq+KEW07UumABfcxAiA==
-----END CERTIFICATE-----
