Certificate:
    Data:
        Version: 3 (0x2)
        Serial Number:
            50:b6:0d:5a:9f:1e:16:84:1e:31:d8:93:dd:83:41:12:95:f2:be:2c
        Signature Algorithm: sha256WithRSAEncryption
        Issuer: C = US, ST = Montana, L = Bozeman, OU = Engineering, CN = www.nomatch.com, emailAddress = info@wolfssl.com
        Validity
            Not Before: Dec 16 21:17:50 2022 GMT
            Not After : Sep 11 21:17:50 2025 GMT
        Subject: C = US, ST = Montana, L = Bozeman, OU = Engineering, CN = www.nomatch.com, emailAddress = info@wolfssl.com
        Subject Public Key Info:
            Public Key Algorithm: rsaEncryption
                RSA Public-Key: (2048 bit)
                Modulus:
                    00:c0:95:08:e1:57:41:f2:71:6d:b7:d2:45:41:27:
                    01:65:c6:45:ae:f2:bc:24:30:b8:95:ce:2f:4e:d6:
                    f6:1c:88:bc:7c:9f:fb:a8:67:7f:fe:5c:9c:51:75:
                    f7:8a:ca:07:e7:35:2f:8f:e1:bd:7b:c0:2f:7c:ab:
                    64:a8:17:fc:ca:5d:7b:ba:e0:21:e5:72:2e:6f:2e:
                    86:d8:95:73:da:ac:1b:53:b9:5f:3f:d7:19:0d:25:
                    4f:e1:63:63:51:8b:0b:64:3f:ad:43:b8:a5:1c:5c:
                    34:b3:ae:00:a0:63:c5:f6:7f:0b:59:68:78:73:a6:
                    8c:18:a9:02:6d:af:c3:19:01:2e:b8:10:e3:c6:cc:
                    40:b4:69:a3:46:33:69:87:6e:c4:bb:17:a6:f3:e8:
                    dd:ad:73:bc:7b:2f:21:b5:fd:66:51:0c:bd:54:b3:
                    e1:6d:5f:1c:bc:23:73:d1:09:03:89:14:d2:10:b9:
                    64:c3:2a:d0:a1:96:4a:bc:e1:d4:1a:5b:c7:a0:c0:
                    c1:63:78:0f:44:37:30:32:96:80:32:23:95:a1:77:
                    ba:13:d2:97:73:e2:5d:25:c9:6a:0d:c3:39:60:a4:
                    b4:b0:69:42:42:09:e9:d8:08:bc:33:20:b3:58:22:
                    a7:aa:eb:c4:e1:e6:61:83:c5:d2:96:df:d9:d0:4f:
                    ad:d7
                Exponent: 65537 (0x10001)
        X509v3 extensions:
            X509v3 Subject Alternative Name: 
                <EMPTY>

    Signature Algorithm: sha256WithRSAEncryption
         32:3e:75:3d:36:97:04:5c:38:de:c1:e3:6d:c9:5e:84:89:eb:
         0a:74:0d:60:a5:77:a8:6a:d7:a3:38:2e:2c:20:9b:79:8d:c1:
         0d:c3:3e:f9:e2:49:52:d5:78:cb:93:38:dd:00:d9:e0:90:05:
         78:cc:ab:25:37:be:c4:e9:11:dd:9a:f2:a4:03:4f:50:3f:58:
         90:73:75:7e:00:40:dd:9e:b6:0a:09:cd:46:e8:16:f1:a4:4d:
         ff:a3:fb:ce:b2:ad:67:9d:98:38:66:4b:7d:5e:6b:28:32:35:
         29:5f:fc:cc:4b:ed:14:e0:3f:a9:d0:62:4a:96:00:f9:ae:6b:
         af:ee:59:d5:d5:47:15:65:aa:8b:b7:15:4b:0d:8f:f6:87:fd:
         42:74:0a:c4:e7:84:ce:8b:a5:ef:85:62:b6:f1:cd:41:ca:d7:
         d0:ef:6c:ff:60:66:33:cc:05:6a:46:8c:23:d3:37:66:1e:21:
         fb:b1:67:9f:35:9d:b1:c1:80:f9:bb:a5:96:c7:56:2c:f0:d4:
         d2:6d:ac:13:bb:33:64:23:72:a3:82:77:89:f3:fd:36:88:52:
         e0:cd:0f:2c:a0:0d:7c:d8:4f:f3:b4:4e:a7:b4:30:59:8c:d1:
         36:f2:75:0a:3e:db:8d:51:e8:ba:8c:9c:87:1e:c5:c7:e2:d2:
         63:63:6f:22
-----BEGIN CERTIFICATE-----
MIIDrjCCApagAwIBAgIUULYNWp8eFoQeMdiT3YNBEpXyviwwDQYJKoZIhvcNAQEL
BQAwgYIxCzAJBgNVBAYTAlVTMRAwDgYDVQQIDAdNb250YW5hMRAwDgYDVQQHDAdC
b3plbWFuMRQwEgYDVQQLDAtFbmdpbmVlcmluZzEYMBYGA1UEAwwPd3d3Lm5vbWF0
Y2guY29tMR8wHQYJKoZIhvcNAQkBFhBpbmZvQHdvbGZzc2wuY29tMB4XDTIyMTIx
NjIxMTc1MFoXDTI1MDkxMTIxMTc1MFowgYIxCzAJBgNVBAYTAlVTMRAwDgYDVQQI
DAdNb250YW5hMRAwDgYDVQQHDAdCb3plbWFuMRQwEgYDVQQLDAtFbmdpbmVlcmlu
ZzEYMBYGA1UEAwwPd3d3Lm5vbWF0Y2guY29tMR8wHQYJKoZIhvcNAQkBFhBpbmZv
QHdvbGZzc2wuY29tMIIBIjANBgkqhkiG9w0BAQEFAAOCAQ8AMIIBCgKCAQEAwJUI
4VdB8nFtt9JFQScBZcZFrvK8JDC4lc4vTtb2HIi8fJ/7qGd//lycUXX3isoH5zUv
j+G9e8AvfKtkqBf8yl17uuAh5XIuby6G2JVz2qwbU7lfP9cZDSVP4WNjUYsLZD+t
Q7ilHFw0s64AoGPF9n8LWWh4c6aMGKkCba/DGQEuuBDjxsxAtGmjRjNph27Euxem
8+jdrXO8ey8htf1mUQy9VLPhbV8cvCNz0QkDiRTSELlkwyrQoZZKvOHUGlvHoMDB
Y3gPRDcwMpaAMiOVoXe6E9KXc+JdJclqDcM5YKS0sGlCQgnp2Ai8MyCzWCKnquvE
4eZhg8XSlt/Z0E+t1wIDAQABoxowGDAWBgNVHREEDzANggtsb2NhbGhvc3QAaDAN
BgkqhkiG9w0BAQsFAAOCAQEAMj51PTaXBFw43sHjbclehInrCnQNYKV3qGrXozgu
LCCbeY3BDcM++eJJUtV4y5M43QDZ4JAFeMyrJTe+xOkR3ZrypANPUD9YkHN1fgBA
3Z62CgnNRugW8aRN/6P7zrKtZ52YOGZLfV5rKDI1KV/8zEvtFOA/qdBiSpYA+a5r
r+5Z1dVHFWWqi7cVSw2P9of9QnQKxOeEzoul74VitvHNQcrX0O9s/2BmM8wFakaM
I9M3Zh4h+7FnnzWdscGA+bullsdWLPDU0m2sE7szZCNyo4J3ifP9NohS4M0PLKAN
fNhP87ROp7QwWYzRNvJ1Cj7bjVHouoychx7Fx+LSY2NvIg==
-----END CERTIFICATE-----
