Certificate:
    Data:
        Version: 3 (0x2)
        Serial Number:
            08:b1:99:a7:bd:5f:a6:05:3e:d4:fd:d3:1d:2a:6c:5d:d3:38:cc:a2
        Signature Algorithm: sha256WithRSAEncryption
        Issuer: C = US, ST = Montana, L = Bozeman, OU = Engineering, CN = DER:30:0d:82:0b:6c:6f:63:61:6c:68:6f:73:74:00:68, emailAddress = info@wolfssl.com
        Validity
            Not Before: Dec 16 21:17:50 2022 GMT
            Not After : Sep 11 21:17:50 2025 GMT
        Subject: C = US, ST = Montana, L = Bozeman, OU = Engineering, CN = DER:30:0d:82:0b:6c:6f:63:61:6c:68:6f:73:74:00:68, emailAddress = info@wolfssl.com
        Subject Public Key Info:
            Public Key Algorithm: rsaEncryption
                RSA Public-Key: (2048 bit)
                Modulus:
                    00:c0:95:08:e1:57:41:f2:71:6d:b7:d2:45:41:27:
                    01:65:c6:45:ae:f2:bc:24:30:b8:95:ce:2f:4e:d6:
                    f6:1c:88:bc:7c:9f:fb:a8:67:7f:fe:5c:9c:51:75:
                    f7:8a:ca:07:e7:35:2f:8f:e1:bd:7b:c0:2f:7c:ab:
                    64:a8:17:fc:ca:5d:7b:ba:e0:21:e5:72:2e:6f:2e:
                    86:d8:95:73:da:ac:1b:53:b9:5f:3f:d7:19:0d:25:
                    4f:e1:63:63:51:8b:0b:64:3f:ad:43:b8:a5:1c:5c:
                    34:b3:ae:00:a0:63:c5:f6:7f:0b:59:68:78:73:a6:
                    8c:18:a9:02:6d:af:c3:19:01:2e:b8:10:e3:c6:cc:
                    40:b4:69:a3:46:33:69:87:6e:c4:bb:17:a6:f3:e8:
                    dd:ad:73:bc:7b:2f:21:b5:fd:66:51:0c:bd:54:b3:
                    e1:6d:5f:1c:bc:23:73:d1:09:03:89:14:d2:10:b9:
                    64:c3:2a:d0:a1:96:4a:bc:e1:d4:1a:5b:c7:a0:c0:
                    c1:63:78:0f:44:37:30:32:96:80:32:23:95:a1:77:
                    ba:13:d2:97:73:e2:5d:25:c9:6a:0d:c3:39:60:a4:
                    b4:b0:69:42:42:09:e9:d8:08:bc:33:20:b3:58:22:
                    a7:aa:eb:c4:e1:e6:61:83:c5:d2:96:df:d9:d0:4f:
                    ad:d7
                Exponent: 65537 (0x10001)
    Signature Algorithm: sha256WithRSAEncryption
         85:40:69:33:07:7a:aa:3c:86:ff:5f:c5:29:d7:16:38:95:22:
         2a:5e:bd:c8:0c:aa:29:48:04:87:5b:18:0e:39:b0:bf:b9:01:
         48:01:45:81:03:52:81:b1:13:b1:81:af:d7:99:3e:5e:ed:0a:
         ac:22:77:3d:0f:22:e4:f6:08:9a:91:c3:ba:41:e2:d1:22:74:
         4c:04:d3:51:de:35:a5:f6:10:40:e6:50:2e:a6:bd:06:20:2c:
         27:90:1d:a5:b2:e5:87:b7:77:2c:0a:e2:08:f8:93:60:dc:a7:
         41:7f:dd:b7:d4:ed:0b:58:ea:ec:ad:c3:76:ab:12:30:41:6e:
         55:97:cb:fc:3a:15:f8:c8:79:f6:85:8d:47:28:e7:dd:a7:d6:
         64:b0:e5:f8:97:25:7c:37:f6:46:c4:bb:d6:fb:01:59:93:7c:
         7f:2d:e9:f4:16:79:2d:d3:25:51:11:88:4c:e4:fa:83:b7:20:
         48:dd:03:fb:e2:6e:4e:af:9d:b7:55:55:16:2c:15:76:c4:00:
         09:f0:58:c7:db:9d:66:b6:20:00:50:29:45:14:8b:d4:a4:63:
         c8:91:0d:0c:72:04:f6:fe:d4:37:87:3b:94:4e:89:c2:22:58:
         45:6e:fa:58:0e:e5:dc:89:6c:e9:8e:b0:09:c7:07:db:77:0c:
         b4:31:51:77
-----BEGIN CERTIFICATE-----
MIID1DCCArygAwIBAgIUCLGZp71fpgU+1P3THSpsXdM4zKIwDQYJKoZIhvcNAQEL
BQAwgaMxCzAJBgNVBAYTAlVTMRAwDgYDVQQIDAdNb250YW5hMRAwDgYDVQQHDAdC
b3plbWFuMRQwEgYDVQQLDAtFbmdpbmVlcmluZzE5MDcGA1UEAwwwREVSOjMwOjBk
OjgyOjBiOjZjOjZmOjYzOjYxOjZjOjY4OjZmOjczOjc0OjAwOjY4MR8wHQYJKoZI
hvcNAQkBFhBpbmZvQHdvbGZzc2wuY29tMB4XDTIyMTIxNjIxMTc1MFoXDTI1MDkx
MTIxMTc1MFowgaMxCzAJBgNVBAYTAlVTMRAwDgYDVQQIDAdNb250YW5hMRAwDgYD
VQQHDAdCb3plbWFuMRQwEgYDVQQLDAtFbmdpbmVlcmluZzE5MDcGA1UEAwwwREVS
OjMwOjBkOjgyOjBiOjZjOjZmOjYzOjYxOjZjOjY4OjZmOjczOjc0OjAwOjY4MR8w
HQYJKoZIhvcNAQkBFhBpbmZvQHdvbGZzc2wuY29tMIIBIjANBgkqhkiG9w0BAQEF
AAOCAQ8AMIIBCgKCAQEAwJUI4VdB8nFtt9JFQScBZcZFrvK8JDC4lc4vTtb2HIi8
fJ/7qGd//lycUXX3isoH5zUvj+G9e8AvfKtkqBf8yl17uuAh5XIuby6G2JVz2qwb
U7lfP9cZDSVP4WNjUYsLZD+tQ7ilHFw0s64AoGPF9n8LWWh4c6aMGKkCba/DGQEu
uBDjxsxAtGmjRjNph27Euxem8+jdrXO8ey8htf1mUQy9VLPhbV8cvCNz0QkDiRTS
ELlkwyrQoZZKvOHUGlvHoMDBY3gPRDcwMpaAMiOVoXe6E9KXc+JdJclqDcM5YKS0
sGlCQgnp2Ai8MyCzWCKnquvE4eZhg8XSlt/Z0E+t1wIDAQABMA0GCSqGSIb3DQEB
CwUAA4IBAQCFQGkzB3qqPIb/X8Up1xY4lSIqXr3IDKopSASHWxgOObC/uQFIAUWB
A1KBsROxga/XmT5e7QqsInc9DyLk9giakcO6QeLRInRMBNNR3jWl9hBA5lAupr0G
ICwnkB2lsuWHt3csCuII+JNg3KdBf9231O0LWOrsrcN2qxIwQW5Vl8v8OhX4yHn2
hY1HKOfdp9ZksOX4lyV8N/ZGxLvW+wFZk3x/Len0Fnkt0yVREYhM5PqDtyBI3QP7
4m5Or523VVUWLBV2xAAJ8FjH251mtiAAUClFFIvUpGPIkQ0McgT2/tQ3hzuUTonC
IlhFbvpYDuXciWzpjrAJxwfbdwy0MVF3
-----END CERTIFICATE-----
