Certificate:
    Data:
        Version: 3 (0x2)
        Serial Number:
            5f:49:44:09:72:71:cb:23:ae:86:03:8e:8c:8f:7f:54:4f:e8:ec:4e
        Signature Algorithm: sha256WithRSAEncryption
        Issuer: C = US, ST = Montana, L = Bozeman, OU = Engineering, CN = www.nomatch.com, emailAddress = info@wolfssl.com
        Validity
            Not Before: Dec 16 21:17:50 2022 GMT
            Not After : Sep 11 21:17:50 2025 GMT
        Subject: C = US, ST = Montana, L = Bozeman, OU = Engineering, CN = www.nomatch.com, emailAddress = info@wolfssl.com
        Subject Public Key Info:
            Public Key Algorithm: rsaEncryption
                RSA Public-Key: (2048 bit)
                Modulus:
                    00:c0:95:08:e1:57:41:f2:71:6d:b7:d2:45:41:27:
                    01:65:c6:45:ae:f2:bc:24:30:b8:95:ce:2f:4e:d6:
                    f6:1c:88:bc:7c:9f:fb:a8:67:7f:fe:5c:9c:51:75:
                    f7:8a:ca:07:e7:35:2f:8f:e1:bd:7b:c0:2f:7c:ab:
                    64:a8:17:fc:ca:5d:7b:ba:e0:21:e5:72:2e:6f:2e:
                    86:d8:95:73:da:ac:1b:53:b9:5f:3f:d7:19:0d:25:
                    4f:e1:63:63:51:8b:0b:64:3f:ad:43:b8:a5:1c:5c:
                    34:b3:ae:00:a0:63:c5:f6:7f:0b:59:68:78:73:a6:
                    8c:18:a9:02:6d:af:c3:19:01:2e:b8:10:e3:c6:cc:
                    40:b4:69:a3:46:33:69:87:6e:c4:bb:17:a6:f3:e8:
                    dd:ad:73:bc:7b:2f:21:b5:fd:66:51:0c:bd:54:b3:
                    e1:6d:5f:1c:bc:23:73:d1:09:03:89:14:d2:10:b9:
                    64:c3:2a:d0:a1:96:4a:bc:e1:d4:1a:5b:c7:a0:c0:
                    c1:63:78:0f:44:37:30:32:96:80:32:23:95:a1:77:
                    ba:13:d2:97:73:e2:5d:25:c9:6a:0d:c3:39:60:a4:
                    b4:b0:69:42:42:09:e9:d8:08:bc:33:20:b3:58:22:
                    a7:aa:eb:c4:e1:e6:61:83:c5:d2:96:df:d9:d0:4f:
                    ad:d7
                Exponent: 65537 (0x10001)
        X509v3 extensions:
            X509v3 Subject Alternative Name: 
                DNS:localhost
    Signature Algorithm: sha256WithRSAEncryption
         6d:c3:9c:73:21:47:6d:5f:da:84:1b:78:7b:47:9d:62:de:89:
         d0:95:4b:52:9a:ba:cf:a4:64:d5:cf:49:fd:a3:3a:32:df:c6:
         15:cc:9a:cc:7e:7d:2f:bb:6b:9e:d4:15:ad:95:ec:ee:c4:ca:
         a3:72:c3:e5:21:49:c7:40:56:dd:0e:76:65:9a:fe:a9:00:c2:
         5f:b7:91:04:90:17:05:b6:79:e1:b0:07:bc:25:4b:8d:c0:b8:
         65:08:75:c4:c2:e3:48:54:a9:1b:0d:fd:17:6e:f7:b1:f0:ec:
         4e:fe:43:01:9c:28:34:8c:d2:dd:b1:7f:f3:47:24:fd:13:ee:
         87:05:96:4f:11:7c:3c:af:a0:72:02:73:04:8e:e4:6e:f6:da:
         0c:41:c7:b8:6c:15:4c:53:b1:6c:a9:79:9c:e5:5f:c2:0d:08:
         50:e8:17:a7:dd:ab:10:a7:c5:88:78:dc:a1:ee:f0:ed:13:68:
         ab:53:56:7c:2f:b5:e5:b4:0f:65:ce:d6:2c:f8:44:bf:88:f5:
         c8:4a:c9:7f:fb:9b:73:ca:cf:da:f8:e0:1c:01:7c:c4:b7:3e:
         8b:2e:7a:fa:50:ef:01:eb:9a:0f:11:f9:18:94:e2:f8:28:f2:
         50:2e:f3:14:ab:3a:3a:1f:24:ef:d2:bc:2d:42:84:42:38:3b:
         33:d8:8b:1f
-----BEGIN CERTIFICATE-----
MIIDrDCCApSgAwIBAgIUX0lECXJxyyOuhgOOjI9/VE/o7E4wDQYJKoZIhvcNAQEL
BQAwgYIxCzAJBgNVBAYTAlVTMRAwDgYDVQQIDAdNb250YW5hMRAwDgYDVQQHDAdC
b3plbWFuMRQwEgYDVQQLDAtFbmdpbmVlcmluZzEYMBYGA1UEAwwPd3d3Lm5vbWF0
Y2guY29tMR8wHQYJKoZIhvcNAQkBFhBpbmZvQHdvbGZzc2wuY29tMB4XDTIyMTIx
NjIxMTc1MFoXDTI1MDkxMTIxMTc1MFowgYIxCzAJBgNVBAYTAlVTMRAwDgYDVQQI
DAdNb250YW5hMRAwDgYDVQQHDAdCb3plbWFuMRQwEgYDVQQLDAtFbmdpbmVlcmlu
ZzEYMBYGA1UEAwwPd3d3Lm5vbWF0Y2guY29tMR8wHQYJKoZIhvcNAQkBFhBpbmZv
QHdvbGZzc2wuY29tMIIBIjANBgkqhkiG9w0BAQEFAAOCAQ8AMIIBCgKCAQEAwJUI
4VdB8nFtt9JFQScBZcZFrvK8JDC4lc4vTtb2HIi8fJ/7qGd//lycUXX3isoH5zUv
j+G9e8AvfKtkqBf8yl17uuAh5XIuby6G2JVz2qwbU7lfP9cZDSVP4WNjUYsLZD+t
Q7ilHFw0s64AoGPF9n8LWWh4c6aMGKkCba/DGQEuuBDjxsxAtGmjRjNph27Euxem
8+jdrXO8ey8htf1mUQy9VLPhbV8cvCNz0QkDiRTSELlkwyrQoZZKvOHUGlvHoMDB
Y3gPRDcwMpaAMiOVoXe6E9KXc+JdJclqDcM5YKS0sGlCQgnp2Ai8MyCzWCKnquvE
4eZhg8XSlt/Z0E+t1wIDAQABoxgwFjAUBgNVHREEDTALgglsb2NhbGhvc3QwDQYJ
KoZIhvcNAQELBQADggEBAG3DnHMhR21f2oQbeHtHnWLeidCVS1Kaus+kZNXPSf2j
OjLfxhXMmsx+fS+7a57UFa2V7O7EyqNyw+UhScdAVt0OdmWa/qkAwl+3kQSQFwW2
eeGwB7wlS43AuGUIdcTC40hUqRsN/Rdu97Hw7E7+QwGcKDSM0t2xf/NHJP0T7ocF
lk8RfDyvoHICcwSO5G722gxBx7hsFUxTsWypeZzlX8INCFDoF6fdqxCnxYh43KHu
8O0TaKtTVnwvteW0D2XO1iz4RL+I9chKyX/7m3PKz9r44BwBfMS3PosuevpQ7wHr
mg8R+RiU4vgo8lAu8xSrOjofJO/SvC1ChEI4OzPYix8=
-----END CERTIFICATE-----
