Certificate:
    Data:
        Version: 3 (0x2)
        Serial Number:
            56:d8:ee:2d:0e:b3:67:82:6b:9b:76:c3:6c:c0:4d:3e:de:a4:82:4c
        Signature Algorithm: sha256WithRSAEncryption
        Issuer: C = US, ST = Montana, L = Bozeman, OU = Engineering, CN = localhost, emailAddress = info@wolfssl.com
        Validity
            Not Before: Dec 16 21:17:50 2022 GMT
            Not After : Sep 11 21:17:50 2025 GMT
        Subject: C = US, ST = Montana, L = Bozeman, OU = Engineering, CN = localhost, emailAddress = info@wolfssl.com
        Subject Public Key Info:
            Public Key Algorithm: rsaEncryption
                RSA Public-Key: (2048 bit)
                Modulus:
                    00:c0:95:08:e1:57:41:f2:71:6d:b7:d2:45:41:27:
                    01:65:c6:45:ae:f2:bc:24:30:b8:95:ce:2f:4e:d6:
                    f6:1c:88:bc:7c:9f:fb:a8:67:7f:fe:5c:9c:51:75:
                    f7:8a:ca:07:e7:35:2f:8f:e1:bd:7b:c0:2f:7c:ab:
                    64:a8:17:fc:ca:5d:7b:ba:e0:21:e5:72:2e:6f:2e:
                    86:d8:95:73:da:ac:1b:53:b9:5f:3f:d7:19:0d:25:
                    4f:e1:63:63:51:8b:0b:64:3f:ad:43:b8:a5:1c:5c:
                    34:b3:ae:00:a0:63:c5:f6:7f:0b:59:68:78:73:a6:
                    8c:18:a9:02:6d:af:c3:19:01:2e:b8:10:e3:c6:cc:
                    40:b4:69:a3:46:33:69:87:6e:c4:bb:17:a6:f3:e8:
                    dd:ad:73:bc:7b:2f:21:b5:fd:66:51:0c:bd:54:b3:
                    e1:6d:5f:1c:bc:23:73:d1:09:03:89:14:d2:10:b9:
                    64:c3:2a:d0:a1:96:4a:bc:e1:d4:1a:5b:c7:a0:c0:
                    c1:63:78:0f:44:37:30:32:96:80:32:23:95:a1:77:
                    ba:13:d2:97:73:e2:5d:25:c9:6a:0d:c3:39:60:a4:
                    b4:b0:69:42:42:09:e9:d8:08:bc:33:20:b3:58:22:
                    a7:aa:eb:c4:e1:e6:61:83:c5:d2:96:df:d9:d0:4f:
                    ad:d7
                Exponent: 65537 (0x10001)
        X509v3 extensions:
            X509v3 Subject Alternative Name: 
                DNS:garbage
    Signature Algorithm: sha256WithRSAEncryption
         81:bc:29:f9:85:0f:21:3e:c1:bf:a5:90:25:d0:34:ed:82:0f:
         d0:dc:c0:4c:2e:b7:09:bd:61:0e:5f:e7:35:b0:30:ca:4b:62:
         04:e8:ea:9e:0d:70:7a:d2:7b:d8:f7:69:bc:f0:4a:7b:fc:84:
         2e:1f:ef:27:c6:22:f7:ea:6a:03:7f:0b:e9:23:44:41:23:53:
         e8:db:8f:1c:c6:03:d8:0c:95:71:a5:56:a5:14:0d:0c:d2:9e:
         4f:51:81:60:89:f8:d2:88:1e:d8:08:27:64:a3:25:b8:38:eb:
         5a:8c:9f:7c:00:d5:84:26:f8:3d:4a:f1:be:b8:74:9b:8d:63:
         f5:59:48:15:aa:b7:aa:c2:5c:ac:f0:f1:98:1f:7d:63:23:52:
         14:fd:03:c2:0d:17:4d:c0:73:e4:a8:2d:cc:0a:cd:17:2d:72:
         8c:c1:f0:ff:2e:b3:8e:95:38:3e:06:be:dd:10:77:8b:70:5d:
         0f:c5:80:72:ff:a5:f7:2d:9c:e8:06:b3:9c:19:37:3f:ef:11:
         ed:30:5c:13:0d:49:14:fe:3e:40:e7:b0:49:ac:39:f6:19:3f:
         c5:b7:77:02:3e:2f:0c:d2:40:8f:1a:0f:95:63:0e:34:af:20:
         c8:32:e2:76:b4:a8:ef:f0:8d:bf:99:97:6a:e4:d8:f8:96:0a:
         cf:7a:07:8f
-----BEGIN CERTIFICATE-----
MIIDnDCCAoSgAwIBAgIUVtjuLQ6zZ4Jrm3bDbMBNPt6kgkwwDQYJKoZIhvcNAQEL
BQAwfDELMAkGA1UEBhMCVVMxEDAOBgNVBAgMB01vbnRhbmExEDAOBgNVBAcMB0Jv
emVtYW4xFDASBgNVBAsMC0VuZ2luZWVyaW5nMRIwEAYDVQQDDAlsb2NhbGhvc3Qx
HzAdBgkqhkiG9w0BCQEWEGluZm9Ad29sZnNzbC5jb20wHhcNMjIxMjE2MjExNzUw
WhcNMjUwOTExMjExNzUwWjB8MQswCQYDVQQGEwJVUzEQMA4GA1UECAwHTW9udGFu
YTEQMA4GA1UEBwwHQm96ZW1hbjEUMBIGA1UECwwLRW5naW5lZXJpbmcxEjAQBgNV
BAMMCWxvY2FsaG9zdDEfMB0GCSqGSIb3DQEJARYQaW5mb0B3b2xmc3NsLmNvbTCC
ASIwDQYJKoZIhvcNAQEBBQADggEPADCCAQoCggEBAMCVCOFXQfJxbbfSRUEnAWXG
Ra7yvCQwuJXOL07W9hyIvHyf+6hnf/5cnFF194rKB+c1L4/hvXvAL3yrZKgX/Mpd
e7rgIeVyLm8uhtiVc9qsG1O5Xz/XGQ0lT+FjY1GLC2Q/rUO4pRxcNLOuAKBjxfZ/
C1loeHOmjBipAm2vwxkBLrgQ48bMQLRpo0YzaYduxLsXpvPo3a1zvHsvIbX9ZlEM
vVSz4W1fHLwjc9EJA4kU0hC5ZMMq0KGWSrzh1Bpbx6DAwWN4D0Q3MDKWgDIjlaF3
uhPSl3PiXSXJag3DOWCktLBpQkIJ6dgIvDMgs1gip6rrxOHmYYPF0pbf2dBPrdcC
AwEAAaMWMBQwEgYDVR0RBAswCYIHZ2FyYmFnZTANBgkqhkiG9w0BAQsFAAOCAQEA
gbwp+YUPIT7Bv6WQJdA07YIP0NzATC63Cb1hDl/nNbAwyktiBOjqng1wetJ72Pdp
vPBKe/yELh/vJ8Yi9+pqA38L6SNEQSNT6NuPHMYD2AyVcaVWpRQNDNKeT1GBYIn4
0oge2AgnZKMluDjrWoyffADVhCb4PUrxvrh0m41j9VlIFaq3qsJcrPDxmB99YyNS
FP0Dwg0XTcBz5KgtzArNFy1yjMHw/y6zjpU4Pga+3RB3i3BdD8WAcv+l9y2c6Aaz
nBk3P+8R7TBcEw1JFP4+QOewSaw59hk/xbd3Aj4vDNJAjxoPlWMONK8gyDLidrSo
7/CNv5mXauTY+JYKz3oHjw==
-----END CERTIFICATE-----
