Certificate:
    Data:
        Version: 3 (0x2)
        Serial Number:
            78:39:82:cc:18:26:21:f2:cf:fb:d3:8a:07:ff:c4:eb:ea:82:c6:26
        Signature Algorithm: sha256WithRSAEncryption
        Issuer: C = US, ST = Montana, L = Bozeman, OU = Engineering, CN = *localhost, emailAddress = info@wolfssl.com
        Validity
            Not Before: Dec 16 21:17:50 2022 GMT
            Not After : Sep 11 21:17:50 2025 GMT
        Subject: C = US, ST = Montana, L = Bozeman, OU = Engineering, CN = *localhost, emailAddress = info@wolfssl.com
        Subject Public Key Info:
            Public Key Algorithm: rsaEncryption
                RSA Public-Key: (2048 bit)
                Modulus:
                    00:c0:95:08:e1:57:41:f2:71:6d:b7:d2:45:41:27:
                    01:65:c6:45:ae:f2:bc:24:30:b8:95:ce:2f:4e:d6:
                    f6:1c:88:bc:7c:9f:fb:a8:67:7f:fe:5c:9c:51:75:
                    f7:8a:ca:07:e7:35:2f:8f:e1:bd:7b:c0:2f:7c:ab:
                    64:a8:17:fc:ca:5d:7b:ba:e0:21:e5:72:2e:6f:2e:
                    86:d8:95:73:da:ac:1b:53:b9:5f:3f:d7:19:0d:25:
                    4f:e1:63:63:51:8b:0b:64:3f:ad:43:b8:a5:1c:5c:
                    34:b3:ae:00:a0:63:c5:f6:7f:0b:59:68:78:73:a6:
                    8c:18:a9:02:6d:af:c3:19:01:2e:b8:10:e3:c6:cc:
                    40:b4:69:a3:46:33:69:87:6e:c4:bb:17:a6:f3:e8:
                    dd:ad:73:bc:7b:2f:21:b5:fd:66:51:0c:bd:54:b3:
                    e1:6d:5f:1c:bc:23:73:d1:09:03:89:14:d2:10:b9:
                    64:c3:2a:d0:a1:96:4a:bc:e1:d4:1a:5b:c7:a0:c0:
                    c1:63:78:0f:44:37:30:32:96:80:32:23:95:a1:77:
                    ba:13:d2:97:73:e2:5d:25:c9:6a:0d:c3:39:60:a4:
                    b4:b0:69:42:42:09:e9:d8:08:bc:33:20:b3:58:22:
                    a7:aa:eb:c4:e1:e6:61:83:c5:d2:96:df:d9:d0:4f:
                    ad:d7
                Exponent: 65537 (0x10001)
    Signature Algorithm: sha256WithRSAEncryption
         99:97:4e:83:6a:1e:c6:54:31:bb:b1:83:36:14:1c:00:25:59:
         c9:e9:c0:51:c0:70:d8:3a:de:79:5e:af:04:48:61:8b:ea:7c:
         75:e4:a3:c5:62:26:a3:70:9d:26:3d:47:60:ca:a0:96:e8:82:
         a6:81:c7:77:48:aa:20:b0:be:cc:ef:5a:80:29:6a:2e:37:6e:
         37:b5:d2:f6:fd:f6:c2:fb:87:9f:4a:2f:16:1b:01:f1:33:0c:
         b3:75:30:09:98:fc:1f:73:01:83:02:22:b4:0a:3d:07:e4:55:
         c6:17:f6:98:c3:9b:38:9e:41:a1:cc:26:51:a8:07:4d:37:b8:
         93:41:ac:45:ae:ff:77:39:dc:48:1e:56:56:59:98:6e:93:fb:
         76:38:02:bf:24:2f:03:08:a4:92:21:15:df:23:d4:c4:14:1b:
         20:46:f7:04:eb:dc:1a:02:aa:b1:11:ea:29:3b:ca:5e:27:c1:
         28:0a:bf:7c:b6:dc:16:8b:5e:30:8d:72:5b:c6:d2:71:b6:c4:
         5e:e0:7a:a6:fc:06:2d:6a:78:56:b8:49:35:7b:14:e9:d1:3d:
         c3:06:be:3f:1c:dc:67:e9:11:5f:46:71:06:66:09:fa:df:c1:
         05:60:73:a8:27:f2:cd:48:48:dc:bf:92:02:82:90:d9:d1:51:
         49:44:01:67
-----BEGIN CERTIFICATE-----
MIIDhjCCAm6gAwIBAgIUeDmCzBgmIfLP+9OKB//E6+qCxiYwDQYJKoZIhvcNAQEL
BQAwfTELMAkGA1UEBhMCVVMxEDAOBgNVBAgMB01vbnRhbmExEDAOBgNVBAcMB0Jv
emVtYW4xFDASBgNVBAsMC0VuZ2luZWVyaW5nMRMwEQYDVQQDDAoqbG9jYWxob3N0
MR8wHQYJKoZIhvcNAQkBFhBpbmZvQHdvbGZzc2wuY29tMB4XDTIyMTIxNjIxMTc1
MFoXDTI1MDkxMTIxMTc1MFowfTELMAkGA1UEBhMCVVMxEDAOBgNVBAgMB01vbnRh
bmExEDAOBgNVBAcMB0JvemVtYW4xFDASBgNVBAsMC0VuZ2luZWVyaW5nMRMwEQYD
VQQDDAoqbG9jYWxob3N0MR8wHQYJKoZIhvcNAQkBFhBpbmZvQHdvbGZzc2wuY29t
MIIBIjANBgkqhkiG9w0BAQEFAAOCAQ8AMIIBCgKCAQEAwJUI4VdB8nFtt9JFQScB
ZcZFrvK8JDC4lc4vTtb2HIi8fJ/7qGd//lycUXX3isoH5zUvj+G9e8AvfKtkqBf8
yl17uuAh5XIuby6G2JVz2qwbU7lfP9cZDSVP4WNjUYsLZD+tQ7ilHFw0s64AoGPF
9n8LWWh4c6aMGKkCba/DGQEuuBDjxsxAtGmjRjNph27Euxem8+jdrXO8ey8htf1m
UQy9VLPhbV8cvCNz0QkDiRTSELlkwyrQoZZKvOHUGlvHoMDBY3gPRDcwMpaAMiOV
oXe6E9KXc+JdJclqDcM5YKS0sGlCQgnp2Ai8MyCzWCKnquvE4eZhg8XSlt/Z0E+t
1wIDAQABMA0GCSqGSIb3DQEBCwUAA4IBAQCZl06Dah7GVDG7sYM2FBwAJVnJ6cBR
wHDYOt55Xq8ESGGL6nx15KPFYiajcJ0mPUdgyqCW6IKmgcd3SKogsL7M71qAKWou
N243tdL2/fbC+4efSi8WGwHxMwyzdTAJmPwfcwGDAiK0Cj0H5FXGF/aYw5s4nkGh
zCZRqAdNN7iTQaxFrv93OdxIHlZWWZhuk/t2OAK/JC8DCKSSIRXfI9TEFBsgRvcE
69waAqqxEeopO8peJ8EoCr98ttwWi14wjXJbxtJxtsRe4Hqm/AYtanhWuEk1exTp
0T3DBr4/HNxn6RFfRnEGZgn638EFYHOoJ/LNSEjcv5ICgpDZ0VFJRAFn
-----END CERTIFICATE-----
