Certificate:
    Data:
        Version: 3 (0x2)
        Serial Number:
            3a:e3:92:48:82:fb:ed:f5:cb:d2:93:c5:5a:df:71:c2:ef:6b:43:50
        Signature Algorithm: sha256WithRSAEncryption
        Issuer: C = US, ST = Montana, L = Bozeman, OU = Engineering, CN = www.nomatch.com, emailAddress = info@wolfssl.com
        Validity
            Not Before: Dec 16 21:17:50 2022 GMT
            Not After : Sep 11 21:17:50 2025 GMT
        Subject: C = US, ST = Montana, L = Bozeman, OU = Engineering, CN = www.nomatch.com, emailAddress = info@wolfssl.com
        Subject Public Key Info:
            Public Key Algorithm: rsaEncryption
                RSA Public-Key: (2048 bit)
                Modulus:
                    00:c0:95:08:e1:57:41:f2:71:6d:b7:d2:45:41:27:
                    01:65:c6:45:ae:f2:bc:24:30:b8:95:ce:2f:4e:d6:
                    f6:1c:88:bc:7c:9f:fb:a8:67:7f:fe:5c:9c:51:75:
                    f7:8a:ca:07:e7:35:2f:8f:e1:bd:7b:c0:2f:7c:ab:
                    64:a8:17:fc:ca:5d:7b:ba:e0:21:e5:72:2e:6f:2e:
                    86:d8:95:73:da:ac:1b:53:b9:5f:3f:d7:19:0d:25:
                    4f:e1:63:63:51:8b:0b:64:3f:ad:43:b8:a5:1c:5c:
                    34:b3:ae:00:a0:63:c5:f6:7f:0b:59:68:78:73:a6:
                    8c:18:a9:02:6d:af:c3:19:01:2e:b8:10:e3:c6:cc:
                    40:b4:69:a3:46:33:69:87:6e:c4:bb:17:a6:f3:e8:
                    dd:ad:73:bc:7b:2f:21:b5:fd:66:51:0c:bd:54:b3:
                    e1:6d:5f:1c:bc:23:73:d1:09:03:89:14:d2:10:b9:
                    64:c3:2a:d0:a1:96:4a:bc:e1:d4:1a:5b:c7:a0:c0:
                    c1:63:78:0f:44:37:30:32:96:80:32:23:95:a1:77:
                    ba:13:d2:97:73:e2:5d:25:c9:6a:0d:c3:39:60:a4:
                    b4:b0:69:42:42:09:e9:d8:08:bc:33:20:b3:58:22:
                    a7:aa:eb:c4:e1:e6:61:83:c5:d2:96:df:d9:d0:4f:
                    ad:d7
                Exponent: 65537 (0x10001)
        X509v3 extensions:
            X509v3 Subject Alternative Name: 
                DNS:www.nomatch.com
    Signature Algorithm: sha256WithRSAEncryption
         6d:17:67:be:f8:34:a2:62:0f:87:97:df:7b:62:cc:f9:7c:62:
         dd:01:ca:a6:a9:9d:02:7d:d2:fb:db:01:37:a8:cc:0e:01:a4:
         e9:a2:cb:29:00:cd:cb:f3:ab:99:db:bc:0d:c1:2d:78:99:15:
         b8:55:f0:08:f4:2d:3d:4c:38:47:a7:72:1d:96:77:7f:1b:55:
         8f:37:d3:9e:55:cc:fe:09:56:6b:38:65:3b:c7:ca:0a:d8:06:
         1b:ae:ad:03:4c:e8:67:59:ff:42:5a:45:00:f8:1c:51:6e:c6:
         64:af:16:94:13:eb:5b:33:5e:9e:7c:60:ac:4b:8d:c3:3c:6c:
         a8:1e:8d:e2:0a:23:4e:fa:e7:df:a3:a0:03:c0:29:1f:2e:ff:
         2f:fc:d5:37:28:a0:55:58:60:9c:1f:ec:b5:b5:9b:51:44:a3:
         f0:05:39:66:9d:29:13:49:6e:e8:76:c4:69:ce:69:85:20:1d:
         3c:51:eb:26:ab:02:8d:e2:99:1b:9e:83:ec:23:27:87:8b:f2:
         f1:96:28:bc:6b:2c:f1:19:6e:c3:0c:a9:4e:02:7b:c1:37:3e:
         7c:6a:bf:9e:ff:76:7f:39:0f:64:f4:25:db:24:d4:0c:0a:0d:
         e8:b4:6a:81:02:0d:71:b6:36:89:15:c4:6c:fb:18:0e:4d:92:
         1e:53:d0:d8
-----BEGIN CERTIFICATE-----
MIIDsjCCApqgAwIBAgIUOuOSSIL77fXL0pPFWt9xwu9rQ1AwDQYJKoZIhvcNAQEL
BQAwgYIxCzAJBgNVBAYTAlVTMRAwDgYDVQQIDAdNb250YW5hMRAwDgYDVQQHDAdC
b3plbWFuMRQwEgYDVQQLDAtFbmdpbmVlcmluZzEYMBYGA1UEAwwPd3d3Lm5vbWF0
Y2guY29tMR8wHQYJKoZIhvcNAQkBFhBpbmZvQHdvbGZzc2wuY29tMB4XDTIyMTIx
NjIxMTc1MFoXDTI1MDkxMTIxMTc1MFowgYIxCzAJBgNVBAYTAlVTMRAwDgYDVQQI
DAdNb250YW5hMRAwDgYDVQQHDAdCb3plbWFuMRQwEgYDVQQLDAtFbmdpbmVlcmlu
ZzEYMBYGA1UEAwwPd3d3Lm5vbWF0Y2guY29tMR8wHQYJKoZIhvcNAQkBFhBpbmZv
QHdvbGZzc2wuY29tMIIBIjANBgkqhkiG9w0BAQEFAAOCAQ8AMIIBCgKCAQEAwJUI
4VdB8nFtt9JFQScBZcZFrvK8JDC4lc4vTtb2HIi8fJ/7qGd//lycUXX3isoH5zUv
j+G9e8AvfKtkqBf8yl17uuAh5XIuby6G2JVz2qwbU7lfP9cZDSVP4WNjUYsLZD+t
Q7ilHFw0s64AoGPF9n8LWWh4c6aMGKkCba/DGQEuuBDjxsxAtGmjRjNph27Euxem
8+jdrXO8ey8htf1mUQy9VLPhbV8cvCNz0QkDiRTSELlkwyrQoZZKvOHUGlvHoMDB
Y3gPRDcwMpaAMiOVoXe6E9KXc+JdJclqDcM5YKS0sGlCQgnp2Ai8MyCzWCKnquvE
4eZhg8XSlt/Z0E+t1wIDAQABox4wHDAaBgNVHREEEzARgg93d3cubm9tYXRjaC5j
b20wDQYJKoZIhvcNAQELBQADggEBAG0XZ774NKJiD4eX33tizPl8Yt0ByqapnQJ9
0vvbATeozA4BpOmiyykAzcvzq5nbvA3BLXiZFbhV8Aj0LT1MOEench2Wd38bVY83
055VzP4JVms4ZTvHygrYBhuurQNM6GdZ/0JaRQD4HFFuxmSvFpQT61szXp58YKxL
jcM8bKgejeIKI07659+joAPAKR8u/y/81TcooFVYYJwf7LW1m1FEo/AFOWadKRNJ
buh2xGnOaYUgHTxR6yarAo3imRueg+wjJ4eL8vGWKLxrLPEZbsMMqU4Ce8E3Pnxq
v57/dn85D2T0Jdsk1AwKDei0aoECDXG2NokVxGz7GA5Nkh5T0Ng=
-----END CERTIFICATE-----
