Certificate:
    Data:
        Version: 3 (0x2)
        Serial Number:
            79:e6:1d:85:f5:44:69:d4:f4:7c:4a:eb:62:26:d2:ac:1c:be:8a:b2
        Signature Algorithm: sha256WithRSAEncryption
        Issuer: C = US, ST = Montana, L = Bozeman, OU = Engineering, CN = www.nomatch.com, emailAddress = info@wolfssl.com
        Validity
            Not Before: Dec 16 21:17:50 2022 GMT
            Not After : Sep 11 21:17:50 2025 GMT
        Subject: C = US, ST = Montana, L = Bozeman, OU = Engineering, CN = www.nomatch.com, emailAddress = info@wolfssl.com
        Subject Public Key Info:
            Public Key Algorithm: rsaEncryption
                RSA Public-Key: (2048 bit)
                Modulus:
                    00:c0:95:08:e1:57:41:f2:71:6d:b7:d2:45:41:27:
                    01:65:c6:45:ae:f2:bc:24:30:b8:95:ce:2f:4e:d6:
                    f6:1c:88:bc:7c:9f:fb:a8:67:7f:fe:5c:9c:51:75:
                    f7:8a:ca:07:e7:35:2f:8f:e1:bd:7b:c0:2f:7c:ab:
                    64:a8:17:fc:ca:5d:7b:ba:e0:21:e5:72:2e:6f:2e:
                    86:d8:95:73:da:ac:1b:53:b9:5f:3f:d7:19:0d:25:
                    4f:e1:63:63:51:8b:0b:64:3f:ad:43:b8:a5:1c:5c:
                    34:b3:ae:00:a0:63:c5:f6:7f:0b:59:68:78:73:a6:
                    8c:18:a9:02:6d:af:c3:19:01:2e:b8:10:e3:c6:cc:
                    40:b4:69:a3:46:33:69:87:6e:c4:bb:17:a6:f3:e8:
                    dd:ad:73:bc:7b:2f:21:b5:fd:66:51:0c:bd:54:b3:
                    e1:6d:5f:1c:bc:23:73:d1:09:03:89:14:d2:10:b9:
                    64:c3:2a:d0:a1:96:4a:bc:e1:d4:1a:5b:c7:a0:c0:
                    c1:63:78:0f:44:37:30:32:96:80:32:23:95:a1:77:
                    ba:13:d2:97:73:e2:5d:25:c9:6a:0d:c3:39:60:a4:
                    b4:b0:69:42:42:09:e9:d8:08:bc:33:20:b3:58:22:
                    a7:aa:eb:c4:e1:e6:61:83:c5:d2:96:df:d9:d0:4f:
                    ad:d7
                Exponent: 65537 (0x10001)
    Signature Algorithm: sha256WithRSAEncryption
         b4:5d:5d:51:69:22:95:b3:61:d5:91:84:32:88:eb:6c:5a:43:
         e7:8c:94:58:69:07:ea:c1:f2:4e:c4:23:be:c4:8b:13:ed:07:
         5e:e9:a1:6f:a7:f8:13:d6:8b:c9:87:01:38:74:5b:47:d1:96:
         35:a7:0a:c6:c7:4f:2a:44:a1:6d:c9:58:30:a5:9b:df:cc:55:
         e0:a6:50:1f:36:89:58:57:6d:eb:b9:94:4f:0b:eb:c4:ed:2c:
         21:26:b5:c3:eb:f7:07:c6:59:5f:51:2b:14:77:a6:22:17:cd:
         25:55:d6:e6:d4:a1:47:44:98:86:c5:86:f8:8a:ae:67:ae:12:
         89:36:16:fd:a0:66:f9:25:45:eb:08:b3:e7:6c:b9:d1:46:d0:
         8f:41:bf:96:37:cb:24:16:fb:2f:2e:79:1d:f3:b5:d3:da:85:
         da:7c:e3:ea:d3:a9:7e:b3:6a:ad:c8:3a:65:54:b2:77:55:5a:
         65:d4:40:cf:30:07:28:7a:3b:2c:f9:10:99:a3:5e:d8:70:f9:
         ae:87:a7:ae:1a:cd:1f:cc:10:2e:44:6f:6a:f7:60:c4:e7:a0:
         53:16:47:42:ca:fc:1e:fc:be:d0:60:07:52:87:89:a8:b5:7a:
         17:81:3a:8f:81:78:36:a9:f3:9e:4b:00:1a:48:62:27:6c:65:
         db:a1:10:10
-----BEGIN CERTIFICATE-----
MIIDkjCCAnqgAwIBAgIUeeYdhfVEadT0fErrYibSrBy+irIwDQYJKoZIhvcNAQEL
BQAwgYIxCzAJBgNVBAYTAlVTMRAwDgYDVQQIDAdNb250YW5hMRAwDgYDVQQHDAdC
b3plbWFuMRQwEgYDVQQLDAtFbmdpbmVlcmluZzEYMBYGA1UEAwwPd3d3Lm5vbWF0
Y2guY29tMR8wHQYJKoZIhvcNAQkBFhBpbmZvQHdvbGZzc2wuY29tMB4XDTIyMTIx
NjIxMTc1MFoXDTI1MDkxMTIxMTc1MFowgYIxCzAJBgNVBAYTAlVTMRAwDgYDVQQI
DAdNb250YW5hMRAwDgYDVQQHDAdCb3plbWFuMRQwEgYDVQQLDAtFbmdpbmVlcmlu
ZzEYMBYGA1UEAwwPd3d3Lm5vbWF0Y2guY29tMR8wHQYJKoZIhvcNAQkBFhBpbmZv
QHdvbGZzc2wuY29tMIIBIjANBgkqhkiG9w0BAQEFAAOCAQ8AMIIBCgKCAQEAwJUI
4VdB8nFtt9JFQScBZcZFrvK8JDC4lc4vTtb2HIi8fJ/7qGd//lycUXX3isoH5zUv
j+G9e8AvfKtkqBf8yl17uuAh5XIuby6G2JVz2qwbU7lfP9cZDSVP4WNjUYsLZD+t
Q7ilHFw0s64AoGPF9n8LWWh4c6aMGKkCba/DGQEuuBDjxsxAtGmjRjNph27Euxem
8+jdrXO8ey8htf1mUQy9VLPhbV8cvCNz0QkDiRTSELlkwyrQoZZKvOHUGlvHoMDB
Y3gPRDcwMpaAMiOVoXe6E9KXc+JdJclqDcM5YKS0sGlCQgnp2Ai8MyCzWCKnquvE
4eZhg8XSlt/Z0E+t1wIDAQABMA0GCSqGSIb3DQEBCwUAA4IBAQC0XV1RaSKVs2HV
kYQyiOtsWkPnjJRYaQfqwfJOxCO+xIsT7Qde6aFvp/gT1ovJhwE4dFtH0ZY1pwrG
x08qRKFtyVgwpZvfzFXgplAfNolYV23ruZRPC+vE7SwhJrXD6/cHxllfUSsUd6Yi
F80lVdbm1KFHRJiGxYb4iq5nrhKJNhb9oGb5JUXrCLPnbLnRRtCPQb+WN8skFvsv
Lnkd87XT2oXafOPq06l+s2qtyDplVLJ3VVpl1EDPMAcoejss+RCZo17YcPmuh6eu
Gs0fzBAuRG9q92DE56BTFkdCyvwe/L7QYAdSh4motXoXgTqPgXg2qfOeSwAaSGIn
bGXboRAQ
-----END CERTIFICATE-----
