Certificate:
    Data:
        Version: 3 (0x2)
        Serial Number:
            56:aa:0b:f0:d8:fd:0f:4a:4c:e0:99:85:fe:c1:9b:75:24:fb:01:b6
        Signature Algorithm: sha256WithRSAEncryption
        Issuer: C = US, ST = Montana, L = Bozeman, OU = Engineering, CN = localhost, emailAddress = info@wolfssl.com
        Validity
            Not Before: Dec 16 21:17:50 2022 GMT
            Not After : Sep 11 21:17:50 2025 GMT
        Subject: C = US, ST = Montana, L = Bozeman, OU = Engineering, CN = localhost, emailAddress = info@wolfssl.com
        Subject Public Key Info:
            Public Key Algorithm: rsaEncryption
                RSA Public-Key: (2048 bit)
                Modulus:
                    00:c0:95:08:e1:57:41:f2:71:6d:b7:d2:45:41:27:
                    01:65:c6:45:ae:f2:bc:24:30:b8:95:ce:2f:4e:d6:
                    f6:1c:88:bc:7c:9f:fb:a8:67:7f:fe:5c:9c:51:75:
                    f7:8a:ca:07:e7:35:2f:8f:e1:bd:7b:c0:2f:7c:ab:
                    64:a8:17:fc:ca:5d:7b:ba:e0:21:e5:72:2e:6f:2e:
                    86:d8:95:73:da:ac:1b:53:b9:5f:3f:d7:19:0d:25:
                    4f:e1:63:63:51:8b:0b:64:3f:ad:43:b8:a5:1c:5c:
                    34:b3:ae:00:a0:63:c5:f6:7f:0b:59:68:78:73:a6:
                    8c:18:a9:02:6d:af:c3:19:01:2e:b8:10:e3:c6:cc:
                    40:b4:69:a3:46:33:69:87:6e:c4:bb:17:a6:f3:e8:
                    dd:ad:73:bc:7b:2f:21:b5:fd:66:51:0c:bd:54:b3:
                    e1:6d:5f:1c:bc:23:73:d1:09:03:89:14:d2:10:b9:
                    64:c3:2a:d0:a1:96:4a:bc:e1:d4:1a:5b:c7:a0:c0:
                    c1:63:78:0f:44:37:30:32:96:80:32:23:95:a1:77:
                    ba:13:d2:97:73:e2:5d:25:c9:6a:0d:c3:39:60:a4:
                    b4:b0:69:42:42:09:e9:d8:08:bc:33:20:b3:58:22:
                    a7:aa:eb:c4:e1:e6:61:83:c5:d2:96:df:d9:d0:4f:
                    ad:d7
                Exponent: 65537 (0x10001)
        X509v3 extensions:
            X509v3 Subject Alternative Name: 
                DNS:localhost
    Signature Algorithm: sha256WithRSAEncryption
         10:6d:76:f3:8e:93:63:0d:44:08:e2:29:23:cb:76:38:cd:29:
         0d:5f:48:1d:0f:a2:42:84:12:13:c2:00:a9:d9:e6:ec:4e:80:
         cb:4d:e0:fb:7e:b8:c0:2a:92:e9:11:01:72:25:3f:9f:7d:81:
         76:5e:94:e3:47:2b:39:c3:a0:ba:ba:97:74:4c:a5:49:fa:bf:
         85:29:36:32:d5:4b:fc:60:1c:73:70:7f:49:e2:5b:74:a4:ec:
         7f:b5:e9:3e:1f:db:b8:b0:80:f4:c7:cf:cf:5f:18:b4:66:9e:
         02:3b:88:40:9b:b1:e4:10:2d:77:f2:b0:02:07:5b:bc:e7:38:
         7b:98:55:16:d8:8e:c4:b1:49:0a:eb:99:f8:fb:c4:e9:b5:75:
         2e:9c:ec:f5:ad:ec:e4:41:f3:7c:b5:fc:51:6e:6d:46:61:6d:
         09:d8:a9:08:dd:84:e5:ef:c5:a5:b8:65:60:71:d6:b4:c0:eb:
         f0:e4:60:bf:9b:d9:80:bb:52:c3:1b:d8:27:6e:d5:eb:ab:9c:
         a2:71:d9:af:dc:71:55:d7:be:93:6c:c6:5f:79:5d:72:1b:68:
         b2:15:67:bb:41:28:07:41:12:7c:b1:74:30:1d:60:b0:5a:25:
         47:4e:0c:5a:14:49:99:9c:0d:92:74:a3:c8:b9:0c:8b:e0:0a:
         d7:a1:0d:35
-----BEGIN CERTIFICATE-----
MIIDnjCCAoagAwIBAgIUVqoL8Nj9D0pM4JmF/sGbdST7AbYwDQYJKoZIhvcNAQEL
BQAwfDELMAkGA1UEBhMCVVMxEDAOBgNVBAgMB01vbnRhbmExEDAOBgNVBAcMB0Jv
emVtYW4xFDASBgNVBAsMC0VuZ2luZWVyaW5nMRIwEAYDVQQDDAlsb2NhbGhvc3Qx
HzAdBgkqhkiG9w0BCQEWEGluZm9Ad29sZnNzbC5jb20wHhcNMjIxMjE2MjExNzUw
WhcNMjUwOTExMjExNzUwWjB8MQswCQYDVQQGEwJVUzEQMA4GA1UECAwHTW9udGFu
YTEQMA4GA1UEBwwHQm96ZW1hbjEUMBIGA1UECwwLRW5naW5lZXJpbmcxEjAQBgNV
BAMMCWxvY2FsaG9zdDEfMB0GCSqGSIb3DQEJARYQaW5mb0B3b2xmc3NsLmNvbTCC
ASIwDQYJKoZIhvcNAQEBBQADggEPADCCAQoCggEBAMCVCOFXQfJxbbfSRUEnAWXG
Ra7yvCQwuJXOL07W9hyIvHyf+6hnf/5cnFF194rKB+c1L4/hvXvAL3yrZKgX/Mpd
e7rgIeVyLm8uhtiVc9qsG1O5Xz/XGQ0lT+FjY1GLC2Q/rUO4pRxcNLOuAKBjxfZ/
C1loeHOmjBipAm2vwxkBLrgQ48bMQLRpo0YzaYduxLsXpvPo3a1zvHsvIbX9ZlEM
vVSz4W1fHLwjc9EJA4kU0hC5ZMMq0KGWSrzh1Bpbx6DAwWN4D0Q3MDKWgDIjlaF3
uhPSl3PiXSXJag3DOWCktLBpQkIJ6dgIvDMgs1gip6rrxOHmYYPF0pbf2dBPrdcC
AwEAAaMYMBYwFAYDVR0RBA0wC4IJbG9jYWxob3N0MA0GCSqGSIb3DQEBCwUAA4IB
AQAQbXbzjpNjDUQI4ikjy3Y4zSkNX0gdD6JChBITwgCp2ebsToDLTeD7frjAKpLp
EQFyJT+ffYF2XpTjRys5w6C6upd0TKVJ+r+FKTYy1Uv8YBxzcH9J4lt0pOx/tek+
H9u4sID0x8/PXxi0Zp4CO4hAm7HkEC138rACB1u85zh7mFUW2I7EsUkK65n4+8Tp
tXUunOz1rezkQfN8tfxRbm1GYW0J2KkI3YTl78WluGVgcda0wOvw5GC/m9mAu1LD
G9gnbtXrq5yicdmv3HFV176TbMZfeV1yG2iyFWe7QSgHQRJ8sXQwHWCwWiVHTgxa
FEmZnA2SdKPIuQyL4ArXoQ01
-----END CERTIFICATE-----
