Certificate:
    Data:
        Version: 3 (0x2)
        Serial Number:
            2c:88:b2:20:85:90:6b:03:49:f6:35:7a:27:4b:12:1d:6a:67:b9:42
        Signature Algorithm: sha256WithRSAEncryption
        Issuer: C = US, ST = Montana, L = Bozeman, OU = Engineering, CN = www.nomatch.com, emailAddress = info@wolfssl.com
        Validity
            Not Before: Dec 16 21:17:50 2022 GMT
            Not After : Sep 11 21:17:50 2025 GMT
        Subject: C = US, ST = Montana, L = Bozeman, OU = Engineering, CN = www.nomatch.com, emailAddress = info@wolfssl.com
        Subject Public Key Info:
            Public Key Algorithm: rsaEncryption
                RSA Public-Key: (2048 bit)
                Modulus:
                    00:c0:95:08:e1:57:41:f2:71:6d:b7:d2:45:41:27:
                    01:65:c6:45:ae:f2:bc:24:30:b8:95:ce:2f:4e:d6:
                    f6:1c:88:bc:7c:9f:fb:a8:67:7f:fe:5c:9c:51:75:
                    f7:8a:ca:07:e7:35:2f:8f:e1:bd:7b:c0:2f:7c:ab:
                    64:a8:17:fc:ca:5d:7b:ba:e0:21:e5:72:2e:6f:2e:
                    86:d8:95:73:da:ac:1b:53:b9:5f:3f:d7:19:0d:25:
                    4f:e1:63:63:51:8b:0b:64:3f:ad:43:b8:a5:1c:5c:
                    34:b3:ae:00:a0:63:c5:f6:7f:0b:59:68:78:73:a6:
                    8c:18:a9:02:6d:af:c3:19:01:2e:b8:10:e3:c6:cc:
                    40:b4:69:a3:46:33:69:87:6e:c4:bb:17:a6:f3:e8:
                    dd:ad:73:bc:7b:2f:21:b5:fd:66:51:0c:bd:54:b3:
                    e1:6d:5f:1c:bc:23:73:d1:09:03:89:14:d2:10:b9:
                    64:c3:2a:d0:a1:96:4a:bc:e1:d4:1a:5b:c7:a0:c0:
                    c1:63:78:0f:44:37:30:32:96:80:32:23:95:a1:77:
                    ba:13:d2:97:73:e2:5d:25:c9:6a:0d:c3:39:60:a4:
                    b4:b0:69:42:42:09:e9:d8:08:bc:33:20:b3:58:22:
                    a7:aa:eb:c4:e1:e6:61:83:c5:d2:96:df:d9:d0:4f:
                    ad:d7
                Exponent: 65537 (0x10001)
        X509v3 extensions:
            X509v3 Subject Alternative Name: 
                DNS:*localhost
    Signature Algorithm: sha256WithRSAEncryption
         4c:41:a3:9e:76:d0:37:53:ae:2a:7c:f5:d7:f2:f0:fa:f8:78:
         23:b5:5b:44:cc:d8:9a:25:f1:cc:c5:30:e5:ae:3c:ed:a4:77:
         b5:5d:64:35:ea:fe:82:a5:1d:6b:5c:d2:73:0a:06:c1:80:b5:
         25:7d:38:f9:08:c1:59:78:81:e5:88:06:6a:28:7b:9c:3b:fa:
         33:df:8b:50:f5:9a:b7:fe:3d:59:62:ad:57:a4:34:e2:ea:6b:
         40:7b:09:1c:13:94:fe:ce:88:bb:1f:dd:c2:8e:09:f8:a5:94:
         57:e5:61:6a:da:b2:be:ec:06:44:66:08:7d:1d:a8:8a:42:19:
         0e:aa:ca:36:c2:bc:62:1a:91:62:9d:d0:59:fd:53:9e:24:8c:
         67:77:e6:df:4f:58:9d:f0:81:9e:fd:59:b4:e4:37:67:50:c0:
         1e:d5:ac:2b:4b:27:32:7d:71:10:89:e7:b7:a3:5d:a2:0a:26:
         81:bb:85:e2:73:a0:b4:c6:1a:7d:93:dc:b1:71:f5:e6:ec:1e:
         34:c0:21:0d:4e:2f:e6:dd:89:2c:9f:e9:39:86:8e:b2:ed:f0:
         a8:94:00:a9:cb:24:65:94:35:51:df:a7:3e:79:bb:82:e8:4b:
         7d:4b:17:1f:3a:11:07:d3:cf:bb:51:fb:27:85:10:65:b6:60:
         09:3c:f3:7d
-----BEGIN CERTIFICATE-----
MIIDrTCCApWgAwIBAgIULIiyIIWQawNJ9jV6J0sSHWpnuUIwDQYJKoZIhvcNAQEL
BQAwgYIxCzAJBgNVBAYTAlVTMRAwDgYDVQQIDAdNb250YW5hMRAwDgYDVQQHDAdC
b3plbWFuMRQwEgYDVQQLDAtFbmdpbmVlcmluZzEYMBYGA1UEAwwPd3d3Lm5vbWF0
Y2guY29tMR8wHQYJKoZIhvcNAQkBFhBpbmZvQHdvbGZzc2wuY29tMB4XDTIyMTIx
NjIxMTc1MFoXDTI1MDkxMTIxMTc1MFowgYIxCzAJBgNVBAYTAlVTMRAwDgYDVQQI
DAdNb250YW5hMRAwDgYDVQQHDAdCb3plbWFuMRQwEgYDVQQLDAtFbmdpbmVlcmlu
ZzEYMBYGA1UEAwwPd3d3Lm5vbWF0Y2guY29tMR8wHQYJKoZIhvcNAQkBFhBpbmZv
QHdvbGZzc2wuY29tMIIBIjANBgkqhkiG9w0BAQEFAAOCAQ8AMIIBCgKCAQEAwJUI
4VdB8nFtt9JFQScBZcZFrvK8JDC4lc4vTtb2HIi8fJ/7qGd//lycUXX3isoH5zUv
j+G9e8AvfKtkqBf8yl17uuAh5XIuby6G2JVz2qwbU7lfP9cZDSVP4WNjUYsLZD+t
Q7ilHFw0s64AoGPF9n8LWWh4c6aMGKkCba/DGQEuuBDjxsxAtGmjRjNph27Euxem
8+jdrXO8ey8htf1mUQy9VLPhbV8cvCNz0QkDiRTSELlkwyrQoZZKvOHUGlvHoMDB
Y3gPRDcwMpaAMiOVoXe6E9KXc+JdJclqDcM5YKS0sGlCQgnp2Ai8MyCzWCKnquvE
4eZhg8XSlt/Z0E+t1wIDAQABoxkwFzAVBgNVHREEDjAMggoqbG9jYWxob3N0MA0G
CSqGSIb3DQEBCwUAA4IBAQBMQaOedtA3U64qfPXX8vD6+HgjtVtEzNiaJfHMxTDl
rjztpHe1XWQ16v6CpR1rXNJzCgbBgLUlfTj5CMFZeIHliAZqKHucO/oz34tQ9Zq3
/j1ZYq1XpDTi6mtAewkcE5T+zoi7H93Cjgn4pZRX5WFq2rK+7AZEZgh9HaiKQhkO
qso2wrxiGpFindBZ/VOeJIxnd+bfT1id8IGe/Vm05DdnUMAe1awrSycyfXEQiee3
o12iCiaBu4Xic6C0xhp9k9yxcfXm7B40wCENTi/m3Yksn+k5ho6y7fColACpyyRl
lDVR36c+ebuC6Et9SxcfOhEH08+7UfsnhRBltmAJPPN9
-----END CERTIFICATE-----
