Certificate Revocation List (CRL):
        Version 2 (0x1)
        Signature Algorithm: sha256WithRSAEncryption
        Issuer: C = US, ST = Montana, L = Bozeman, O = wolfSSL_2048, OU = Programming-2048, CN = www.wolfssl.com, emailAddress = info@wolfssl.com
        Last Update: Dec 16 21:17:50 2022 GMT
        Next Update: Sep 11 21:17:50 2025 GMT
        CRL extensions:
            X509v3 CRL Number: 
                6
Revoked Certificates:
    Serial Number: 02
        Revocation Date: Dec 16 21:17:50 2022 GMT
    Signature Algorithm: sha256WithRSAEncryption
         bf:d3:f7:5b:70:94:5a:11:50:b2:7d:7b:f9:c8:0f:aa:1b:82:
         f9:24:5f:79:a6:ab:9d:71:53:83:a2:29:93:a4:91:9d:70:0e:
         b7:b7:e2:67:b8:ee:1c:fb:81:be:f7:e6:a7:d7:c0:df:5d:d3:
         4b:df:50:1c:08:c3:95:20:bd:6c:0e:f8:c9:70:66:cd:42:19:
         d8:a5:75:bf:cc:b4:fb:f4:fc:85:58:06:95:07:fd:a5:c2:a8:
         ac:a3:e9:eb:0c:99:98:f8:62:a8:59:22:d5:72:71:05:8a:ca:
         6a:5a:96:c1:a3:29:b2:ea:78:30:1d:8c:c5:17:26:b5:d4:87:
         79:c9:f6:51:2e:c9:e9:b5:f4:17:2a:8e:ba:3d:e9:8d:e0:66:
         87:7b:8f:36:8c:62:45:7a:07:2b:b2:da:02:ba:27:b9:e6:18:
         d8:84:5f:4d:8f:cd:03:91:e8:53:c8:10:c8:d9:51:af:3d:e3:
         35:25:cd:3e:44:7e:fd:8f:74:46:4a:b9:03:da:41:2b:b1:4d:
         4c:39:af:14:fa:9c:4f:54:4c:4b:9f:a8:4a:b6:99:24:95:54:
         37:05:ab:45:7b:7b:25:20:d1:99:b1:5e:aa:98:a0:1e:b9:b1:
         a3:fe:e5:2c:f8:49:d8:94:07:05:79:b5:9b:19:0e:53:c8:b3:
         ce:60:d0:bc
-----BEGIN X509 CRL-----
MIICDjCB9wIBATANBgkqhkiG9w0BAQsFADCBnjELMAkGA1UEBhMCVVMxEDAOBgNV
BAgMB01vbnRhbmExEDAOBgNVBAcMB0JvemVtYW4xFTATBgNVBAoMDHdvbGZTU0xf
MjA0ODEZMBcGA1UECwwQUHJvZ3JhbW1pbmctMjA0ODEYMBYGA1UEAwwPd3d3Lndv
bGZzc2wuY29tMR8wHQYJKoZIhvcNAQkBFhBpbmZvQHdvbGZzc2wuY29tFw0yMjEy
MTYyMTE3NTBaFw0yNTA5MTEyMTE3NTBaMBQwEgIBAhcNMjIxMjE2MjExNzUwWqAO
MAwwCgYDVR0UBAMCAQYwDQYJKoZIhvcNAQELBQADggEBAL/T91twlFoRULJ9e/nI
D6obgvkkX3mmq51xU4OiKZOkkZ1wDre34me47hz7gb735qfXwN9d00vfUBwIw5Ug
vWwO+MlwZs1CGdildb/MtPv0/IVYBpUH/aXCqKyj6esMmZj4YqhZItVycQWKympa
lsGjKbLqeDAdjMUXJrXUh3nJ9lEuyem19Bcqjro96Y3gZod7jzaMYkV6Byuy2gK6
J7nmGNiEX02PzQOR6FPIEMjZUa894zUlzT5Efv2PdEZKuQPaQSuxTUw5rxT6nE9U
TEufqEq2mSSVVDcFq0V7eyUg0ZmxXqqYoB65saP+5Sz4SdiUBwV5tZsZDlPIs85g
0Lw=
-----END X509 CRL-----
