Certificate Revocation List (CRL):
        Version 2 (0x1)
        Signature Algorithm: sha256WithRSAEncryption
        Issuer: C = US, ST = Montana, L = Bozeman, O = Sawtooth, OU = Consulting, CN = www.wolfssl.com, emailAddress = info@wolfssl.com
        Last Update: Dec 16 21:17:50 2022 GMT
        Next Update: Sep 11 21:17:50 2025 GMT
        CRL extensions:
            X509v3 CRL Number: 
                3
Revoked Certificates:
    Serial Number: 01
        Revocation Date: Dec 16 21:17:50 2022 GMT
    Serial Number: 02
        Revocation Date: Dec 16 21:17:50 2022 GMT
    Signature Algorithm: sha256WithRSAEncryption
         1f:6c:1c:50:42:8a:55:bc:41:f6:a9:15:b6:ad:90:53:0a:b8:
         73:71:8b:dd:0e:8f:95:0f:97:6d:82:24:09:6d:d5:9f:57:47:
         ab:c2:10:ad:df:27:0b:6c:d4:1f:c2:d5:4b:56:4b:44:01:3e:
         5f:d3:08:6c:da:5b:94:40:00:47:e2:c9:f5:93:3d:c6:b0:28:
         b6:48:ff:32:9e:7b:d9:2d:71:5c:c4:53:13:50:8d:c7:e8:d0:
         6f:28:ee:71:a0:8a:3e:da:9a:c4:e1:ad:a7:36:ce:87:ff:1f:
         32:f1:32:ca:ff:81:d9:b8:d1:ca:39:7f:08:90:77:da:45:23:
         56:49:ad:08:99:ef:75:23:5f:92:9a:b4:34:ef:5c:b1:68:71:
         0d:06:31:28:5e:b1:34:56:a3:d6:47:8a:ba:2b:e2:be:28:29:
         d0:6a:12:60:5e:5c:93:7d:0d:54:bf:ee:72:7f:31:e6:9a:ab:
         56:fc:34:45:06:e9:bd:fc:39:1d:37:91:77:d2:da:96:01:a0:
         0d:9f:cf:b6:26:98:6b:fb:d9:ef:51:1d:df:41:6c:3c:61:5c:
         38:83:e4:71:51:1d:62:57:53:8b:0b:0a:b1:ac:df:5c:22:26:
         b6:67:51:62:06:5b:97:ed:94:f4:40:7e:48:4e:3b:fd:b7:75:
         40:17:ec:48
-----BEGIN X509 CRL-----
MIICGTCCAQECAQEwDQYJKoZIhvcNAQELBQAwgZQxCzAJBgNVBAYTAlVTMRAwDgYD
VQQIDAdNb250YW5hMRAwDgYDVQQHDAdCb3plbWFuMREwDwYDVQQKDAhTYXd0b290
aDETMBEGA1UECwwKQ29uc3VsdGluZzEYMBYGA1UEAwwPd3d3LndvbGZzc2wuY29t
MR8wHQYJKoZIhvcNAQkBFhBpbmZvQHdvbGZzc2wuY29tFw0yMjEyMTYyMTE3NTBa
Fw0yNTA5MTEyMTE3NTBaMCgwEgIBARcNMjIxMjE2MjExNzUwWjASAgECFw0yMjEy
MTYyMTE3NTBaoA4wDDAKBgNVHRQEAwIBAzANBgkqhkiG9w0BAQsFAAOCAQEAH2wc
UEKKVbxB9qkVtq2QUwq4c3GL3Q6PlQ+XbYIkCW3Vn1dHq8IQrd8nC2zUH8LVS1ZL
RAE+X9MIbNpblEAAR+LJ9ZM9xrAotkj/Mp572S1xXMRTE1CNx+jQbyjucaCKPtqa
xOGtpzbOh/8fMvEyyv+B2bjRyjl/CJB32kUjVkmtCJnvdSNfkpq0NO9csWhxDQYx
KF6xNFaj1keKuivivigp0GoSYF5ck30NVL/ucn8x5pqrVvw0RQbpvfw5HTeRd9La
lgGgDZ/PtiaYa/vZ71Ed30FsPGFcOIPkcVEdYldTiwsKsazfXCImtmdRYgZbl+2U
9EB+SE47/bd1QBfsSA==
-----END X509 CRL-----
