Certificate Revocation List (CRL):
        Version 2 (0x1)
        Signature Algorithm: sha256WithRSAEncryption
        Issuer: C = US, ST = Montana, L = Bozeman, O = Sawtooth, OU = Consulting, CN = www.wolfssl.com, emailAddress = info@wolfssl.com
        Last Update: Dec 16 21:17:50 2022 GMT
        Next Update: Sep 11 21:17:50 2025 GMT
        CRL extensions:
            X509v3 CRL Number: 
                2
Revoked Certificates:
    Serial Number: 02
        Revocation Date: Dec 16 21:17:50 2022 GMT
    Signature Algorithm: sha256WithRSAEncryption
         39:44:ff:39:f4:04:45:79:7e:73:e2:42:48:db:85:66:fd:99:
         76:94:7c:b5:79:5d:15:71:36:a9:87:f0:73:05:50:08:6b:1c:
         6e:de:96:45:31:c3:c0:ba:ba:f5:08:1d:05:4a:52:39:e9:03:
         ef:59:c8:1d:4a:f2:86:05:99:7b:4b:74:f6:d3:75:8d:b2:57:
         ba:ac:a7:11:14:d6:6c:71:c4:4c:1c:68:bc:49:78:f0:c9:52:
         8a:e7:8b:54:e6:20:58:20:60:66:f5:14:d8:cb:ff:e0:a0:45:
         bc:b4:81:ad:1d:bc:cf:f8:8e:a8:87:24:55:99:d9:ce:47:f7:
         5b:4a:33:6d:db:bf:93:64:1a:a6:46:5f:27:dc:d8:d4:f9:c2:
         42:2a:7e:b2:7c:dd:98:77:f5:88:7d:15:25:08:bc:e0:d0:8d:
         f4:c3:c3:04:41:a4:d1:b1:39:4a:6b:2c:b5:2e:9a:65:43:0d:
         0e:73:f4:06:e1:b3:49:34:94:b0:b7:ff:c0:27:c1:b5:ea:06:
         f7:71:71:97:bb:bc:c7:1a:9f:eb:f6:3d:a5:7b:55:a7:bf:dd:
         d7:ee:97:b8:9d:dc:cd:e3:06:db:9a:2c:60:bf:70:84:fa:6b:
         8d:70:7d:de:e8:b7:ab:b0:38:68:6c:c0:b1:e1:ba:45:e0:d7:
         12:3d:71:5b
-----BEGIN X509 CRL-----
MIICBDCB7QIBATANBgkqhkiG9w0BAQsFADCBlDELMAkGA1UEBhMCVVMxEDAOBgNV
BAgMB01vbnRhbmExEDAOBgNVBAcMB0JvemVtYW4xETAPBgNVBAoMCFNhd3Rvb3Ro
MRMwEQYDVQQLDApDb25zdWx0aW5nMRgwFgYDVQQDDA93d3cud29sZnNzbC5jb20x
HzAdBgkqhkiG9w0BCQEWEGluZm9Ad29sZnNzbC5jb20XDTIyMTIxNjIxMTc1MFoX
DTI1MDkxMTIxMTc1MFowFDASAgECFw0yMjEyMTYyMTE3NTBaoA4wDDAKBgNVHRQE
AwIBAjANBgkqhkiG9w0BAQsFAAOCAQEAOUT/OfQERXl+c+JCSNuFZv2ZdpR8tXld
FXE2qYfwcwVQCGscbt6WRTHDwLq69QgdBUpSOekD71nIHUryhgWZe0t09tN1jbJX
uqynERTWbHHETBxovEl48MlSiueLVOYgWCBgZvUU2Mv/4KBFvLSBrR28z/iOqIck
VZnZzkf3W0ozbdu/k2QapkZfJ9zY1PnCQip+snzdmHf1iH0VJQi84NCN9MPDBEGk
0bE5SmsstS6aZUMNDnP0BuGzSTSUsLf/wCfBteoG93Fxl7u8xxqf6/Y9pXtVp7/d
1+6XuJ3czeMG25osYL9whPprjXB93ui3q7A4aGzAseG6ReDXEj1xWw==
-----END X509 CRL-----
