Certificate Revocation List (CRL):
        Version 2 (0x1)
        Signature Algorithm: sha256WithRSAEncryption
        Issuer: C = US, ST = Montana, L = Bozeman, OU = Engineering, CN = *localhost, emailAddress = info@wolfssl.com
        Last Update: Dec 16 21:17:50 2022 GMT
        Next Update: Sep 11 21:17:50 2025 GMT
        CRL extensions:
            X509v3 CRL Number: 
                1
No Revoked Certificates.
    Signature Algorithm: sha256WithRSAEncryption
         2e:cf:37:c3:7c:d1:e7:3a:6d:c1:46:1e:5a:0f:35:b2:74:40:
         56:a5:0a:c3:1e:a5:40:77:b6:93:91:c5:6e:44:31:26:5a:b4:
         60:2f:66:ce:65:dc:90:60:b3:cd:1c:e5:b4:0c:79:18:79:38:
         f2:6c:b4:9e:98:62:f0:35:3b:f9:59:ec:0d:06:07:08:42:82:
         ae:4b:e7:f2:9f:7c:71:87:02:eb:ac:ea:1e:93:22:c5:7b:80:
         1f:fe:76:ac:e1:bc:4b:b9:e8:31:28:48:3b:fe:23:1e:5b:41:
         63:1e:ba:48:13:78:80:d2:b0:30:57:9b:73:ae:4a:53:4f:2d:
         25:c8:66:cc:8d:26:64:b1:04:3f:be:31:f5:83:1d:c5:ea:cf:
         ef:56:0c:62:ad:85:3b:65:9c:1b:80:ee:3f:3e:c9:5b:58:3e:
         63:98:16:c2:f4:68:62:08:a3:41:3d:4e:0e:26:2a:b2:d9:77:
         e7:9f:0e:f3:af:1f:34:13:10:ec:69:f1:fb:12:ec:9a:fc:0d:
         fe:58:a7:d8:1b:a0:23:70:f1:6f:71:a2:a4:8f:e2:21:f3:14:
         55:db:8d:86:92:5a:cf:56:c2:6b:48:bd:94:5d:07:0b:c1:5b:
         fc:fc:c0:c5:4b:bd:74:43:f3:07:ed:0c:44:69:d1:01:79:a2:
         e8:4b:a1:ed
-----BEGIN X509 CRL-----
MIIB1jCBvwIBATANBgkqhkiG9w0BAQsFADB9MQswCQYDVQQGEwJVUzEQMA4GA1UE
CAwHTW9udGFuYTEQMA4GA1UEBwwHQm96ZW1hbjEUMBIGA1UECwwLRW5naW5lZXJp
bmcxEzARBgNVBAMMCipsb2NhbGhvc3QxHzAdBgkqhkiG9w0BCQEWEGluZm9Ad29s
ZnNzbC5jb20XDTIyMTIxNjIxMTc1MFoXDTI1MDkxMTIxMTc1MFqgDjAMMAoGA1Ud
FAQDAgEBMA0GCSqGSIb3DQEBCwUAA4IBAQAuzzfDfNHnOm3BRh5aDzWydEBWpQrD
HqVAd7aTkcVuRDEmWrRgL2bOZdyQYLPNHOW0DHkYeTjybLSemGLwNTv5WewNBgcI
QoKuS+fyn3xxhwLrrOoekyLFe4Af/nas4bxLuegxKEg7/iMeW0FjHrpIE3iA0rAw
V5tzrkpTTy0lyGbMjSZksQQ/vjH1gx3F6s/vVgxirYU7ZZwbgO4/PslbWD5jmBbC
9GhiCKNBPU4OJiqy2Xfnnw7zrx80ExDsafH7Euya/A3+WKfYG6AjcPFvcaKkj+Ih
8xRV242GklrPVsJrSL2UXQcLwVv8/MDFS710Q/MH7QxEadEBeaLoS6Ht
-----END X509 CRL-----
