Certificate Revocation List (CRL):
        Version 2 (0x1)
        Signature Algorithm: sha256WithRSAEncryption
        Issuer: C = US, ST = Montana, L = Bozeman, OU = Engineering, CN = www.nomatch.com, emailAddress = info@wolfssl.com
        Last Update: Dec 16 21:17:50 2022 GMT
        Next Update: Sep 11 21:17:50 2025 GMT
        CRL extensions:
            X509v3 CRL Number: 
                1
No Revoked Certificates.
    Signature Algorithm: sha256WithRSAEncryption
         22:05:56:57:ea:16:40:fa:18:c2:cd:2d:b8:64:8f:3a:e5:39:
         a4:43:d2:14:39:78:b7:c7:c3:81:78:4c:b5:b1:c2:b0:e7:b3:
         6c:5a:e3:f7:e3:a1:78:0e:e9:3d:02:18:96:e3:f0:99:74:17:
         d7:c6:b9:76:fb:08:31:90:1c:13:f2:51:aa:6d:3e:f6:ac:05:
         68:72:b9:b6:7b:3a:c5:51:0a:81:95:4a:b3:1c:3b:1e:75:c5:
         46:29:14:36:91:14:50:00:65:17:ae:c0:10:37:cf:27:5b:95:
         ae:8e:b7:21:1f:b1:66:f1:e9:6d:a1:32:ea:14:86:df:74:3b:
         99:97:17:a9:f8:65:fb:e5:15:9b:a3:05:17:44:06:aa:15:10:
         83:47:78:0d:fd:ec:76:d4:af:2a:5f:b2:17:01:13:ca:c8:7f:
         ce:4d:ba:6c:ef:e8:4a:b7:ce:4a:d1:e4:35:6e:3e:d8:0f:2a:
         d0:94:b4:a7:cb:e5:50:bc:2a:9c:1b:39:a8:6e:8a:99:b6:b8:
         1e:4e:59:ad:fe:2e:db:22:79:8a:37:ed:b0:c5:6b:ce:e6:55:
         6a:eb:11:e6:34:ad:c0:ca:7b:1c:b0:15:ef:1c:fa:6c:36:2b:
         3f:b6:f1:e2:04:90:48:36:a4:ef:26:2e:83:3e:00:4b:c7:78:
         c7:72:98:d1
-----BEGIN X509 CRL-----
MIIB3DCBxQIBATANBgkqhkiG9w0BAQsFADCBgjELMAkGA1UEBhMCVVMxEDAOBgNV
BAgMB01vbnRhbmExEDAOBgNVBAcMB0JvemVtYW4xFDASBgNVBAsMC0VuZ2luZWVy
aW5nMRgwFgYDVQQDDA93d3cubm9tYXRjaC5jb20xHzAdBgkqhkiG9w0BCQEWEGlu
Zm9Ad29sZnNzbC5jb20XDTIyMTIxNjIxMTc1MFoXDTI1MDkxMTIxMTc1MFqgDjAM
MAoGA1UdFAQDAgEBMA0GCSqGSIb3DQEBCwUAA4IBAQAiBVZX6hZA+hjCzS24ZI86
5TmkQ9IUOXi3x8OBeEy1scKw57NsWuP346F4Duk9AhiW4/CZdBfXxrl2+wgxkBwT
8lGqbT72rAVocrm2ezrFUQqBlUqzHDsedcVGKRQ2kRRQAGUXrsAQN88nW5Wujrch
H7Fm8eltoTLqFIbfdDuZlxep+GX75RWbowUXRAaqFRCDR3gN/ex21K8qX7IXARPK
yH/OTbps7+hKt85K0eQ1bj7YDyrQlLSny+VQvCqcGzmoboqZtrgeTlmt/i7bInmK
N+2wxWvO5lVq6xHmNK3AynscsBXvHPpsNis/tvHiBJBINqTvJi6DPgBLx3jHcpjR
-----END X509 CRL-----
