Certificate Revocation List (CRL):
        Version 2 (0x1)
        Signature Algorithm: sha256WithRSAEncryption
        Issuer: C = US, ST = Montana, L = Bozeman, OU = Engineering, CN = localhost, emailAddress = info@wolfssl.com
        Last Update: Dec 16 21:17:50 2022 GMT
        Next Update: Sep 11 21:17:50 2025 GMT
        CRL extensions:
            X509v3 CRL Number: 
                1
No Revoked Certificates.
    Signature Algorithm: sha256WithRSAEncryption
         31:51:b7:05:e8:10:b7:de:06:b6:be:93:22:ee:13:bb:f5:e6:
         8a:18:8b:34:b3:dd:e2:fd:e0:99:ff:d5:af:31:7f:42:a6:94:
         44:49:6e:57:41:45:34:46:23:5b:c6:09:a4:8a:e2:90:64:2c:
         ee:e3:4b:fa:3c:a0:5b:1d:b5:b8:4f:fc:fc:41:4c:c1:bf:9a:
         b9:bb:45:b4:9d:8b:4e:66:dd:16:c9:d4:4c:65:53:b3:71:df:
         9f:f6:a6:d6:50:4f:20:fa:92:d2:1b:6b:fb:7b:a1:1c:7c:d8:
         f4:ee:5c:66:9a:b4:99:3b:ca:aa:84:b6:10:8a:96:cf:34:17:
         54:1f:49:d1:25:74:34:ad:1d:05:89:62:48:2f:37:b0:38:72:
         2e:5e:d7:b5:ae:d9:b5:d3:06:71:da:b7:f3:97:c2:d6:25:b2:
         86:c3:3d:da:ff:98:06:76:68:a9:34:44:53:85:3e:c1:f8:d1:
         d3:f0:c8:5d:53:ec:47:7b:df:e1:bc:f1:f4:af:74:81:e4:87:
         d3:94:94:5e:15:13:25:33:76:00:78:f2:95:65:fd:7c:23:1f:
         94:ae:15:1d:fd:48:c8:43:55:db:ea:31:bd:52:e4:b7:90:ab:
         5c:c3:93:c7:d0:23:52:eb:46:90:b3:a0:48:a7:90:16:93:6f:
         cc:a0:fa:a3
-----BEGIN X509 CRL-----
MIIB1TCBvgIBATANBgkqhkiG9w0BAQsFADB8MQswCQYDVQQGEwJVUzEQMA4GA1UE
CAwHTW9udGFuYTEQMA4GA1UEBwwHQm96ZW1hbjEUMBIGA1UECwwLRW5naW5lZXJp
bmcxEjAQBgNVBAMMCWxvY2FsaG9zdDEfMB0GCSqGSIb3DQEJARYQaW5mb0B3b2xm
c3NsLmNvbRcNMjIxMjE2MjExNzUwWhcNMjUwOTExMjExNzUwWqAOMAwwCgYDVR0U
BAMCAQEwDQYJKoZIhvcNAQELBQADggEBADFRtwXoELfeBra+kyLuE7v15ooYizSz
3eL94Jn/1a8xf0KmlERJbldBRTRGI1vGCaSK4pBkLO7jS/o8oFsdtbhP/PxBTMG/
mrm7RbSdi05m3RbJ1ExlU7Nx35/2ptZQTyD6ktIba/t7oRx82PTuXGaatJk7yqqE
thCKls80F1QfSdEldDStHQWJYkgvN7A4ci5e17Wu2bXTBnHat/OXwtYlsobDPdr/
mAZ2aKk0RFOFPsH40dPwyF1T7Ed73+G88fSvdIHkh9OUlF4VEyUzdgB48pVl/Xwj
H5SuFR39SMhDVdvqMb1S5LeQq1zDk8fQI1LrRpCzoEinkBaTb8yg+qM=
-----END X509 CRL-----
