Certificate:
    Data:
        Version: 3 (0x2)
        Serial Number:
            5e:2d:39:08:4a:69:db:18:5b:e0:10:c7:3a:14:36:d2:7b:09:55:60
        Signature Algorithm: ecdsa-with-SHA256
        Issuer: C = US, ST = Montana, L = Bozeman, O = wolfSSL_P521, OU = Root-P521, CN = www.wolfssl.com, emailAddress = info@wolfssl.com
        Validity
            Not Before: Dec 16 21:17:50 2022 GMT
            Not After : Sep 11 21:17:50 2025 GMT
        Subject: C = US, ST = Montana, L = Bozeman, O = wolfSSL_P521, OU = Root-P521, CN = www.wolfssl.com, emailAddress = info@wolfssl.com
        Subject Public Key Info:
            Public Key Algorithm: id-ecPublicKey
                Public-Key: (521 bit)
                pub:
                    04:01:41:60:d4:e5:cc:37:db:f4:4c:12:cc:f6:7a:
                    32:cc:f2:1c:b7:53:15:bd:5f:53:ef:cb:73:a9:c8:
                    14:6c:6f:7d:c5:7c:b4:bb:8e:56:c2:43:45:fb:58:
                    1c:c6:45:3d:7f:e5:4e:80:cc:44:c1:06:7a:75:e1:
                    69:c9:8a:a8:01:7a:df:00:44:49:73:9c:2f:50:3f:
                    83:a0:1e:8b:d1:aa:fb:08:0c:90:05:0d:0c:17:31:
                    51:3e:d6:85:3b:09:12:82:d1:a6:08:cd:c8:4f:6a:
                    5a:c8:8c:8e:5d:bf:da:cc:5b:95:a1:e8:5a:29:78:
                    22:b2:ba:49:a1:85:c6:48:8a:71:53:8d:89
                ASN1 OID: secp521r1
                NIST CURVE: P-521
        X509v3 extensions:
            X509v3 Subject Key Identifier: 
                64:A7:68:95:53:33:18:A2:20:92:BC:64:55:A6:AB:CA:76:68:9B:C8
            X509v3 Authority Key Identifier: 
                keyid:64:A7:68:95:53:33:18:A2:20:92:BC:64:55:A6:AB:CA:76:68:9B:C8

            X509v3 Basic Constraints: critical
                CA:TRUE
            X509v3 Key Usage: critical
                Digital Signature, Certificate Sign, CRL Sign
    Signature Algorithm: ecdsa-with-SHA256
         30:81:86:02:41:23:19:29:57:83:27:13:0e:21:b2:35:d2:a9:
         32:56:86:88:78:9f:54:a2:f2:17:b1:d1:44:ee:53:2a:90:b2:
         5e:0e:00:c9:9f:7e:94:59:47:28:13:a0:3b:8d:8e:b2:b5:25:
         61:37:d1:94:b8:3b:d1:6f:5f:91:e1:3b:69:f2:8d:04:02:41:
         10:e8:8d:c1:25:2e:64:1d:93:50:eb:b1:77:f1:93:83:48:d6:
         6b:b0:d2:ae:8f:4f:14:1e:f2:93:df:2b:4d:53:df:8f:a6:ea:
         0a:48:67:08:c2:a4:29:f3:b4:7f:63:0b:2f:46:63:7b:6b:4f:
         e4:b6:f0:df:24:82:e4:a4:e3:78:80
-----BEGIN CERTIFICATE-----
MIIDGzCCAn6gAwIBAgIUXi05CEpp2xhb4BDHOhQ20nsJVWAwCgYIKoZIzj0EAwIw
gZcxCzAJBgNVBAYTAlVTMRAwDgYDVQQIDAdNb250YW5hMRAwDgYDVQQHDAdCb3pl
bWFuMRUwEwYDVQQKDAx3b2xmU1NMX1A1MjExEjAQBgNVBAsMCVJvb3QtUDUyMTEY
MBYGA1UEAwwPd3d3LndvbGZzc2wuY29tMR8wHQYJKoZIhvcNAQkBFhBpbmZvQHdv
bGZzc2wuY29tMB4XDTIyMTIxNjIxMTc1MFoXDTI1MDkxMTIxMTc1MFowgZcxCzAJ
BgNVBAYTAlVTMRAwDgYDVQQIDAdNb250YW5hMRAwDgYDVQQHDAdCb3plbWFuMRUw
EwYDVQQKDAx3b2xmU1NMX1A1MjExEjAQBgNVBAsMCVJvb3QtUDUyMTEYMBYGA1UE
AwwPd3d3LndvbGZzc2wuY29tMR8wHQYJKoZIhvcNAQkBFhBpbmZvQHdvbGZzc2wu
Y29tMIGbMBAGByqGSM49AgEGBSuBBAAjA4GGAAQBQWDU5cw32/RMEsz2ejLM8hy3
UxW9X1Pvy3OpyBRsb33FfLS7jlbCQ0X7WBzGRT1/5U6AzETBBnp14WnJiqgBet8A
RElznC9QP4OgHovRqvsIDJAFDQwXMVE+1oU7CRKC0aYIzchPalrIjI5dv9rMW5Wh
6FopeCKyukmhhcZIinFTjYmjYzBhMB0GA1UdDgQWBBRkp2iVUzMYoiCSvGRVpqvK
dmibyDAfBgNVHSMEGDAWgBRkp2iVUzMYoiCSvGRVpqvKdmibyDAPBgNVHRMBAf8E
BTADAQH/MA4GA1UdDwEB/wQEAwIBhjAKBggqhkjOPQQDAgOBigAwgYYCQSMZKVeD
JxMOIbI10qkyVoaIeJ9UovIXsdFE7lMqkLJeDgDJn36UWUcoE6A7jY6ytSVhN9GU
uDvRb1+R4Ttp8o0EAkEQ6I3BJS5kHZNQ67F38ZODSNZrsNKuj08UHvKT3ytNU9+P
puoKSGcIwqQp87R/YwsvRmN7a0/ktvDfJILkpON4gA==
-----END CERTIFICATE-----
