Certificate:
    Data:
        Version: 3 (0x2)
        Serial Number: 1 (0x1)
        Signature Algorithm: ecdsa-with-SHA256
        Issuer: C = US, ST = Montana, L = Bozeman, O = wolfSSL_p521, OU = CA-p521, CN = www.wolfssl.com, emailAddress = info@wolfssl.com, UID = wolfSSL
        Validity
            Not Before: Dec 16 21:17:50 2022 GMT
            Not After : Sep 11 21:17:50 2025 GMT
        Subject: C = US, ST = Montana, L = Bozeman, O = wolfSSL_p521, OU = Server-p521, CN = www.wolfssl.com, emailAddress = info@wolfssl.com, UID = wolfSSL
        Subject Public Key Info:
            Public Key Algorithm: id-ecPublicKey
                Public-Key: (521 bit)
                pub:
                    04:00:de:70:69:f6:d1:9e:c4:fe:5f:82:52:98:ce:
                    52:c1:6a:4c:12:22:0f:76:88:22:11:a5:0d:a6:02:
                    47:91:ab:79:8d:f6:08:70:2d:20:14:15:df:1b:57:
                    58:b3:51:ab:20:a8:2b:bd:6a:3f:a9:ee:c2:6d:ae:
                    99:44:b4:a1:12:10:70:00:ca:1f:14:1d:b0:e7:0c:
                    41:18:52:37:04:a7:84:53:a1:02:46:93:1f:d5:60:
                    63:a6:2e:7d:8d:ea:3f:e0:5b:e5:c8:6e:1f:a7:d9:
                    a3:59:e5:96:27:22:f4:02:2b:af:5b:78:1f:13:a8:
                    22:8b:ec:ae:01:7d:c0:61:13:a4:35:0a:21
                ASN1 OID: secp521r1
                NIST CURVE: P-521
        X509v3 extensions:
            X509v3 Subject Key Identifier: 
                85:86:9F:AE:73:5F:94:77:27:3B:15:15:C6:79:07:A8:42:4B:1E:F3
            X509v3 Authority Key Identifier: 
                keyid:40:89:1D:30:5E:0C:6E:D5:3D:C6:D5:25:90:DA:B6:42:67:ED:E9:82

            X509v3 Basic Constraints: critical
                CA:FALSE
            X509v3 Key Usage: critical
                Digital Signature, Key Encipherment, Key Agreement
            X509v3 Extended Key Usage: 
                TLS Web Server Authentication
            Netscape Cert Type: 
                SSL Server
    Signature Algorithm: ecdsa-with-SHA256
         30:81:88:02:42:01:ab:16:c5:5c:76:07:6c:fd:5f:ca:01:bd:
         a4:22:7a:ab:be:9a:9c:3b:c7:6b:bb:5a:c1:60:9b:21:4d:c8:
         c6:1c:bd:22:e3:20:ff:69:16:2a:12:2d:62:ea:36:57:fa:30:
         9b:d0:bf:fe:84:68:6b:6c:0c:e2:e7:bc:0d:dd:78:06:ab:02:
         42:00:cc:ec:88:c4:e2:45:9e:97:df:a7:e9:9c:02:be:8e:7f:
         a7:70:11:40:7b:5b:b9:8c:04:94:82:5a:8a:41:9f:77:ac:90:
         dc:f6:0a:d8:79:b2:ca:5a:c7:26:23:f8:3e:01:e4:db:0a:17:
         84:44:5d:34:69:1f:b6:88:55:a3:86:8a:0f
-----BEGIN CERTIFICATE-----
MIIDYzCCAsSgAwIBAgIBATAKBggqhkjOPQQDAjCBrjELMAkGA1UEBhMCVVMxEDAO
BgNVBAgMB01vbnRhbmExEDAOBgNVBAcMB0JvemVtYW4xFTATBgNVBAoMDHdvbGZT
U0xfcDUyMTEQMA4GA1UECwwHQ0EtcDUyMTEYMBYGA1UEAwwPd3d3LndvbGZzc2wu
Y29tMR8wHQYJKoZIhvcNAQkBFhBpbmZvQHdvbGZzc2wuY29tMRcwFQYKCZImiZPy
LGQBAQwHd29sZlNTTDAeFw0yMjEyMTYyMTE3NTBaFw0yNTA5MTEyMTE3NTBaMIGy
MQswCQYDVQQGEwJVUzEQMA4GA1UECAwHTW9udGFuYTEQMA4GA1UEBwwHQm96ZW1h
bjEVMBMGA1UECgwMd29sZlNTTF9wNTIxMRQwEgYDVQQLDAtTZXJ2ZXItcDUyMTEY
MBYGA1UEAwwPd3d3LndvbGZzc2wuY29tMR8wHQYJKoZIhvcNAQkBFhBpbmZvQHdv
bGZzc2wuY29tMRcwFQYKCZImiZPyLGQBAQwHd29sZlNTTDCBmzAQBgcqhkjOPQIB
BgUrgQQAIwOBhgAEAN5wafbRnsT+X4JSmM5SwWpMEiIPdogiEaUNpgJHkat5jfYI
cC0gFBXfG1dYs1GrIKgrvWo/qe7Cba6ZRLShEhBwAMofFB2w5wxBGFI3BKeEU6EC
RpMf1WBjpi59jeo/4FvlyG4fp9mjWeWWJyL0AiuvW3gfE6gii+yuAX3AYROkNQoh
o4GJMIGGMB0GA1UdDgQWBBSFhp+uc1+Udyc7FRXGeQeoQkse8zAfBgNVHSMEGDAW
gBRAiR0wXgxu1T3G1SWQ2rZCZ+3pgjAMBgNVHRMBAf8EAjAAMA4GA1UdDwEB/wQE
AwIDqDATBgNVHSUEDDAKBggrBgEFBQcDATARBglghkgBhvhCAQEEBAMCBkAwCgYI
KoZIzj0EAwIDgYwAMIGIAkIBqxbFXHYHbP1fygG9pCJ6q76anDvHa7tawWCbIU3I
xhy9IuMg/2kWKhItYuo2V/owm9C//oRoa2wM4ue8Dd14BqsCQgDM7IjE4kWel9+n
6ZwCvo5/p3ARQHtbuYwElIJaikGfd6yQ3PYK2HmyylrHJiP4PgHk2woXhERdNGkf
tohVo4aKDw==
-----END CERTIFICATE-----
Certificate:
    Data:
        Version: 3 (0x2)
        Serial Number: 1 (0x1)
        Signature Algorithm: ecdsa-with-SHA256
        Issuer: C = US, ST = Montana, L = Bozeman, O = wolfSSL_P521, OU = Root-P521, CN = www.wolfssl.com, emailAddress = info@wolfssl.com
        Validity
            Not Before: Dec 16 21:17:50 2022 GMT
            Not After : Sep 11 21:17:50 2025 GMT
        Subject: C = US, ST = Montana, L = Bozeman, O = wolfSSL_p521, OU = CA-p521, CN = www.wolfssl.com, emailAddress = info@wolfssl.com, UID = wolfSSL
        Subject Public Key Info:
            Public Key Algorithm: id-ecPublicKey
                Public-Key: (521 bit)
                pub:
                    04:00:2d:18:24:2d:e4:db:6c:c3:69:9b:db:18:67:
                    33:f1:60:68:94:14:cd:91:4a:57:65:ef:36:fa:24:
                    82:88:ec:c7:f0:cb:48:45:6e:96:5f:7f:eb:76:be:
                    44:40:c3:19:c0:33:68:c4:06:04:8e:c2:25:b1:96:
                    83:22:0e:7b:c7:b2:fc:01:86:91:ed:43:5d:38:e0:
                    0c:25:8d:b3:db:b1:dc:de:b7:21:80:cf:87:de:64:
                    f4:21:3e:2d:af:79:bd:f6:d0:00:4b:81:79:fa:f7:
                    10:aa:19:cd:40:d7:1e:75:34:53:29:03:ed:48:54:
                    21:e5:8f:95:b5:9b:41:8d:5f:dd:72:d2:5a
                ASN1 OID: secp521r1
                NIST CURVE: P-521
        X509v3 extensions:
            X509v3 Subject Key Identifier: 
                40:89:1D:30:5E:0C:6E:D5:3D:C6:D5:25:90:DA:B6:42:67:ED:E9:82
            X509v3 Authority Key Identifier: 
                keyid:64:A7:68:95:53:33:18:A2:20:92:BC:64:55:A6:AB:CA:76:68:9B:C8

            X509v3 Basic Constraints: critical
                CA:TRUE
            X509v3 Key Usage: critical
                Digital Signature, Certificate Sign, CRL Sign
    Signature Algorithm: ecdsa-with-SHA256
         30:81:88:02:42:01:ac:ed:31:5e:dc:f2:66:a1:d4:26:4a:82:
         31:b2:24:46:93:db:4c:62:bc:77:30:97:96:ef:a2:2d:21:45:
         0a:18:0c:bc:a6:1c:6c:68:69:63:a0:60:66:18:63:e9:ee:4c:
         cc:6c:8f:c8:45:b9:32:d2:3c:9b:6e:f7:6b:8c:bd:08:5f:02:
         42:01:53:85:38:dc:06:3a:75:be:c7:9c:7d:02:77:e5:8b:ba:
         a6:f8:9f:e1:80:79:cb:e1:4a:44:e3:f8:8b:00:46:2c:66:b0:
         95:1c:d7:2f:59:70:6a:c9:47:d6:c9:74:16:1f:8a:90:ad:f8:
         bd:5f:df:97:ad:c9:f8:0b:bc:3c:ca:c7:cc
-----BEGIN CERTIFICATE-----
MIIDITCCAoKgAwIBAgIBATAKBggqhkjOPQQDAjCBlzELMAkGA1UEBhMCVVMxEDAO
BgNVBAgMB01vbnRhbmExEDAOBgNVBAcMB0JvemVtYW4xFTATBgNVBAoMDHdvbGZT
U0xfUDUyMTESMBAGA1UECwwJUm9vdC1QNTIxMRgwFgYDVQQDDA93d3cud29sZnNz
bC5jb20xHzAdBgkqhkiG9w0BCQEWEGluZm9Ad29sZnNzbC5jb20wHhcNMjIxMjE2
MjExNzUwWhcNMjUwOTExMjExNzUwWjCBrjELMAkGA1UEBhMCVVMxEDAOBgNVBAgM
B01vbnRhbmExEDAOBgNVBAcMB0JvemVtYW4xFTATBgNVBAoMDHdvbGZTU0xfcDUy
MTEQMA4GA1UECwwHQ0EtcDUyMTEYMBYGA1UEAwwPd3d3LndvbGZzc2wuY29tMR8w
HQYJKoZIhvcNAQkBFhBpbmZvQHdvbGZzc2wuY29tMRcwFQYKCZImiZPyLGQBAQwH
d29sZlNTTDCBmzAQBgcqhkjOPQIBBgUrgQQAIwOBhgAEAC0YJC3k22zDaZvbGGcz
8WBolBTNkUpXZe82+iSCiOzH8MtIRW6WX3/rdr5EQMMZwDNoxAYEjsIlsZaDIg57
x7L8AYaR7UNdOOAMJY2z27Hc3rchgM+H3mT0IT4tr3m99tAAS4F5+vcQqhnNQNce
dTRTKQPtSFQh5Y+VtZtBjV/dctJao2MwYTAdBgNVHQ4EFgQUQIkdMF4MbtU9xtUl
kNq2Qmft6YIwHwYDVR0jBBgwFoAUZKdolVMzGKIgkrxkVaarynZom8gwDwYDVR0T
AQH/BAUwAwEB/zAOBgNVHQ8BAf8EBAMCAYYwCgYIKoZIzj0EAwIDgYwAMIGIAkIB
rO0xXtzyZqHUJkqCMbIkRpPbTGK8dzCXlu+iLSFFChgMvKYcbGhpY6BgZhhj6e5M
zGyPyEW5MtI8m273a4y9CF8CQgFThTjcBjp1vsecfQJ35Yu6pvif4YB5y+FKROP4
iwBGLGawlRzXL1lwaslH1sl0Fh+KkK34vV/fl63J+Au8PMrHzA==
-----END CERTIFICATE-----
