Certificate:
    Data:
        Version: 3 (0x2)
        Serial Number: 4100 (0x1004)
        Signature Algorithm: ecdsa-with-SHA256
        Issuer: C = US, ST = Washington, L = Seattle, O = wolfSSL, OU = Development, CN = www.wolfssl.com, emailAddress = info@wolfssl.com
        Validity
            Not Before: Jun 16 19:17:58 2020 GMT
            Not After : Jun 11 19:17:58 2040 GMT
        Subject: C = US, ST = Washington, L = Seattle, O = wolfSSL, OU = Development, CN = wolfSSL Intermediate CA ECC, emailAddress = info@wolfssl.com
        Subject Public Key Info:
            Public Key Algorithm: id-ecPublicKey
                Public-Key: (256 bit)
                pub:
                    04:c6:9c:cd:8f:e5:ec:5b:d8:b0:fc:91:20:e2:0b:
                    3b:51:53:54:4b:89:43:8e:00:de:91:ae:d3:90:f3:
                    85:dc:cc:3d:11:08:15:76:82:e2:92:35:4a:d4:45:
                    8e:83:36:82:62:b8:4d:07:85:0b:a5:54:e0:14:e8:
                    93:de:7f:92:e8
                ASN1 OID: prime256v1
                NIST CURVE: P-256
        X509v3 extensions:
            X509v3 Subject Key Identifier: 
                13:B5:79:59:32:B3:BB:B4:47:B3:34:0E:80:C0:83:1E:AA:82:C8:5B
            X509v3 Authority Key Identifier: 
                keyid:56:8E:9A:C3:F0:42:DE:18:B9:45:55:6E:F9:93:CF:EA:C3:F3:A5:21

            X509v3 Basic Constraints: critical
                CA:TRUE, pathlen:1
            X509v3 Key Usage: critical
                Digital Signature, Certificate Sign, CRL Sign
    Signature Algorithm: ecdsa-with-SHA256
         30:46:02:21:00:8a:51:91:f6:92:c5:4a:69:65:db:5b:90:c3:
         90:6a:c0:96:e7:26:7a:af:18:91:2c:6b:67:55:40:18:6c:c1:
         a6:02:21:00:96:cc:9d:37:ad:ea:79:52:6e:4d:41:93:db:64:
         7f:e7:42:b9:f1:12:90:f4:84:5c:73:b1:21:d8:fb:55:fe:6f
-----BEGIN CERTIFICATE-----
MIICkzCCAjigAwIBAgICEAQwCgYIKoZIzj0EAwIwgZcxCzAJBgNVBAYTAlVTMRMw
EQYDVQQIDApXYXNoaW5ndG9uMRAwDgYDVQQHDAdTZWF0dGxlMRAwDgYDVQQKDAd3
b2xmU1NMMRQwEgYDVQQLDAtEZXZlbG9wbWVudDEYMBYGA1UEAwwPd3d3LndvbGZz
c2wuY29tMR8wHQYJKoZIhvcNAQkBFhBpbmZvQHdvbGZzc2wuY29tMB4XDTIwMDYx
NjE5MTc1OFoXDTQwMDYxMTE5MTc1OFowgaMxCzAJBgNVBAYTAlVTMRMwEQYDVQQI
DApXYXNoaW5ndG9uMRAwDgYDVQQHDAdTZWF0dGxlMRAwDgYDVQQKDAd3b2xmU1NM
MRQwEgYDVQQLDAtEZXZlbG9wbWVudDEkMCIGA1UEAwwbd29sZlNTTCBJbnRlcm1l
ZGlhdGUgQ0EgRUNDMR8wHQYJKoZIhvcNAQkBFhBpbmZvQHdvbGZzc2wuY29tMFkw
EwYHKoZIzj0CAQYIKoZIzj0DAQcDQgAExpzNj+XsW9iw/JEg4gs7UVNUS4lDjgDe
ka7TkPOF3Mw9EQgVdoLikjVK1EWOgzaCYrhNB4ULpVTgFOiT3n+S6KNmMGQwHQYD
VR0OBBYEFBO1eVkys7u0R7M0DoDAgx6qgshbMB8GA1UdIwQYMBaAFFaOmsPwQt4Y
uUVVbvmTz+rD86UhMBIGA1UdEwEB/wQIMAYBAf8CAQEwDgYDVR0PAQH/BAQDAgGG
MAoGCCqGSM49BAMCA0kAMEYCIQCKUZH2ksVKaWXbW5DDkGrAlucmeq8YkSxrZ1VA
GGzBpgIhAJbMnTet6nlSbk1Bk9tkf+dCufESkPSEXHOxIdj7Vf5v
-----END CERTIFICATE-----
