Certificate:
    Data:
        Version: 3 (0x2)
        Serial Number: 4096 (0x1000)
        Signature Algorithm: sha256WithRSAEncryption
        Issuer: C = US, ST = Montana, L = Bozeman, O = Sawtooth, OU = Consulting, CN = www.wolfssl.com, emailAddress = info@wolfssl.com
        Validity
            Not Before: Jun 16 19:17:57 2020 GMT
            Not After : Jun 11 19:17:57 2040 GMT
        Subject: C = US, ST = Washington, L = Seattle, O = wolfSSL, OU = Development, CN = wolfSSL Intermediate CA, emailAddress = info@wolfssl.com
        Subject Public Key Info:
            Public Key Algorithm: rsaEncryption
                RSA Public-Key: (2048 bit)
                Modulus:
                    00:f2:23:28:f7:81:43:f0:63:b9:f2:77:7e:30:1a:
                    40:6b:e1:dd:6b:41:36:ee:7d:58:23:dc:56:e9:bb:
                    e8:3b:11:58:c3:c3:b7:eb:98:5a:e9:76:12:cd:ef:
                    77:09:25:d3:6c:e6:3a:49:68:50:90:d7:32:e0:18:
                    d6:05:df:f7:9e:d2:8f:7b:b5:91:5c:bf:3e:09:81:
                    dd:79:ed:44:c2:93:f5:9d:a4:cb:0a:6b:63:b4:f0:
                    ee:d1:dd:6c:e7:c6:b7:f1:30:d4:b7:54:28:18:11:
                    fc:25:ac:5b:f1:b3:19:13:47:7d:7e:d9:45:97:3c:
                    bb:b9:42:70:06:94:55:23:15:0b:84:ca:0c:15:c1:
                    6e:1a:1c:f9:54:c9:e6:e3:b8:c1:45:e5:5a:89:e1:
                    f1:1b:1d:81:b7:34:07:17:28:5b:10:c7:a6:21:eb:
                    5d:89:11:a3:d0:39:60:34:ea:e1:75:fa:b8:7c:ee:
                    c5:3f:64:6a:1d:b8:d8:a4:b2:82:98:31:11:e8:b5:
                    20:2d:03:e5:d1:61:35:a4:4b:b5:ad:a6:b7:72:71:
                    3e:86:38:0e:38:b6:5d:b5:ab:bf:3a:ba:1e:32:76:
                    ba:54:4d:05:ca:4e:e2:83:df:30:64:11:9e:99:93:
                    3b:a6:fb:3b:df:7d:90:02:f4:b4:f1:e8:41:31:78:
                    02:3f
                Exponent: 65537 (0x10001)
        X509v3 extensions:
            X509v3 Subject Key Identifier: 
                83:1C:F1:98:85:EC:6E:06:45:34:DE:51:C0:BA:B7:2B:67:32:66:4D
            X509v3 Authority Key Identifier: 
                keyid:27:8E:67:11:74:C3:26:1D:3F:ED:33:63:B3:A4:D8:1D:30:E5:E8:D5

            X509v3 Basic Constraints: critical
                CA:TRUE, pathlen:1
            X509v3 Key Usage: critical
                Digital Signature, Certificate Sign, CRL Sign
    Signature Algorithm: sha256WithRSAEncryption
         7d:0d:5c:2a:19:e7:ee:5f:ca:2d:d4:59:54:b9:ca:33:18:3a:
         e3:22:2c:18:70:bb:c5:58:45:d9:82:bc:80:5d:90:d9:02:34:
         6c:1a:4f:f1:6b:59:4e:cd:e1:ea:27:80:e6:e2:d8:7e:af:2b:
         ac:c1:62:e0:4d:e9:e6:74:99:fe:c0:50:cb:d3:7d:e5:2b:82:
         0d:67:0d:14:b5:2c:6a:a2:7a:c2:dd:08:a7:40:2a:8f:a1:bf:
         4d:53:75:5d:dd:c3:82:e5:e4:1f:04:b0:b6:a7:cc:55:6c:b4:
         d4:74:9e:9a:36:37:f0:32:69:97:44:fb:d2:22:1a:8b:95:34:
         44:32:cc:2a:a9:76:f7:12:c7:b9:9b:f1:e5:a7:c7:d5:6d:12:
         ec:00:1d:21:b2:13:f2:33:e0:ea:e0:c8:63:7c:dd:06:c7:3c:
         ba:a4:bd:a0:9b:8d:a1:1a:7d:3a:d7:c9:f3:35:4e:c5:76:6b:
         6d:50:d1:95:23:e8:c0:7f:3d:3f:45:08:10:77:6b:29:68:cc:
         dd:b6:20:f8:c1:15:4c:6f:e2:ab:9d:61:13:dd:bc:c5:e7:98:
         cc:23:29:ba:1c:b6:21:c0:b0:b6:e9:de:2b:43:d7:ca:7b:28:
         6a:fa:4c:c9:39:4d:e1:40:ed:e6:c0:16:9d:69:b2:f9:bf:db:
         50:27:3c:b3
-----BEGIN CERTIFICATE-----
MIIEFzCCAv+gAwIBAgICEAAwDQYJKoZIhvcNAQELBQAwgZQxCzAJBgNVBAYTAlVT
MRAwDgYDVQQIDAdNb250YW5hMRAwDgYDVQQHDAdCb3plbWFuMREwDwYDVQQKDAhT
YXd0b290aDETMBEGA1UECwwKQ29uc3VsdGluZzEYMBYGA1UEAwwPd3d3LndvbGZz
c2wuY29tMR8wHQYJKoZIhvcNAQkBFhBpbmZvQHdvbGZzc2wuY29tMB4XDTIwMDYx
NjE5MTc1N1oXDTQwMDYxMTE5MTc1N1owgZ8xCzAJBgNVBAYTAlVTMRMwEQYDVQQI
DApXYXNoaW5ndG9uMRAwDgYDVQQHDAdTZWF0dGxlMRAwDgYDVQQKDAd3b2xmU1NM
MRQwEgYDVQQLDAtEZXZlbG9wbWVudDEgMB4GA1UEAwwXd29sZlNTTCBJbnRlcm1l
ZGlhdGUgQ0ExHzAdBgkqhkiG9w0BCQEWEGluZm9Ad29sZnNzbC5jb20wggEiMA0G
CSqGSIb3DQEBAQUAA4IBDwAwggEKAoIBAQDyIyj3gUPwY7nyd34wGkBr4d1rQTbu
fVgj3Fbpu+g7EVjDw7frmFrpdhLN73cJJdNs5jpJaFCQ1zLgGNYF3/ee0o97tZFc
vz4Jgd157UTCk/WdpMsKa2O08O7R3WznxrfxMNS3VCgYEfwlrFvxsxkTR31+2UWX
PLu5QnAGlFUjFQuEygwVwW4aHPlUyebjuMFF5VqJ4fEbHYG3NAcXKFsQx6Yh612J
EaPQOWA06uF1+rh87sU/ZGoduNiksoKYMRHotSAtA+XRYTWkS7WtprdycT6GOA44
tl21q786uh4ydrpUTQXKTuKD3zBkEZ6Zkzum+zvffZAC9LTx6EExeAI/AgMBAAGj
ZjBkMB0GA1UdDgQWBBSDHPGYhexuBkU03lHAurcrZzJmTTAfBgNVHSMEGDAWgBQn
jmcRdMMmHT/tM2OzpNgdMOXo1TASBgNVHRMBAf8ECDAGAQH/AgEBMA4GA1UdDwEB
/wQEAwIBhjANBgkqhkiG9w0BAQsFAAOCAQEAfQ1cKhnn7l/KLdRZVLnKMxg64yIs
GHC7xVhF2YK8gF2Q2QI0bBpP8WtZTs3h6ieA5uLYfq8rrMFi4E3p5nSZ/sBQy9N9
5SuCDWcNFLUsaqJ6wt0Ip0Aqj6G/TVN1Xd3DguXkHwSwtqfMVWy01HSemjY38DJp
l0T70iIai5U0RDLMKql29xLHuZvx5afH1W0S7AAdIbIT8jPg6uDIY3zdBsc8uqS9
oJuNoRp9OtfJ8zVOxXZrbVDRlSPowH89P0UIEHdrKWjM3bYg+MEVTG/iq51hE928
xeeYzCMpuhy2IcCwtuneK0PXynsoavpMyTlN4UDt5sAWnWmy+b/bUCc8sw==
-----END CERTIFICATE-----
