Certificate:
    Data:
        Version: 3 (0x2)
        Serial Number: 4097 (0x1001)
        Signature Algorithm: sha256WithRSAEncryption
        Issuer: C = US, ST = Washington, L = Seattle, O = wolfSSL, OU = Development, CN = wolfSSL Intermediate CA, emailAddress = info@wolfssl.com
        Validity
            Not Before: Jun 16 19:17:57 2020 GMT
            Not After : Jun 11 19:17:57 2040 GMT
        Subject: C = US, ST = Washington, L = Seattle, O = wolfSSL, OU = Development, CN = wolfSSL Intermediate2 CA, emailAddress = info@wolfssl.com
        Subject Public Key Info:
            Public Key Algorithm: rsaEncryption
                RSA Public-Key: (2048 bit)
                Modulus:
                    00:a0:2f:a1:02:30:5d:19:a1:8e:44:86:d4:93:f7:
                    f1:53:ba:3f:d2:24:df:ff:cb:af:8f:a6:e7:f9:87:
                    9a:1f:00:cc:8f:40:86:78:3a:1b:9a:78:0e:e3:6e:
                    da:f3:e7:6c:57:76:31:cf:03:21:9a:c8:79:29:60:
                    db:ee:d8:a9:15:b4:67:5b:77:9a:86:f9:db:43:cc:
                    a2:0f:91:e6:70:4f:1e:6e:14:b1:8d:f0:a1:e5:39:
                    77:a1:92:97:88:4a:26:f1:88:98:24:6c:fd:46:e2:
                    71:07:5d:af:d4:bc:a8:8c:5d:ee:43:08:da:a7:ec:
                    09:51:ed:ad:cd:75:8b:58:c7:a1:98:56:e7:19:78:
                    93:4b:53:77:b7:da:79:7d:70:84:bb:1d:e9:a0:3c:
                    02:bc:a7:96:fa:bb:98:90:ae:35:19:d0:e7:64:1e:
                    9d:09:a1:06:f2:c2:fd:cb:a3:29:2c:c0:79:f8:e9:
                    e9:93:67:8c:35:2e:a1:49:a0:34:6c:38:1d:6b:4c:
                    a5:ba:c7:84:80:95:17:12:cb:dd:a7:f6:2e:2c:c7:
                    0f:c1:54:1f:97:6c:01:3b:da:2e:c7:dc:53:c9:26:
                    e6:9a:66:a8:7f:55:fa:cd:72:18:69:87:4e:8c:e4:
                    02:dd:f7:31:1a:a3:6e:cd:88:43:70:b4:34:6d:a6:
                    86:75
                Exponent: 65537 (0x10001)
        X509v3 extensions:
            X509v3 Subject Key Identifier: 
                7A:8B:1D:4E:A3:40:C8:CE:58:5F:8D:FC:FF:46:2C:75:41:D9:03:5E
            X509v3 Authority Key Identifier: 
                keyid:83:1C:F1:98:85:EC:6E:06:45:34:DE:51:C0:BA:B7:2B:67:32:66:4D

            X509v3 Basic Constraints: critical
                CA:TRUE, pathlen:1
            X509v3 Key Usage: critical
                Digital Signature, Certificate Sign, CRL Sign
    Signature Algorithm: sha256WithRSAEncryption
         0c:72:99:ed:e7:03:58:c2:2b:88:d2:aa:43:31:84:18:2f:de:
         c5:5d:e0:20:d8:54:3c:5e:2b:87:2a:9f:96:b1:ef:be:d7:c7:
         27:71:68:ac:71:61:b8:6e:d1:aa:4b:2f:ef:d4:37:e7:bb:87:
         90:63:48:38:9b:20:15:bd:bc:af:8a:b4:af:53:91:8e:84:11:
         14:ea:6f:85:f4:4e:ba:0a:49:91:b3:19:99:2a:d1:f9:a7:a7:
         6b:fd:7f:78:88:7b:d3:7d:2c:b1:9f:70:15:1a:db:86:9b:ce:
         b7:07:25:ec:39:8c:59:a3:d2:d1:cc:18:15:14:a0:85:4d:4f:
         fb:9a:47:2f:dc:66:c7:7d:7c:12:89:48:58:d4:cb:1a:1b:12:
         ba:9c:ed:5c:8c:bf:72:0e:5f:8e:42:34:4b:6c:3e:04:6f:d9:
         50:e3:28:93:6b:13:fd:6b:d6:2d:1b:cd:fb:fe:0b:a3:8c:df:
         c8:e6:ad:9e:69:8a:93:96:d7:84:31:bb:ca:f2:db:e2:18:c9:
         f1:91:8a:c7:06:9f:c2:0a:e9:b4:5f:e3:7b:20:fc:1a:16:1c:
         02:53:12:cd:66:45:55:6e:b1:c0:95:2d:2b:d6:19:b8:99:4e:
         1f:1b:9c:fb:b9:fe:8c:7e:32:57:f3:80:e9:f8:be:25:2f:03:
         46:3c:b3:0a
-----BEGIN CERTIFICATE-----
MIIEIzCCAwugAwIBAgICEAEwDQYJKoZIhvcNAQELBQAwgZ8xCzAJBgNVBAYTAlVT
MRMwEQYDVQQIDApXYXNoaW5ndG9uMRAwDgYDVQQHDAdTZWF0dGxlMRAwDgYDVQQK
DAd3b2xmU1NMMRQwEgYDVQQLDAtEZXZlbG9wbWVudDEgMB4GA1UEAwwXd29sZlNT
TCBJbnRlcm1lZGlhdGUgQ0ExHzAdBgkqhkiG9w0BCQEWEGluZm9Ad29sZnNzbC5j
b20wHhcNMjAwNjE2MTkxNzU3WhcNNDAwNjExMTkxNzU3WjCBoDELMAkGA1UEBhMC
VVMxEzARBgNVBAgMCldhc2hpbmd0b24xEDAOBgNVBAcMB1NlYXR0bGUxEDAOBgNV
BAoMB3dvbGZTU0wxFDASBgNVBAsMC0RldmVsb3BtZW50MSEwHwYDVQQDDBh3b2xm
U1NMIEludGVybWVkaWF0ZTIgQ0ExHzAdBgkqhkiG9w0BCQEWEGluZm9Ad29sZnNz
bC5jb20wggEiMA0GCSqGSIb3DQEBAQUAA4IBDwAwggEKAoIBAQCgL6ECMF0ZoY5E
htST9/FTuj/SJN//y6+Ppuf5h5ofAMyPQIZ4OhuaeA7jbtrz52xXdjHPAyGayHkp
YNvu2KkVtGdbd5qG+dtDzKIPkeZwTx5uFLGN8KHlOXehkpeISibxiJgkbP1G4nEH
Xa/UvKiMXe5DCNqn7AlR7a3NdYtYx6GYVucZeJNLU3e32nl9cIS7HemgPAK8p5b6
u5iQrjUZ0OdkHp0JoQbywv3LoykswHn46emTZ4w1LqFJoDRsOB1rTKW6x4SAlRcS
y92n9i4sxw/BVB+XbAE72i7H3FPJJuaaZqh/VfrNchhph06M5ALd9zEao27NiENw
tDRtpoZ1AgMBAAGjZjBkMB0GA1UdDgQWBBR6ix1Oo0DIzlhfjfz/Rix1QdkDXjAf
BgNVHSMEGDAWgBSDHPGYhexuBkU03lHAurcrZzJmTTASBgNVHRMBAf8ECDAGAQH/
AgEBMA4GA1UdDwEB/wQEAwIBhjANBgkqhkiG9w0BAQsFAAOCAQEADHKZ7ecDWMIr
iNKqQzGEGC/exV3gINhUPF4rhyqflrHvvtfHJ3ForHFhuG7Rqksv79Q357uHkGNI
OJsgFb28r4q0r1ORjoQRFOpvhfROugpJkbMZmSrR+aena/1/eIh7030ssZ9wFRrb
hpvOtwcl7DmMWaPS0cwYFRSghU1P+5pHL9xmx318EolIWNTLGhsSupztXIy/cg5f
jkI0S2w+BG/ZUOMok2sT/WvWLRvN+/4Lo4zfyOatnmmKk5bXhDG7yvLb4hjJ8ZGK
xwafwgrptF/jeyD8GhYcAlMSzWZFVW6xwJUtK9YZuJlOHxuc+7n+jH4yV/OA6fi+
JS8DRjyzCg==
-----END CERTIFICATE-----
