Certificate:
    Data:
        Version: 3 (0x2)
        Serial Number: 4101 (0x1005)
        Signature Algorithm: ecdsa-with-SHA256
        Issuer: C = US, ST = Washington, L = Seattle, O = wolfSSL, OU = Development, CN = wolfSSL Intermediate CA ECC, emailAddress = info@wolfssl.com
        Validity
            Not Before: Jun 16 19:17:58 2020 GMT
            Not After : Jun 11 19:17:58 2040 GMT
        Subject: C = US, ST = Washington, L = Seattle, O = wolfSSL, OU = Development, CN = wolfSSL Intermediate2 CA ECC, emailAddress = info@wolfssl.com
        Subject Public Key Info:
            Public Key Algorithm: id-ecPublicKey
                Public-Key: (256 bit)
                pub:
                    04:ea:16:28:2c:27:5e:41:99:05:28:8b:99:fa:c5:
                    a2:74:3c:15:4d:52:f4:4b:2d:83:34:82:8e:d5:b6:
                    3f:61:d0:87:eb:f8:4c:06:5e:ed:66:1e:8c:ca:a4:
                    f6:2a:76:4f:d7:26:09:4c:1e:89:b9:18:8e:d2:a3:
                    66:3c:1b:3d:cb
                ASN1 OID: prime256v1
                NIST CURVE: P-256
        X509v3 extensions:
            X509v3 Subject Key Identifier: 
                1B:F4:BD:90:28:74:64:E3:33:5E:8B:64:A7:FC:AF:BA:F2:B9:55:E5
            X509v3 Authority Key Identifier: 
                keyid:13:B5:79:59:32:B3:BB:B4:47:B3:34:0E:80:C0:83:1E:AA:82:C8:5B

            X509v3 Basic Constraints: critical
                CA:TRUE, pathlen:1
            X509v3 Key Usage: critical
                Digital Signature, Certificate Sign, CRL Sign
    Signature Algorithm: ecdsa-with-SHA256
         30:45:02:20:4f:1b:d1:e1:d7:8e:73:b5:8b:f7:4d:0b:3d:fc:
         12:bc:6f:7c:ad:b9:12:70:30:37:41:27:ec:6b:35:06:8e:47:
         02:21:00:a1:55:91:b7:68:1e:32:66:37:68:10:0a:9f:36:ee:
         c3:97:2b:85:b8:3c:47:3c:4a:ed:13:c5:5b:59:bc:b5:29
-----BEGIN CERTIFICATE-----
MIICnzCCAkWgAwIBAgICEAUwCgYIKoZIzj0EAwIwgaMxCzAJBgNVBAYTAlVTMRMw
EQYDVQQIDApXYXNoaW5ndG9uMRAwDgYDVQQHDAdTZWF0dGxlMRAwDgYDVQQKDAd3
b2xmU1NMMRQwEgYDVQQLDAtEZXZlbG9wbWVudDEkMCIGA1UEAwwbd29sZlNTTCBJ
bnRlcm1lZGlhdGUgQ0EgRUNDMR8wHQYJKoZIhvcNAQkBFhBpbmZvQHdvbGZzc2wu
Y29tMB4XDTIwMDYxNjE5MTc1OFoXDTQwMDYxMTE5MTc1OFowgaQxCzAJBgNVBAYT
AlVTMRMwEQYDVQQIDApXYXNoaW5ndG9uMRAwDgYDVQQHDAdTZWF0dGxlMRAwDgYD
VQQKDAd3b2xmU1NMMRQwEgYDVQQLDAtEZXZlbG9wbWVudDElMCMGA1UEAwwcd29s
ZlNTTCBJbnRlcm1lZGlhdGUyIENBIEVDQzEfMB0GCSqGSIb3DQEJARYQaW5mb0B3
b2xmc3NsLmNvbTBZMBMGByqGSM49AgEGCCqGSM49AwEHA0IABOoWKCwnXkGZBSiL
mfrFonQ8FU1S9EstgzSCjtW2P2HQh+v4TAZe7WYejMqk9ip2T9cmCUweibkYjtKj
ZjwbPcujZjBkMB0GA1UdDgQWBBQb9L2QKHRk4zNei2Sn/K+68rlV5TAfBgNVHSME
GDAWgBQTtXlZMrO7tEezNA6AwIMeqoLIWzASBgNVHRMBAf8ECDAGAQH/AgEBMA4G
A1UdDwEB/wQEAwIBhjAKBggqhkjOPQQDAgNIADBFAiBPG9Hh145ztYv3TQs9/BK8
b3ytuRJwMDdBJ+xrNQaORwIhAKFVkbdoHjJmN2gQCp827sOXK4W4PEc8Su0TxVtZ
vLUp
-----END CERTIFICATE-----
