Certificate:
    Data:
        Version: 3 (0x2)
        Serial Number: 4103 (0x1007)
        Signature Algorithm: ecdsa-with-SHA256
        Issuer: C = US, ST = Washington, L = Seattle, O = wolfSSL, OU = Development, CN = wolfSSL Intermediate2 CA ECC, emailAddress = info@wolfssl.com
        Validity
            Not Before: Jun 16 19:17:58 2020 GMT
            Not After : Jun 14 19:17:58 2030 GMT
        Subject: C = US, ST = Washington, L = Seattle, O = wolfSSL, OU = Development, CN = wolfSSL Client Chain ECC, emailAddress = info@wolfssl.com
        Subject Public Key Info:
            Public Key Algorithm: id-ecPublicKey
                Public-Key: (256 bit)
                pub:
                    04:55:bf:f4:0f:44:50:9a:3d:ce:9b:b7:f0:c5:4d:
                    f5:70:7b:d4:ec:24:8e:19:80:ec:5a:4c:a2:24:03:
                    62:2c:9b:da:ef:a2:35:12:43:84:76:16:c6:56:95:
                    06:cc:01:a9:bd:f6:75:1a:42:f7:bd:a9:b2:36:22:
                    5f:c7:5d:7f:b4
                ASN1 OID: prime256v1
                NIST CURVE: P-256
        X509v3 extensions:
            X509v3 Basic Constraints: 
                CA:FALSE
            Netscape Cert Type: 
                SSL Client, S/MIME
            X509v3 Subject Key Identifier: 
                EB:D4:4B:59:6B:95:61:3F:51:57:B6:04:4D:89:41:88:44:5C:AB:F2
            X509v3 Authority Key Identifier: 
                keyid:1B:F4:BD:90:28:74:64:E3:33:5E:8B:64:A7:FC:AF:BA:F2:B9:55:E5

            X509v3 Key Usage: critical
                Digital Signature, Non Repudiation, Key Encipherment
            X509v3 Extended Key Usage: 
                TLS Web Client Authentication, E-mail Protection
    Signature Algorithm: ecdsa-with-SHA256
         30:46:02:21:00:ae:82:3d:35:16:73:d5:1e:e5:a7:34:cf:27:
         70:42:99:dc:59:5a:8a:36:25:37:81:89:c5:84:a6:95:80:9d:
         ad:02:21:00:d9:8e:1d:7e:6d:24:a0:7e:31:82:25:09:e8:e1:
         d8:b6:ba:4e:99:5f:b9:4d:e3:66:3e:11:61:ba:e2:2a:7a:e3
-----BEGIN CERTIFICATE-----
MIICyDCCAm2gAwIBAgICEAcwCgYIKoZIzj0EAwIwgaQxCzAJBgNVBAYTAlVTMRMw
EQYDVQQIDApXYXNoaW5ndG9uMRAwDgYDVQQHDAdTZWF0dGxlMRAwDgYDVQQKDAd3
b2xmU1NMMRQwEgYDVQQLDAtEZXZlbG9wbWVudDElMCMGA1UEAwwcd29sZlNTTCBJ
bnRlcm1lZGlhdGUyIENBIEVDQzEfMB0GCSqGSIb3DQEJARYQaW5mb0B3b2xmc3Ns
LmNvbTAeFw0yMDA2MTYxOTE3NThaFw0zMDA2MTQxOTE3NThaMIGgMQswCQYDVQQG
EwJVUzETMBEGA1UECAwKV2FzaGluZ3RvbjEQMA4GA1UEBwwHU2VhdHRsZTEQMA4G
A1UECgwHd29sZlNTTDEUMBIGA1UECwwLRGV2ZWxvcG1lbnQxITAfBgNVBAMMGHdv
bGZTU0wgQ2xpZW50IENoYWluIEVDQzEfMB0GCSqGSIb3DQEJARYQaW5mb0B3b2xm
c3NsLmNvbTBZMBMGByqGSM49AgEGCCqGSM49AwEHA0IABFW/9A9EUJo9zpu38MVN
9XB71OwkjhmA7FpMoiQDYiyb2u+iNRJDhHYWxlaVBswBqb32dRpC972psjYiX8dd
f7SjgZAwgY0wCQYDVR0TBAIwADARBglghkgBhvhCAQEEBAMCBaAwHQYDVR0OBBYE
FOvUS1lrlWE/UVe2BE2JQYhEXKvyMB8GA1UdIwQYMBaAFBv0vZAodGTjM16LZKf8
r7ryuVXlMA4GA1UdDwEB/wQEAwIF4DAdBgNVHSUEFjAUBggrBgEFBQcDAgYIKwYB
BQUHAwQwCgYIKoZIzj0EAwIDSQAwRgIhAK6CPTUWc9Ue5ac0zydwQpncWVqKNiU3
gYnFhKaVgJ2tAiEA2Y4dfm0koH4xgiUJ6OHYtrpOmV+5TeNmPhFhuuIqeuM=
-----END CERTIFICATE-----
