Certificate:
    Data:
        Version: 3 (0x2)
        Serial Number: 4099 (0x1003)
        Signature Algorithm: sha256WithRSAEncryption
        Issuer: C = US, ST = Washington, L = Seattle, O = wolfSSL, OU = Development, CN = wolfSSL Intermediate2 CA, emailAddress = info@wolfssl.com
        Validity
            Not Before: Jun 16 19:17:58 2020 GMT
            Not After : Jun 14 19:17:58 2030 GMT
        Subject: C = US, ST = Washington, L = Seattle, O = wolfSSL, OU = Development, CN = wolfSSL Client Chain, emailAddress = info@wolfssl.com
        Subject Public Key Info:
            Public Key Algorithm: rsaEncryption
                RSA Public-Key: (2048 bit)
                Modulus:
                    00:c3:03:d1:2b:fe:39:a4:32:45:3b:53:c8:84:2b:
                    2a:7c:74:9a:bd:aa:2a:52:07:47:d6:a6:36:b2:07:
                    32:8e:d0:ba:69:7b:c6:c3:44:9e:d4:81:48:fd:2d:
                    68:a2:8b:67:bb:a1:75:c8:36:2c:4a:d2:1b:f7:8b:
                    ba:cf:0d:f9:ef:ec:f1:81:1e:7b:9b:03:47:9a:bf:
                    65:cc:7f:65:24:69:a6:e8:14:89:5b:e4:34:f7:c5:
                    b0:14:93:f5:67:7b:3a:7a:78:e1:01:56:56:91:a6:
                    13:42:8d:d2:3c:40:9c:4c:ef:d1:86:df:37:51:1b:
                    0c:a1:3b:f5:f1:a3:4a:35:e4:e1:ce:96:df:1b:7e:
                    bf:4e:97:d0:10:e8:a8:08:30:81:af:20:0b:43:14:
                    c5:74:67:b4:32:82:6f:8d:86:c2:88:40:99:36:83:
                    ba:1e:40:72:22:17:d7:52:65:24:73:b0:ce:ef:19:
                    cd:ae:ff:78:6c:7b:c0:12:03:d4:4e:72:0d:50:6d:
                    3b:a3:3b:a3:99:5e:9d:c8:d9:0c:85:b3:d9:8a:d9:
                    54:26:db:6d:fa:ac:bb:ff:25:4c:c4:d1:79:f4:71:
                    d3:86:40:18:13:b0:63:b5:72:4e:30:c4:97:84:86:
                    2d:56:2f:d7:15:f7:7f:c0:ae:f5:fc:5b:e5:fb:a1:
                    ba:d3
                Exponent: 65537 (0x10001)
        X509v3 extensions:
            X509v3 Basic Constraints: 
                CA:FALSE
            Netscape Cert Type: 
                SSL Client, S/MIME
            X509v3 Subject Key Identifier: 
                33:D8:45:66:D7:68:87:18:7E:54:0D:70:27:91:C7:26:D7:85:65:C0
            X509v3 Authority Key Identifier: 
                keyid:7A:8B:1D:4E:A3:40:C8:CE:58:5F:8D:FC:FF:46:2C:75:41:D9:03:5E

            X509v3 Key Usage: critical
                Digital Signature, Non Repudiation, Key Encipherment
            X509v3 Extended Key Usage: 
                TLS Web Client Authentication, E-mail Protection
    Signature Algorithm: sha256WithRSAEncryption
         3d:fb:9c:0e:c4:33:4d:23:92:85:2d:4a:57:49:73:40:15:2a:
         ff:c2:7b:e5:66:75:6a:06:de:bd:09:8b:fd:f2:41:e5:b8:af:
         96:5c:d5:9e:6f:a0:52:fa:10:12:b0:71:8d:20:43:99:16:2a:
         39:46:ed:f5:3a:b3:03:35:9d:85:1e:e7:ee:f9:61:4b:9d:20:
         a2:16:76:69:67:77:06:83:f5:c0:97:0c:d9:b1:b5:d6:7d:77:
         c0:93:27:a9:27:f0:31:b4:ac:8d:73:3c:f1:73:19:74:af:f7:
         67:07:68:bd:c5:28:93:88:dd:90:b1:12:9f:64:a6:ba:c4:c0:
         46:7c:e3:0a:db:ae:c7:39:6c:9c:01:0a:ba:64:db:74:e5:02:
         72:38:cd:8e:b2:2e:ef:18:c2:a6:e7:6d:3f:8f:c4:92:ca:ad:
         e0:0c:8a:f2:48:ca:e1:1c:c9:20:a6:de:d3:c5:23:54:7d:10:
         c7:db:f5:8c:39:b2:79:51:3f:f3:d7:15:f2:22:47:9b:7b:00:
         d8:54:e3:c0:73:21:68:7c:d6:f2:cc:fa:b3:27:85:a8:2a:65:
         c7:6d:85:d1:77:62:79:cf:64:3d:24:6c:cc:d2:5b:bc:fe:fa:
         a9:a3:e9:85:85:1f:87:8d:6d:6f:db:f0:a4:b6:59:a8:f1:37:
         a5:8d:3f:9d
-----BEGIN CERTIFICATE-----
MIIESzCCAzOgAwIBAgICEAMwDQYJKoZIhvcNAQELBQAwgaAxCzAJBgNVBAYTAlVT
MRMwEQYDVQQIDApXYXNoaW5ndG9uMRAwDgYDVQQHDAdTZWF0dGxlMRAwDgYDVQQK
DAd3b2xmU1NMMRQwEgYDVQQLDAtEZXZlbG9wbWVudDEhMB8GA1UEAwwYd29sZlNT
TCBJbnRlcm1lZGlhdGUyIENBMR8wHQYJKoZIhvcNAQkBFhBpbmZvQHdvbGZzc2wu
Y29tMB4XDTIwMDYxNjE5MTc1OFoXDTMwMDYxNDE5MTc1OFowgZwxCzAJBgNVBAYT
AlVTMRMwEQYDVQQIDApXYXNoaW5ndG9uMRAwDgYDVQQHDAdTZWF0dGxlMRAwDgYD
VQQKDAd3b2xmU1NMMRQwEgYDVQQLDAtEZXZlbG9wbWVudDEdMBsGA1UEAwwUd29s
ZlNTTCBDbGllbnQgQ2hhaW4xHzAdBgkqhkiG9w0BCQEWEGluZm9Ad29sZnNzbC5j
b20wggEiMA0GCSqGSIb3DQEBAQUAA4IBDwAwggEKAoIBAQDDA9Er/jmkMkU7U8iE
Kyp8dJq9qipSB0fWpjayBzKO0Lppe8bDRJ7UgUj9LWiii2e7oXXINixK0hv3i7rP
Dfnv7PGBHnubA0eav2XMf2UkaaboFIlb5DT3xbAUk/Vnezp6eOEBVlaRphNCjdI8
QJxM79GG3zdRGwyhO/Xxo0o15OHOlt8bfr9Ol9AQ6KgIMIGvIAtDFMV0Z7Qygm+N
hsKIQJk2g7oeQHIiF9dSZSRzsM7vGc2u/3hse8ASA9ROcg1QbTujO6OZXp3I2QyF
s9mK2VQm2236rLv/JUzE0Xn0cdOGQBgTsGO1ck4wxJeEhi1WL9cV93/ArvX8W+X7
obrTAgMBAAGjgZAwgY0wCQYDVR0TBAIwADARBglghkgBhvhCAQEEBAMCBaAwHQYD
VR0OBBYEFDPYRWbXaIcYflQNcCeRxybXhWXAMB8GA1UdIwQYMBaAFHqLHU6jQMjO
WF+N/P9GLHVB2QNeMA4GA1UdDwEB/wQEAwIF4DAdBgNVHSUEFjAUBggrBgEFBQcD
AgYIKwYBBQUHAwQwDQYJKoZIhvcNAQELBQADggEBAD37nA7EM00jkoUtSldJc0AV
Kv/Ce+VmdWoG3r0Ji/3yQeW4r5Zc1Z5voFL6EBKwcY0gQ5kWKjlG7fU6swM1nYUe
5+75YUudIKIWdmlndwaD9cCXDNmxtdZ9d8CTJ6kn8DG0rI1zPPFzGXSv92cHaL3F
KJOI3ZCxEp9kprrEwEZ84wrbrsc5bJwBCrpk23TlAnI4zY6yLu8YwqbnbT+PxJLK
reAMivJIyuEcySCm3tPFI1R9EMfb9Yw5snlRP/PXFfIiR5t7ANhU48BzIWh81vLM
+rMnhagqZcdthdF3YnnPZD0kbMzSW7z++qmj6YWFH4eNbW/b8KS2WajxN6WNP50=
-----END CERTIFICATE-----
