Certificate:
    Data:
        Version: 3 (0x2)
        Serial Number: 4102 (0x1006)
        Signature Algorithm: ecdsa-with-SHA256
        Issuer: C = US, ST = Washington, L = Seattle, O = wolfSSL, OU = Development, CN = wolfSSL Intermediate2 CA ECC, emailAddress = info@wolfssl.com
        Validity
            Not Before: Jun 16 19:17:58 2020 GMT
            Not After : Jun 14 19:17:58 2030 GMT
        Subject: C = US, ST = Washington, L = Seattle, O = wolfSSL, OU = Development, CN = wolfSSL Server Chain ECC, emailAddress = info@wolfssl.com
        Subject Public Key Info:
            Public Key Algorithm: id-ecPublicKey
                Public-Key: (256 bit)
                pub:
                    04:bb:33:ac:4c:27:50:4a:c6:4a:a5:04:c3:3c:de:
                    9f:36:db:72:2d:ce:94:ea:2b:fa:cb:20:09:39:2c:
                    16:e8:61:02:e9:af:4d:d3:02:93:9a:31:5b:97:92:
                    21:7f:f0:cf:18:da:91:11:02:34:86:e8:20:58:33:
                    0b:80:34:89:d8
                ASN1 OID: prime256v1
                NIST CURVE: P-256
        X509v3 extensions:
            X509v3 Basic Constraints: 
                CA:FALSE
            Netscape Cert Type: 
                SSL Server
            X509v3 Subject Key Identifier: 
                5D:5D:26:EF:AC:7E:36:F9:9B:76:15:2B:4A:25:02:23:EF:B2:89:30
            X509v3 Authority Key Identifier: 
                keyid:1B:F4:BD:90:28:74:64:E3:33:5E:8B:64:A7:FC:AF:BA:F2:B9:55:E5
                DirName:/C=US/ST=Washington/L=Seattle/O=wolfSSL/OU=Development/CN=wolfSSL Intermediate CA ECC/emailAddress=info@wolfssl.com
                serial:10:05

            X509v3 Key Usage: critical
                Digital Signature, Key Encipherment, Key Agreement
            X509v3 Extended Key Usage: 
                TLS Web Server Authentication
    Signature Algorithm: ecdsa-with-SHA256
         30:46:02:21:00:98:d0:e2:f9:89:ca:b2:74:36:a7:33:0b:fe:
         14:90:10:45:7a:2d:6d:40:44:db:08:ec:45:79:8b:4e:91:e0:
         d5:02:21:00:ea:11:1b:c1:b5:95:bc:bf:d9:f5:99:37:d1:d2:
         e6:b8:aa:19:bd:97:42:09:bb:0a:51:6c:4e:a2:61:72:e8:44
-----BEGIN CERTIFICATE-----
MIIDczCCAxigAwIBAgICEAYwCgYIKoZIzj0EAwIwgaQxCzAJBgNVBAYTAlVTMRMw
EQYDVQQIDApXYXNoaW5ndG9uMRAwDgYDVQQHDAdTZWF0dGxlMRAwDgYDVQQKDAd3
b2xmU1NMMRQwEgYDVQQLDAtEZXZlbG9wbWVudDElMCMGA1UEAwwcd29sZlNTTCBJ
bnRlcm1lZGlhdGUyIENBIEVDQzEfMB0GCSqGSIb3DQEJARYQaW5mb0B3b2xmc3Ns
LmNvbTAeFw0yMDA2MTYxOTE3NThaFw0zMDA2MTQxOTE3NThaMIGgMQswCQYDVQQG
EwJVUzETMBEGA1UECAwKV2FzaGluZ3RvbjEQMA4GA1UEBwwHU2VhdHRsZTEQMA4G
A1UECgwHd29sZlNTTDEUMBIGA1UECwwLRGV2ZWxvcG1lbnQxITAfBgNVBAMMGHdv
bGZTU0wgU2VydmVyIENoYWluIEVDQzEfMB0GCSqGSIb3DQEJARYQaW5mb0B3b2xm
c3NsLmNvbTBZMBMGByqGSM49AgEGCCqGSM49AwEHA0IABLszrEwnUErGSqUEwzze
nzbbci3OlOor+ssgCTksFuhhAumvTdMCk5oxW5eSIX/wzxjakRECNIboIFgzC4A0
idijggE6MIIBNjAJBgNVHRMEAjAAMBEGCWCGSAGG+EIBAQQEAwIGQDAdBgNVHQ4E
FgQUXV0m76x+NvmbdhUrSiUCI++yiTAwgdEGA1UdIwSByTCBxoAUG/S9kCh0ZOMz
Xotkp/yvuvK5VeWhgamkgaYwgaMxCzAJBgNVBAYTAlVTMRMwEQYDVQQIDApXYXNo
aW5ndG9uMRAwDgYDVQQHDAdTZWF0dGxlMRAwDgYDVQQKDAd3b2xmU1NMMRQwEgYD
VQQLDAtEZXZlbG9wbWVudDEkMCIGA1UEAwwbd29sZlNTTCBJbnRlcm1lZGlhdGUg
Q0EgRUNDMR8wHQYJKoZIhvcNAQkBFhBpbmZvQHdvbGZzc2wuY29tggIQBTAOBgNV
HQ8BAf8EBAMCA6gwEwYDVR0lBAwwCgYIKwYBBQUHAwEwCgYIKoZIzj0EAwIDSQAw
RgIhAJjQ4vmJyrJ0NqczC/4UkBBFei1tQETbCOxFeYtOkeDVAiEA6hEbwbWVvL/Z
9Zk30dLmuKoZvZdCCbsKUWxOomFy6EQ=
-----END CERTIFICATE-----
