Certificate:
    Data:
        Version: 3 (0x2)
        Serial Number: 4098 (0x1002)
        Signature Algorithm: sha256WithRSAEncryption
        Issuer: C = US, ST = Washington, L = Seattle, O = wolfSSL, OU = Development, CN = wolfSSL Intermediate2 CA, emailAddress = info@wolfssl.com
        Validity
            Not Before: Jun 16 19:17:58 2020 GMT
            Not After : Jun 14 19:17:58 2030 GMT
        Subject: C = US, ST = Washington, L = Seattle, O = wolfSSL, OU = Development, CN = wolfSSL Server Chain, emailAddress = info@wolfssl.com
        Subject Public Key Info:
            Public Key Algorithm: rsaEncryption
                RSA Public-Key: (2048 bit)
                Modulus:
                    00:c0:95:08:e1:57:41:f2:71:6d:b7:d2:45:41:27:
                    01:65:c6:45:ae:f2:bc:24:30:b8:95:ce:2f:4e:d6:
                    f6:1c:88:bc:7c:9f:fb:a8:67:7f:fe:5c:9c:51:75:
                    f7:8a:ca:07:e7:35:2f:8f:e1:bd:7b:c0:2f:7c:ab:
                    64:a8:17:fc:ca:5d:7b:ba:e0:21:e5:72:2e:6f:2e:
                    86:d8:95:73:da:ac:1b:53:b9:5f:3f:d7:19:0d:25:
                    4f:e1:63:63:51:8b:0b:64:3f:ad:43:b8:a5:1c:5c:
                    34:b3:ae:00:a0:63:c5:f6:7f:0b:59:68:78:73:a6:
                    8c:18:a9:02:6d:af:c3:19:01:2e:b8:10:e3:c6:cc:
                    40:b4:69:a3:46:33:69:87:6e:c4:bb:17:a6:f3:e8:
                    dd:ad:73:bc:7b:2f:21:b5:fd:66:51:0c:bd:54:b3:
                    e1:6d:5f:1c:bc:23:73:d1:09:03:89:14:d2:10:b9:
                    64:c3:2a:d0:a1:96:4a:bc:e1:d4:1a:5b:c7:a0:c0:
                    c1:63:78:0f:44:37:30:32:96:80:32:23:95:a1:77:
                    ba:13:d2:97:73:e2:5d:25:c9:6a:0d:c3:39:60:a4:
                    b4:b0:69:42:42:09:e9:d8:08:bc:33:20:b3:58:22:
                    a7:aa:eb:c4:e1:e6:61:83:c5:d2:96:df:d9:d0:4f:
                    ad:d7
                Exponent: 65537 (0x10001)
        X509v3 extensions:
            X509v3 Basic Constraints: 
                CA:FALSE
            Netscape Cert Type: 
                SSL Server
            X509v3 Subject Key Identifier: 
                B3:11:32:C9:92:98:84:E2:C9:F8:D0:3B:6E:03:42:CA:1F:0E:8E:3C
            X509v3 Authority Key Identifier: 
                keyid:7A:8B:1D:4E:A3:40:C8:CE:58:5F:8D:FC:FF:46:2C:75:41:D9:03:5E
                DirName:/C=US/ST=Washington/L=Seattle/O=wolfSSL/OU=Development/CN=wolfSSL Intermediate CA/emailAddress=info@wolfssl.com
                serial:10:01

            X509v3 Key Usage: critical
                Digital Signature, Key Encipherment, Key Agreement
            X509v3 Extended Key Usage: 
                TLS Web Server Authentication
    Signature Algorithm: sha256WithRSAEncryption
         92:90:bf:56:5d:98:21:ce:d6:0a:8d:7c:af:ba:9b:59:d8:33:
         c1:21:0f:6f:31:1c:13:c5:9f:de:a8:7d:ef:e5:c5:0b:8b:7e:
         18:cb:9d:d8:de:c9:3d:32:ee:ff:d0:89:98:3b:33:68:db:cd:
         66:5e:9d:ee:da:53:34:65:21:e3:43:f6:a7:b2:79:b5:79:2c:
         2e:23:3f:3e:61:59:80:88:fd:c3:c5:04:e9:ad:52:a9:58:7d:
         ef:c5:a7:85:1a:55:60:e1:0d:7e:11:c8:ba:59:d8:c6:1d:36:
         04:63:8e:7d:af:28:fd:13:7a:32:f5:29:d7:0a:ef:06:3c:85:
         90:b6:c6:4f:39:b1:18:ee:be:17:a5:44:17:87:b3:94:a1:34:
         62:4c:77:c8:06:93:c8:03:f5:f2:aa:5b:ff:d0:9a:ad:f3:b2:
         ca:5b:81:54:ef:1b:39:f8:c6:77:f1:80:50:0f:0c:6e:94:14:
         62:a3:fc:99:8e:d2:e3:36:b8:25:1b:6d:55:d2:1b:21:97:d3:
         84:e6:96:ee:9f:b3:00:44:70:3a:9f:fc:62:e2:42:1a:93:1e:
         fc:9e:ec:8d:1c:7a:1a:b1:13:46:4e:eb:0d:28:b9:4d:08:e6:
         09:31:c0:bb:2e:07:e0:cb:a9:5a:06:87:c4:8e:ba:6b:2f:75:
         54:85:36:f5
-----BEGIN CERTIFICATE-----
MIIE8jCCA9qgAwIBAgICEAIwDQYJKoZIhvcNAQELBQAwgaAxCzAJBgNVBAYTAlVT
MRMwEQYDVQQIDApXYXNoaW5ndG9uMRAwDgYDVQQHDAdTZWF0dGxlMRAwDgYDVQQK
DAd3b2xmU1NMMRQwEgYDVQQLDAtEZXZlbG9wbWVudDEhMB8GA1UEAwwYd29sZlNT
TCBJbnRlcm1lZGlhdGUyIENBMR8wHQYJKoZIhvcNAQkBFhBpbmZvQHdvbGZzc2wu
Y29tMB4XDTIwMDYxNjE5MTc1OFoXDTMwMDYxNDE5MTc1OFowgZwxCzAJBgNVBAYT
AlVTMRMwEQYDVQQIDApXYXNoaW5ndG9uMRAwDgYDVQQHDAdTZWF0dGxlMRAwDgYD
VQQKDAd3b2xmU1NMMRQwEgYDVQQLDAtEZXZlbG9wbWVudDEdMBsGA1UEAwwUd29s
ZlNTTCBTZXJ2ZXIgQ2hhaW4xHzAdBgkqhkiG9w0BCQEWEGluZm9Ad29sZnNzbC5j
b20wggEiMA0GCSqGSIb3DQEBAQUAA4IBDwAwggEKAoIBAQDAlQjhV0HycW230kVB
JwFlxkWu8rwkMLiVzi9O1vYciLx8n/uoZ3/+XJxRdfeKygfnNS+P4b17wC98q2So
F/zKXXu64CHlci5vLobYlXParBtTuV8/1xkNJU/hY2NRiwtkP61DuKUcXDSzrgCg
Y8X2fwtZaHhzpowYqQJtr8MZAS64EOPGzEC0aaNGM2mHbsS7F6bz6N2tc7x7LyG1
/WZRDL1Us+FtXxy8I3PRCQOJFNIQuWTDKtChlkq84dQaW8egwMFjeA9ENzAyloAy
I5Whd7oT0pdz4l0lyWoNwzlgpLSwaUJCCenYCLwzILNYIqeq68Th5mGDxdKW39nQ
T63XAgMBAAGjggE2MIIBMjAJBgNVHRMEAjAAMBEGCWCGSAGG+EIBAQQEAwIGQDAd
BgNVHQ4EFgQUsxEyyZKYhOLJ+NA7bgNCyh8Ojjwwgc0GA1UdIwSBxTCBwoAUeosd
TqNAyM5YX438/0YsdUHZA16hgaWkgaIwgZ8xCzAJBgNVBAYTAlVTMRMwEQYDVQQI
DApXYXNoaW5ndG9uMRAwDgYDVQQHDAdTZWF0dGxlMRAwDgYDVQQKDAd3b2xmU1NM
MRQwEgYDVQQLDAtEZXZlbG9wbWVudDEgMB4GA1UEAwwXd29sZlNTTCBJbnRlcm1l
ZGlhdGUgQ0ExHzAdBgkqhkiG9w0BCQEWEGluZm9Ad29sZnNzbC5jb22CAhABMA4G
A1UdDwEB/wQEAwIDqDATBgNVHSUEDDAKBggrBgEFBQcDATANBgkqhkiG9w0BAQsF
AAOCAQEAkpC/Vl2YIc7WCo18r7qbWdgzwSEPbzEcE8Wf3qh97+XFC4t+GMud2N7J
PTLu/9CJmDszaNvNZl6d7tpTNGUh40P2p7J5tXksLiM/PmFZgIj9w8UE6a1SqVh9
78WnhRpVYOENfhHIulnYxh02BGOOfa8o/RN6MvUp1wrvBjyFkLbGTzmxGO6+F6VE
F4ezlKE0Ykx3yAaTyAP18qpb/9CarfOyyluBVO8bOfjGd/GAUA8MbpQUYqP8mY7S
4za4JRttVdIbIZfThOaW7p+zAERwOp/8YuJCGpMe/J7sjRx6GrETRk7rDSi5TQjm
CTHAuy4H4MupWgaHxI66ay91VIU29Q==
-----END CERTIFICATE-----
